 StructDict

 Timestamp is 5453563d (Fri Oct 31 12:28:29 2014)

 Preferred load address is 10000000

 Start         Length     Name                   Class
 0001:00000000 00002aedH .text$di                CODE
 0001:00002af0 0008bf24H .text$mn                CODE
 0001:0008ea20 00006b3bH .text$x                 CODE
 0001:00095560 000009a6H .text$yd                CODE
 0002:00000000 000002f4H .idata$5                DATA
 0002:000002f4 00000004H .CRT$XCA                DATA
 0002:000002f8 00000004H .CRT$XCL                DATA
 0002:000002fc 00000130H .CRT$XCU                DATA
 0002:0000042c 00000004H .CRT$XCZ                DATA
 0002:00000430 00000004H .CRT$XIA                DATA
 0002:00000434 00000004H .CRT$XIAA               DATA
 0002:00000438 00000004H .CRT$XIC                DATA
 0002:0000043c 00000004H .CRT$XIZ                DATA
 0002:00000440 0000c748H .rdata                  DATA
 0002:0000cb88 0000005cH .rdata$debug            DATA
 0002:0000cbe4 00001584H .rdata$r                DATA
 0002:0000e170 00000730H .rdata$sxdata           DATA
 0002:0000e8a0 00000004H .rtc$IAA                DATA
 0002:0000e8a4 00000044H .rtc$IMZ                DATA
 0002:0000e8e8 00000004H .rtc$IZZ                DATA
 0002:0000e8ec 00000004H .rtc$TAA                DATA
 0002:0000e8f0 00000044H .rtc$TMZ                DATA
 0002:0000e934 00000004H .rtc$TZZ                DATA
 0002:0000e938 00007574H .xdata$x                DATA
 0002:00015eac 00000004H ATL$__a                 DATA
 0002:00015eb0 00000004H ATL$__z                 DATA
 0002:00015ec0 000000a7H .edata                  DATA
 0002:00015f68 0000008cH .idata$2                DATA
 0002:00015ff4 00000014H .idata$3                DATA
 0002:00016008 000002f4H .idata$4                DATA
 0002:000162fc 00000b2cH .idata$6                DATA
 0003:00000000 000003c4H .data                   DATA
 0003:000003c8 00000e20H .data$r                 DATA
 0003:000011e8 00002604H .bss                    DATA
 0004:00000000 0000028cH .rsrc$01                DATA
 0004:00000290 00005e58H .rsrc$02                DATA

  Address         Publics by Value              Rva+Base       Lib:Object

 0000:00000000       ___guard_fids_count        00000000     <absolute>
 0000:00000000       ___guard_fids_table        00000000     <absolute>
 0000:00000000       ___guard_flags             00000000     <absolute>
 0000:00000000       __except_list              00000000     <absolute>
 0000:000001cc       ___safe_se_handler_count   000001cc     <absolute>
 0000:00009876       __fltused                  00009876     <absolute>
 0000:00009876       __ldused                   00009876     <absolute>
 0000:00000000       ___ImageBase               10000000     <linker-defined>
 0001:00002af0       ??$?4UITypeInfo2@@@?$CComPtr@UITypeInfo@@@ATL@@QAEPAUITypeInfo@@ABV?$CComPtr@UITypeInfo2@@@1@@Z 10003af0 f i ComDictionary.obj
 0001:00002b70       ??$?8EE@std@@YA_NABV?$allocator@E@0@0@Z 10003b70 f i ComDictionary.obj
 0001:00002ba0       ??$?8UCSignat@@U0@@std@@YA_NABV?$allocator@UCSignat@@@0@0@Z 10003ba0 f i ComDictionary.obj
 0001:00002bd0       ??$?8UTSignatItem@@U0@@std@@YA_NABV?$allocator@UTSignatItem@@@0@0@Z 10003bd0 f i ComDictionary.obj
 0001:00002c00       ??$?8V?$allocator@E@std@@V01@@std@@YA_NABU?$_Wrap_alloc@V?$allocator@E@std@@@0@0@Z 10003c00 f i ComDictionary.obj
 0001:00002c60       ??$?8V?$allocator@UCSignat@@@std@@V01@@std@@YA_NABU?$_Wrap_alloc@V?$allocator@UCSignat@@@std@@@0@0@Z 10003c60 f i ComDictionary.obj
 0001:00002cc0       ??$?8V?$allocator@UTSignatItem@@@std@@V01@@std@@YA_NABU?$_Wrap_alloc@V?$allocator@UTSignatItem@@@std@@@0@0@Z 10003cc0 f i ComDictionary.obj
 0001:00002d20       ??$?9V?$allocator@E@std@@V01@@std@@YA_NABU?$_Wrap_alloc@V?$allocator@E@std@@@0@0@Z 10003d20 f i ComDictionary.obj
 0001:00002d90       ??$?9V?$allocator@UCSignat@@@std@@V01@@std@@YA_NABU?$_Wrap_alloc@V?$allocator@UCSignat@@@std@@@0@0@Z 10003d90 f i ComDictionary.obj
 0001:00002e00       ??$?9V?$allocator@UTSignatItem@@@std@@V01@@std@@YA_NABU?$_Wrap_alloc@V?$allocator@UTSignatItem@@@std@@@0@0@Z 10003e00 f i ComDictionary.obj
 0001:00002e70       ??$?RABVCStructEntry@@ABV0@@?$less@X@std@@QBE_NABVCStructEntry@@0@Z 10003e70 f i ComDictionary.obj
 0001:00002ec0       ??$AtlAdd@K@ATL@@YAJPAKKK@Z 10003ec0 f i ComDictionary.obj
 0001:00002f20       ??$AtlAddThrow@K@ATL@@YAKKK@Z 10003f20 f i ComDictionary.obj
 0001:00002fb0       ??$AtlMultiply@H@ATL@@YAJPAHHH@Z 10003fb0 f i ComDictionary.obj
 0001:00003040       ??$QueryInterface@UITypeInfo2@@@IUnknown@@QAGJPAPAUITypeInfo2@@@Z 10004040 f i ComDictionary.obj
 0001:000030a0       ??$_Advance@PBVCStructEntry@@H@std@@YAXAAPBVCStructEntry@@HUrandom_access_iterator_tag@0@@Z 100040a0 f i ComDictionary.obj
 0001:000030e0       ??$_Allocate@D@std@@YAPADIPAD@Z 100040e0 f i ComDictionary.obj
 0001:00003150       ??$_Allocate@E@std@@YAPAEIPAE@Z 10004150 f i ComDictionary.obj
 0001:000031c0       ??$_Allocate@UCSignat@@@std@@YAPAUCSignat@@IPAU1@@Z 100041c0 f i ComDictionary.obj
 0001:00003240       ??$_Allocate@UTSignatItem@@@std@@YAPAUTSignatItem@@IPAU1@@Z 10004240 f i ComDictionary.obj
 0001:000032c0       ??$_Allocate@U_Container_proxy@std@@@std@@YAPAU_Container_proxy@0@IPAU10@@Z 100042c0 f i ComDictionary.obj
 0001:00003340       ??$_Copy_impl@PAEPAE@std@@YAPAEPAE00@Z 10004340 f i ComDictionary.obj
 0001:000033b0       ??$_Copy_impl@PAEPAE@std@@YAPAEPAE00U_Scalar_ptr_iterator_tag@0@@Z 100043b0 f i ComDictionary.obj
 0001:00003410       ??$_Copy_impl@PAUCSignat@@PAU1@@std@@YAPAUCSignat@@PAU1@00@Z 10004410 f i ComDictionary.obj
 0001:00003480       ??$_Copy_impl@PAUCSignat@@PAU1@@std@@YAPAUCSignat@@PAU1@00U_Nonscalar_ptr_iterator_tag@0@@Z 10004480 f i ComDictionary.obj
 0001:000034f0       ??$_Copy_impl@PAUTSignatItem@@PAU1@@std@@YAPAUTSignatItem@@PAU1@00@Z 100044f0 f i ComDictionary.obj
 0001:00003560       ??$_Copy_impl@PAUTSignatItem@@PAU1@@std@@YAPAUTSignatItem@@PAU1@00U_Nonscalar_ptr_iterator_tag@0@@Z 10004560 f i ComDictionary.obj
 0001:000035c0       ??$_Debug_pointer@D@std@@YAXPBDPB_WI@Z 100045c0 f i ComDictionary.obj
 0001:00003620       ??$_Debug_pointer@E@std@@YAXPAEPB_WI@Z 10004620 f i ComDictionary.obj
 0001:00003680       ??$_Debug_pointer@E@std@@YAXPBEPB_WI@Z 10004680 f i ComDictionary.obj
 0001:000036e0       ??$_Debug_pointer@UCSignat@@@std@@YAXPAUCSignat@@PB_WI@Z 100046e0 f i ComDictionary.obj
 0001:00003740       ??$_Debug_pointer@UTSignatItem@@@std@@YAXPAUTSignatItem@@PB_WI@Z 10004740 f i ComDictionary.obj
 0001:000037a0       ??$_Debug_pointer@UTSignatItem@@@std@@YAXPBUTSignatItem@@PB_WI@Z 100047a0 f i ComDictionary.obj
 0001:00003800       ??$_Debug_pointer@VCStructEntry@@@std@@YAXPBVCStructEntry@@PB_WI@Z 10004800 f i ComDictionary.obj
 0001:00003860       ??$_Debug_range2@PAE@std@@YAXPAE0PB_WIUrandom_access_iterator_tag@0@@Z 10004860 f i ComDictionary.obj
 0001:000038f0       ??$_Debug_range2@PAUCSignat@@@std@@YAXPAUCSignat@@0PB_WIUrandom_access_iterator_tag@0@@Z 100048f0 f i ComDictionary.obj
 0001:00003980       ??$_Debug_range2@PAUTSignatItem@@@std@@YAXPAUTSignatItem@@0PB_WIUrandom_access_iterator_tag@0@@Z 10004980 f i ComDictionary.obj
 0001:00003a10       ??$_Debug_range2@PBE@std@@YAXPBE0PB_WIUrandom_access_iterator_tag@0@@Z 10004a10 f i ComDictionary.obj
 0001:00003aa0       ??$_Debug_range2@PBUTSignatItem@@@std@@YAXPBUTSignatItem@@0PB_WIUrandom_access_iterator_tag@0@@Z 10004aa0 f i ComDictionary.obj
 0001:00003b30       ??$_Debug_range@PAE@std@@YAXPAE0PB_WI@Z 10004b30 f i ComDictionary.obj
 0001:00003ba0       ??$_Debug_range@PAUCSignat@@@std@@YAXPAUCSignat@@0PB_WI@Z 10004ba0 f i ComDictionary.obj
 0001:00003c10       ??$_Debug_range@PAUTSignatItem@@@std@@YAXPAUTSignatItem@@0PB_WI@Z 10004c10 f i ComDictionary.obj
 0001:00003c80       ??$_Debug_range@PBE@std@@YAXPBE0PB_WI@Z 10004c80 f i ComDictionary.obj
 0001:00003cf0       ??$_Debug_range@PBUTSignatItem@@@std@@YAXPBUTSignatItem@@0PB_WI@Z 10004cf0 f i ComDictionary.obj
 0001:00003d60       ??$_Destroy_range@U?$_Wrap_alloc@V?$allocator@E@std@@@std@@@std@@YAXPAE0AAU?$_Wrap_alloc@V?$allocator@E@std@@@0@@Z 10004d60 f i ComDictionary.obj
 0001:00003dd0       ??$_Destroy_range@U?$_Wrap_alloc@V?$allocator@E@std@@@std@@@std@@YAXPAE0AAU?$_Wrap_alloc@V?$allocator@E@std@@@0@U_Scalar_ptr_iterator_tag@0@@Z 10004dd0 f i ComDictionary.obj
 0001:00003e00       ??$_Destroy_range@U?$_Wrap_alloc@V?$allocator@UCSignat@@@std@@@std@@@std@@YAXPAUCSignat@@0AAU?$_Wrap_alloc@V?$allocator@UCSignat@@@std@@@0@@Z 10004e00 f i ComDictionary.obj
 0001:00003e70       ??$_Destroy_range@U?$_Wrap_alloc@V?$allocator@UCSignat@@@std@@@std@@@std@@YAXPAUCSignat@@0AAU?$_Wrap_alloc@V?$allocator@UCSignat@@@std@@@0@U_Nonscalar_ptr_iterator_tag@0@@Z 10004e70 f i ComDictionary.obj
 0001:00003ed0       ??$_Destroy_range@U?$_Wrap_alloc@V?$allocator@UCTextField@@@std@@@std@@@std@@YAXPAUCTextField@@0AAU?$_Wrap_alloc@V?$allocator@UCTextField@@@std@@@0@@Z 10004ed0 f i ComDictionary.obj
 0001:00003f40       ??$_Destroy_range@U?$_Wrap_alloc@V?$allocator@UCTextField@@@std@@@std@@@std@@YAXPAUCTextField@@0AAU?$_Wrap_alloc@V?$allocator@UCTextField@@@std@@@0@U_Nonscalar_ptr_iterator_tag@0@@Z 10004f40 f i ComDictionary.obj
 0001:00003fa0       ??$_Destroy_range@U?$_Wrap_alloc@V?$allocator@UTCortege10@@@std@@@std@@@std@@YAXPAUTCortege10@@0AAU?$_Wrap_alloc@V?$allocator@UTCortege10@@@std@@@0@@Z 10004fa0 f i ComDictionary.obj
 0001:00004010       ??$_Destroy_range@U?$_Wrap_alloc@V?$allocator@UTCortege10@@@std@@@std@@@std@@YAXPAUTCortege10@@0AAU?$_Wrap_alloc@V?$allocator@UTCortege10@@@std@@@0@U_Nonscalar_ptr_iterator_tag@0@@Z 10005010 f i ComDictionary.obj
 0001:00004070       ??$_Destroy_range@U?$_Wrap_alloc@V?$allocator@UTSignatItem@@@std@@@std@@@std@@YAXPAUTSignatItem@@0AAU?$_Wrap_alloc@V?$allocator@UTSignatItem@@@std@@@0@@Z 10005070 f i ComDictionary.obj
 0001:000040e0       ??$_Destroy_range@U?$_Wrap_alloc@V?$allocator@UTSignatItem@@@std@@@std@@@std@@YAXPAUTSignatItem@@0AAU?$_Wrap_alloc@V?$allocator@UTSignatItem@@@std@@@0@U_Nonscalar_ptr_iterator_tag@0@@Z 100050e0 f i ComDictionary.obj
 0001:00004140       ??$_Dist_type@V?$_Vector_const_iterator@V?$_Vector_val@U?$_Simple_types@VCStructEntry@@@std@@@std@@@std@@@std@@YAPAHV?$_Vector_const_iterator@V?$_Vector_val@U?$_Simple_types@VCStructEntry@@@std@@@std@@@0@@Z 10005140 f i ComDictionary.obj
 0001:00004190       ??$_Distance2@PBVCStructEntry@@H@std@@YAXPBVCStructEntry@@0AAHUrandom_access_iterator_tag@0@@Z 10005190 f i ComDictionary.obj
 0001:00004210       ??$_Distance@PBVCStructEntry@@H@std@@YAXPBVCStructEntry@@0AAH@Z 10005210 f i ComDictionary.obj
 0001:00004270       ??$_Iter_cat@PAE@std@@YA?AUrandom_access_iterator_tag@0@ABQAE@Z 10005270 f i ComDictionary.obj
 0001:000042d0       ??$_Iter_cat@PAUCSignat@@@std@@YA?AUrandom_access_iterator_tag@0@ABQAUCSignat@@@Z 100052d0 f i ComDictionary.obj
 0001:00004330       ??$_Iter_cat@PAUTSignatItem@@@std@@YA?AUrandom_access_iterator_tag@0@ABQAUTSignatItem@@@Z 10005330 f i ComDictionary.obj
 0001:00004390       ??$_Iter_cat@PBE@std@@YA?AUrandom_access_iterator_tag@0@ABQBE@Z 10005390 f i ComDictionary.obj
 0001:000043f0       ??$_Iter_cat@PBUTSignatItem@@@std@@YA?AUrandom_access_iterator_tag@0@ABQBUTSignatItem@@@Z 100053f0 f i ComDictionary.obj
 0001:00004450       ??$_Iter_cat@PBVCStructEntry@@@std@@YA?AUrandom_access_iterator_tag@0@ABQBVCStructEntry@@@Z 10005450 f i ComDictionary.obj
 0001:000044b0       ??$_Lower_bound@PBVCStructEntry@@V1@HU?$less@X@std@@@std@@YAPBVCStructEntry@@PBV1@0ABV1@U?$less@X@0@PAH@Z 100054b0 f i ComDictionary.obj
 0001:000045b0       ??$_Ptr_cat@EE@std@@YA?AU_Scalar_ptr_iterator_tag@0@PAE0@Z 100055b0 f i ComDictionary.obj
 0001:00004610       ??$_Ptr_cat@EE@std@@YA?AU_Scalar_ptr_iterator_tag@0@PBEPAE@Z 10005610 f i ComDictionary.obj
 0001:00004670       ??$_Ptr_cat@UCSignat@@U1@@std@@YA?AU_Nonscalar_ptr_iterator_tag@0@PAUCSignat@@0@Z 10005670 f i ComDictionary.obj
 0001:000046d0       ??$_Ptr_cat@UCTextField@@U1@@std@@YA?AU_Nonscalar_ptr_iterator_tag@0@PAUCTextField@@0@Z 100056d0 f i ComDictionary.obj
 0001:00004730       ??$_Ptr_cat@UTCortege10@@U1@@std@@YA?AU_Nonscalar_ptr_iterator_tag@0@PAUTCortege10@@0@Z 10005730 f i ComDictionary.obj
 0001:00004790       ??$_Ptr_cat@UTSignatItem@@U1@@std@@YA?AU_Nonscalar_ptr_iterator_tag@0@PAUTSignatItem@@0@Z 10005790 f i ComDictionary.obj
 0001:000047f0       ??$_Ptr_cat@UTSignatItem@@U1@@std@@YA?AU_Nonscalar_ptr_iterator_tag@0@PBUTSignatItem@@PAU2@@Z 100057f0 f i ComDictionary.obj
 0001:00004850       ??$_Rechecked@PAEPAE@std@@YAAAPAEAAPAEPAE@Z 10005850 f i ComDictionary.obj
 0001:00004880       ??$_Rechecked@PAUCSignat@@PAU1@@std@@YAAAPAUCSignat@@AAPAU1@PAU1@@Z 10005880 f i ComDictionary.obj
 0001:000048b0       ??$_Rechecked@PAUTSignatItem@@PAU1@@std@@YAAAPAUTSignatItem@@AAPAU1@PAU1@@Z 100058b0 f i ComDictionary.obj
 0001:000048e0       ??$_Rechecked@V?$_Vector_val@U?$_Simple_types@VCStructEntry@@@std@@@std@@@std@@YAAAV?$_Vector_const_iterator@V?$_Vector_val@U?$_Simple_types@VCStructEntry@@@std@@@std@@@0@AAV10@PBVCStructEntry@@@Z 100058e0 f i ComDictionary.obj
 0001:00004920       ??$_Ucopy@PAE@?$vector@EV?$allocator@E@std@@@std@@IAEPAEPAE00@Z 10005920 f i ComDictionary.obj
 0001:000049b0       ??$_Ucopy@PAUCSignat@@@?$vector@UCSignat@@V?$allocator@UCSignat@@@std@@@std@@IAEPAUCSignat@@PAU2@00@Z 100059b0 f i ComDictionary.obj
 0001:00004a40       ??$_Ucopy@PAUTSignatItem@@@?$vector@UTSignatItem@@V?$allocator@UTSignatItem@@@std@@@std@@IAEPAUTSignatItem@@PAU2@00@Z 10005a40 f i ComDictionary.obj
 0001:00004ad0       ??$_Ucopy@V?$_Vector_const_iterator@V?$_Vector_val@U?$_Simple_types@E@std@@@std@@@std@@@?$vector@EV?$allocator@E@std@@@std@@IAEPAEV?$_Vector_const_iterator@V?$_Vector_val@U?$_Simple_types@E@std@@@std@@@1@0PAE@Z 10005ad0 f i ComDictionary.obj
 0001:00004c00       ??$_Ucopy@V?$_Vector_const_iterator@V?$_Vector_val@U?$_Simple_types@UTSignatItem@@@std@@@std@@@std@@@?$vector@UTSignatItem@@V?$allocator@UTSignatItem@@@std@@@std@@IAEPAUTSignatItem@@V?$_Vector_const_iterator@V?$_Vector_val@U?$_Simple_types@UTSignatItem@@@std@@@std@@@1@0PAU2@@Z 10005c00 f i ComDictionary.obj
 0001:00004d30       ??$_Unchecked@PAE@std@@YAPAEPAE@Z 10005d30 f i ComDictionary.obj
 0001:00004d60       ??$_Unchecked@PAUCSignat@@@std@@YAPAUCSignat@@PAU1@@Z 10005d60 f i ComDictionary.obj
 0001:00004d90       ??$_Unchecked@PAUTSignatItem@@@std@@YAPAUTSignatItem@@PAU1@@Z 10005d90 f i ComDictionary.obj
 0001:00004dc0       ??$_Unchecked@V?$_Vector_val@U?$_Simple_types@E@std@@@std@@@std@@YAPBEV?$_Vector_const_iterator@V?$_Vector_val@U?$_Simple_types@E@std@@@std@@@0@@Z 10005dc0 f i ComDictionary.obj
 0001:00004e50       ??$_Unchecked@V?$_Vector_val@U?$_Simple_types@UTSignatItem@@@std@@@std@@@std@@YAPBUTSignatItem@@V?$_Vector_const_iterator@V?$_Vector_val@U?$_Simple_types@UTSignatItem@@@std@@@std@@@0@@Z 10005e50 f i ComDictionary.obj
 0001:00004ee0       ??$_Unchecked@V?$_Vector_val@U?$_Simple_types@VCStructEntry@@@std@@@std@@@std@@YAPBVCStructEntry@@V?$_Vector_const_iterator@V?$_Vector_val@U?$_Simple_types@VCStructEntry@@@std@@@std@@@0@@Z 10005ee0 f i ComDictionary.obj
 0001:00004f70       ??$_Uninit_copy@$$CBEE@std@@YAPAEPBE0PAEAAU?$_Wrap_alloc@V?$allocator@E@std@@@0@U_Scalar_ptr_iterator_tag@0@@Z 10005f70 f i ComDictionary.obj
 0001:00005000       ??$_Uninit_copy@EE@std@@YAPAEPAE00AAU?$_Wrap_alloc@V?$allocator@E@std@@@0@U_Scalar_ptr_iterator_tag@0@@Z 10006000 f i ComDictionary.obj
 0001:00005090       ??$_Uninit_copy@PAEPAEU?$_Wrap_alloc@V?$allocator@E@std@@@std@@@std@@YAPAEPAE00AAU?$_Wrap_alloc@V?$allocator@E@std@@@0@@Z 10006090 f i ComDictionary.obj
 0001:00005100       ??$_Uninit_copy@PAUCSignat@@PAU1@U?$_Wrap_alloc@V?$allocator@UCSignat@@@std@@@std@@@std@@YAPAUCSignat@@PAU1@00AAU?$_Wrap_alloc@V?$allocator@UCSignat@@@std@@@0@@Z 10006100 f i ComDictionary.obj
 0001:00005170       ??$_Uninit_copy@PAUCSignat@@PAU1@V?$allocator@UCSignat@@@std@@@std@@YAPAUCSignat@@PAU1@00AAU?$_Wrap_alloc@V?$allocator@UCSignat@@@std@@@0@U_Nonscalar_ptr_iterator_tag@0@@Z 10006170 f i ComDictionary.obj
 0001:00005290       ??$_Uninit_copy@PAUTSignatItem@@PAU1@U?$_Wrap_alloc@V?$allocator@UTSignatItem@@@std@@@std@@@std@@YAPAUTSignatItem@@PAU1@00AAU?$_Wrap_alloc@V?$allocator@UTSignatItem@@@std@@@0@@Z 10006290 f i ComDictionary.obj
 0001:00005300       ??$_Uninit_copy@PAUTSignatItem@@PAU1@V?$allocator@UTSignatItem@@@std@@@std@@YAPAUTSignatItem@@PAU1@00AAU?$_Wrap_alloc@V?$allocator@UTSignatItem@@@std@@@0@U_Nonscalar_ptr_iterator_tag@0@@Z 10006300 f i ComDictionary.obj
 0001:00005410       ??$_Uninit_copy@PBEPAEU?$_Wrap_alloc@V?$allocator@E@std@@@std@@@std@@YAPAEPBE0PAEAAU?$_Wrap_alloc@V?$allocator@E@std@@@0@@Z 10006410 f i ComDictionary.obj
 0001:00005480       ??$_Uninit_copy@PBUTSignatItem@@PAU1@U?$_Wrap_alloc@V?$allocator@UTSignatItem@@@std@@@std@@@std@@YAPAUTSignatItem@@PBU1@0PAU1@AAU?$_Wrap_alloc@V?$allocator@UTSignatItem@@@std@@@0@@Z 10006480 f i ComDictionary.obj
 0001:000054f0       ??$_Uninit_copy@PBUTSignatItem@@PAU1@V?$allocator@UTSignatItem@@@std@@@std@@YAPAUTSignatItem@@PBU1@0PAU1@AAU?$_Wrap_alloc@V?$allocator@UTSignatItem@@@std@@@0@U_Nonscalar_ptr_iterator_tag@0@@Z 100064f0 f i ComDictionary.obj
 0001:00005600       ??$_Uninitialized_copy@PAEPAEU?$_Wrap_alloc@V?$allocator@E@std@@@std@@@std@@YAPAEPAE00AAU?$_Wrap_alloc@V?$allocator@E@std@@@0@@Z 10006600 f i ComDictionary.obj
 0001:00005680       ??$_Uninitialized_copy@PAUCSignat@@PAU1@U?$_Wrap_alloc@V?$allocator@UCSignat@@@std@@@std@@@std@@YAPAUCSignat@@PAU1@00AAU?$_Wrap_alloc@V?$allocator@UCSignat@@@std@@@0@@Z 10006680 f i ComDictionary.obj
 0001:00005700       ??$_Uninitialized_copy@PAUTSignatItem@@PAU1@U?$_Wrap_alloc@V?$allocator@UTSignatItem@@@std@@@std@@@std@@YAPAUTSignatItem@@PAU1@00AAU?$_Wrap_alloc@V?$allocator@UTSignatItem@@@std@@@0@@Z 10006700 f i ComDictionary.obj
 0001:00005780       ??$_Uninitialized_copy@V?$_Vector_const_iterator@V?$_Vector_val@U?$_Simple_types@E@std@@@std@@@std@@PAEU?$_Wrap_alloc@V?$allocator@E@std@@@2@@std@@YAPAEV?$_Vector_const_iterator@V?$_Vector_val@U?$_Simple_types@E@std@@@std@@@0@0PAEAAU?$_Wrap_alloc@V?$allocator@E@std@@@0@@Z 10006780 f i ComDictionary.obj
 0001:000058a0       ??$_Uninitialized_copy@V?$_Vector_const_iterator@V?$_Vector_val@U?$_Simple_types@UTSignatItem@@@std@@@std@@@std@@PAUTSignatItem@@U?$_Wrap_alloc@V?$allocator@UTSignatItem@@@std@@@2@@std@@YAPAUTSignatItem@@V?$_Vector_const_iterator@V?$_Vector_val@U?$_Simple_types@UTSignatItem@@@std@@@std@@@0@0PAU1@AAU?$_Wrap_alloc@V?$allocator@UTSignatItem@@@std@@@0@@Z 100068a0 f i ComDictionary.obj
 0001:000059c0       ??$addressof@D@std@@YAPADAAD@Z 100069c0 f i ComDictionary.obj
 0001:000059f0       ??$advance@PBVCStructEntry@@H@std@@YAXAAPBVCStructEntry@@H@Z 100069f0 f i ComDictionary.obj
 0001:00005a50       ??$construct@PADAAPAD@?$_Wrap_alloc@V?$allocator@D@std@@@std@@QAEXPAPADAAPAD@Z 10006a50 f i ComDictionary.obj
 0001:00005ab0       ??$construct@PADAAPAD@?$allocator@D@std@@QAEXPAPADAAPAD@Z 10006ab0 f i ComDictionary.obj
 0001:00005b80       ??$construct@PADAAPAD@?$allocator_traits@V?$allocator@D@std@@@std@@SAXAAV?$allocator@D@1@PAPADAAPAD@Z 10006b80 f i ComDictionary.obj
 0001:00005bd0       ??$construct@UCSignat@@AAU1@@?$_Wrap_alloc@V?$allocator@UCSignat@@@std@@@std@@QAEXPAUCSignat@@AAU2@@Z 10006bd0 f i ComDictionary.obj
 0001:00005c30       ??$construct@UCSignat@@AAU1@@?$allocator@UCSignat@@@std@@QAEXPAUCSignat@@AAU2@@Z 10006c30 f i ComDictionary.obj
 0001:00005d00       ??$construct@UCSignat@@AAU1@@?$allocator_traits@V?$allocator@UCSignat@@@std@@@std@@SAXAAV?$allocator@UCSignat@@@1@PAUCSignat@@AAU3@@Z 10006d00 f i ComDictionary.obj
 0001:00005d50       ??$construct@UTSignatItem@@AAU1@@?$_Wrap_alloc@V?$allocator@UTSignatItem@@@std@@@std@@QAEXPAUTSignatItem@@AAU2@@Z 10006d50 f i ComDictionary.obj
 0001:00005db0       ??$construct@UTSignatItem@@AAU1@@?$allocator@UTSignatItem@@@std@@QAEXPAUTSignatItem@@AAU2@@Z 10006db0 f i ComDictionary.obj
 0001:00005e80       ??$construct@UTSignatItem@@AAU1@@?$allocator_traits@V?$allocator@UTSignatItem@@@std@@@std@@SAXAAV?$allocator@UTSignatItem@@@1@PAUTSignatItem@@AAU3@@Z 10006e80 f i ComDictionary.obj
 0001:00005ed0       ??$construct@UTSignatItem@@ABU1@@?$_Wrap_alloc@V?$allocator@UTSignatItem@@@std@@@std@@QAEXPAUTSignatItem@@ABU2@@Z 10006ed0 f i ComDictionary.obj
 0001:00005f30       ??$construct@UTSignatItem@@ABU1@@?$allocator_traits@V?$allocator@UTSignatItem@@@std@@@std@@SAXAAV?$allocator@UTSignatItem@@@1@PAUTSignatItem@@ABU3@@Z 10006f30 f i ComDictionary.obj
 0001:00005f80       ??$construct@U_Container_proxy@std@@U12@@?$_Wrap_alloc@V?$allocator@U_Container_proxy@std@@@std@@@std@@QAEXPAU_Container_proxy@1@$$QAU21@@Z 10006f80 f i ComDictionary.obj
 0001:00005fe0       ??$construct@U_Container_proxy@std@@U12@@?$allocator@U_Container_proxy@std@@@std@@QAEXPAU_Container_proxy@1@$$QAU21@@Z 10006fe0 f i ComDictionary.obj
 0001:000060b0       ??$construct@U_Container_proxy@std@@U12@@?$allocator_traits@V?$allocator@U_Container_proxy@std@@@std@@@std@@SAXAAV?$allocator@U_Container_proxy@std@@@1@PAU_Container_proxy@1@$$QAU31@@Z 100070b0 f i ComDictionary.obj
 0001:00006100       ??$destroy@PAD@?$_Wrap_alloc@V?$allocator@D@std@@@std@@QAEXPAPAD@Z 10007100 f i ComDictionary.obj
 0001:00006150       ??$destroy@PAD@?$allocator@D@std@@QAEXPAPAD@Z 10007150 f i ComDictionary.obj
 0001:00006180       ??$destroy@PAD@?$allocator_traits@V?$allocator@D@std@@@std@@SAXAAV?$allocator@D@1@PAPAD@Z 10007180 f i ComDictionary.obj
 0001:000061c0       ??$destroy@UCSignat@@@?$_Wrap_alloc@V?$allocator@UCSignat@@@std@@@std@@QAEXPAUCSignat@@@Z 100071c0 f i ComDictionary.obj
 0001:00006210       ??$destroy@UCSignat@@@?$allocator@UCSignat@@@std@@QAEXPAUCSignat@@@Z 10007210 f i ComDictionary.obj
 0001:00006260       ??$destroy@UCSignat@@@?$allocator_traits@V?$allocator@UCSignat@@@std@@@std@@SAXAAV?$allocator@UCSignat@@@1@PAUCSignat@@@Z 10007260 f i ComDictionary.obj
 0001:000062a0       ??$destroy@UCTextField@@@?$_Wrap_alloc@V?$allocator@UCTextField@@@std@@@std@@QAEXPAUCTextField@@@Z 100072a0 f i ComDictionary.obj
 0001:000062f0       ??$destroy@UCTextField@@@?$allocator@UCTextField@@@std@@QAEXPAUCTextField@@@Z 100072f0 f i ComDictionary.obj
 0001:00006320       ??$destroy@UCTextField@@@?$allocator_traits@V?$allocator@UCTextField@@@std@@@std@@SAXAAV?$allocator@UCTextField@@@1@PAUCTextField@@@Z 10007320 f i ComDictionary.obj
 0001:00006360       ??$destroy@UTCortege10@@@?$_Wrap_alloc@V?$allocator@UTCortege10@@@std@@@std@@QAEXPAUTCortege10@@@Z 10007360 f i ComDictionary.obj
 0001:000063b0       ??$destroy@UTCortege10@@@?$allocator@UTCortege10@@@std@@QAEXPAUTCortege10@@@Z 100073b0 f i ComDictionary.obj
 0001:000063e0       ??$destroy@UTCortege10@@@?$allocator_traits@V?$allocator@UTCortege10@@@std@@@std@@SAXAAV?$allocator@UTCortege10@@@1@PAUTCortege10@@@Z 100073e0 f i ComDictionary.obj
 0001:00006420       ??$destroy@UTSignatItem@@@?$_Wrap_alloc@V?$allocator@UTSignatItem@@@std@@@std@@QAEXPAUTSignatItem@@@Z 10007420 f i ComDictionary.obj
 0001:00006470       ??$destroy@UTSignatItem@@@?$allocator@UTSignatItem@@@std@@QAEXPAUTSignatItem@@@Z 10007470 f i ComDictionary.obj
 0001:000064a0       ??$destroy@UTSignatItem@@@?$allocator_traits@V?$allocator@UTSignatItem@@@std@@@std@@SAXAAV?$allocator@UTSignatItem@@@1@PAUTSignatItem@@@Z 100074a0 f i ComDictionary.obj
 0001:000064e0       ??$destroy@U_Container_proxy@std@@@?$_Wrap_alloc@V?$allocator@U_Container_proxy@std@@@std@@@std@@QAEXPAU_Container_proxy@1@@Z 100074e0 f i ComDictionary.obj
 0001:00006530       ??$destroy@U_Container_proxy@std@@@?$allocator@U_Container_proxy@std@@@std@@QAEXPAU_Container_proxy@1@@Z 10007530 f i ComDictionary.obj
 0001:00006560       ??$destroy@U_Container_proxy@std@@@?$allocator_traits@V?$allocator@U_Container_proxy@std@@@std@@@std@@SAXAAV?$allocator@U_Container_proxy@std@@@1@PAU_Container_proxy@1@@Z 10007560 f i ComDictionary.obj
 0001:000065a0       ??$forward@AAPAD@std@@YAAAPADAAPAD@Z 100075a0 f i ComDictionary.obj
 0001:000065d0       ??$forward@AAUCSignat@@@std@@YAAAUCSignat@@AAU1@@Z 100075d0 f i ComDictionary.obj
 0001:00006600       ??$forward@AAUTSignatItem@@@std@@YAAAUTSignatItem@@AAU1@@Z 10007600 f i ComDictionary.obj
 0001:00006630       ??$forward@ABUTSignatItem@@@std@@YAABUTSignatItem@@ABU1@@Z 10007630 f i ComDictionary.obj
 0001:00006660       ??$forward@U_Container_proxy@std@@@std@@YA$$QAU_Container_proxy@0@AAU10@@Z 10007660 f i ComDictionary.obj
 0001:00006690       ??$lower_bound@V?$_Vector_const_iterator@V?$_Vector_val@U?$_Simple_types@VCStructEntry@@@std@@@std@@@std@@VCStructEntry@@@std@@YA?AV?$_Vector_const_iterator@V?$_Vector_val@U?$_Simple_types@VCStructEntry@@@std@@@std@@@0@V10@0ABVCStructEntry@@@Z 10007690 f i ComDictionary.obj
 0001:000067a0       ??$lower_bound@V?$_Vector_const_iterator@V?$_Vector_val@U?$_Simple_types@VCStructEntry@@@std@@@std@@@std@@VCStructEntry@@U?$less@X@2@@std@@YA?AV?$_Vector_const_iterator@V?$_Vector_val@U?$_Simple_types@VCStructEntry@@@std@@@std@@@0@V10@0ABVCStructEntry@@U?$less@X@0@@Z 100077a0 f i ComDictionary.obj
 0001:00006900       ??0?$CAtlSafeAllocBufferManager@VCCRTAllocator@ATL@@@_ATL_SAFE_ALLOCA_IMPL@ATL@@QAE@XZ 10007900 f i ComDictionary.obj
 0001:00006940       ??0?$CComCritSecLock@VCComCriticalSection@ATL@@@ATL@@QAE@AAVCComCriticalSection@1@_N@Z 10007940 f i ComDictionary.obj
 0001:000069b0       ??0?$CComObject@VCComDomen@@@ATL@@QAE@PAX@Z 100079b0 f i ComDictionary.obj
 0001:00006a50       ??0?$CComObject@VCComField@@@ATL@@QAE@PAX@Z 10007a50 f i ComDictionary.obj
 0001:00006af0       ??0?$CComObject@VCComTempArticle@@@ATL@@QAE@PAX@Z 10007af0 f i ComDictionary.obj
 0001:00006b90       ??0?$CComObjectRootEx@VCComSingleThreadModel@ATL@@@ATL@@QAE@XZ 10007b90 f i ComDictionary.obj
 0001:00006be0       ??0?$CComPtr@UITypeInfo2@@@ATL@@QAE@XZ 10007be0 f i ComDictionary.obj
 0001:00006c30       ??0?$CComPtr@UITypeInfo@@@ATL@@QAE@ABV01@@Z 10007c30 f i ComDictionary.obj
 0001:00006c80       ??0?$CComPtr@UITypeInfo@@@ATL@@QAE@XZ 10007c80 f i ComDictionary.obj
 0001:00006cd0       ??0?$CComPtr@UITypeLib@@@ATL@@QAE@XZ 10007cd0 f i ComDictionary.obj
 0001:00006d20       ??0?$CComPtr@UIUnknown@@@ATL@@QAE@XZ 10007d20 f i ComDictionary.obj
 0001:00006d70       ??0?$CComPtrBase@UITypeInfo2@@@ATL@@IAE@XZ 10007d70 f i ComDictionary.obj
 0001:00006db0       ??0?$CComPtrBase@UITypeInfo@@@ATL@@IAE@PAUITypeInfo@@@Z 10007db0 f i ComDictionary.obj
 0001:00006e20       ??0?$CComPtrBase@UITypeInfo@@@ATL@@IAE@XZ 10007e20 f i ComDictionary.obj
 0001:00006e60       ??0?$CComPtrBase@UITypeLib@@@ATL@@IAE@XZ 10007e60 f i ComDictionary.obj
 0001:00006ea0       ??0?$CComPtrBase@UIUnknown@@@ATL@@IAE@XZ 10007ea0 f i ComDictionary.obj
 0001:00006ee0       ??0?$CTraceCategoryEx@$00$0A@@ATL@@QAE@PBD@Z 10007ee0 f i ComDictionary.obj
 0001:00006f30       ??0?$CTraceCategoryEx@$01$0A@@ATL@@QAE@PBD@Z 10007f30 f i ComDictionary.obj
 0001:00006f80       ??0?$CTraceCategoryEx@$07$0A@@ATL@@QAE@PBD@Z 10007f80 f i ComDictionary.obj
 0001:00006fd0       ??0?$CTraceCategoryEx@$0CAAA@$0A@@ATL@@QAE@PBD@Z 10007fd0 f i ComDictionary.obj
 0001:00007020       ??0?$IDispatchImpl@UIDomain@@$1?IID_IDomain@@3U_GUID@@B$1?LIBID_STRUCTDICTLib@@3U3@B$00$0A@VCComTypeInfoHolder@ATL@@@ATL@@QAE@XZ 10008020 f i ComDictionary.obj
 0001:00007070       ??0?$IDispatchImpl@UIField@@$1?IID_IField@@3U_GUID@@B$1?LIBID_STRUCTDICTLib@@3U3@B$00$0A@VCComTypeInfoHolder@ATL@@@ATL@@QAE@XZ 10008070 f i ComDictionary.obj
 0001:000070c0       ??0?$IDispatchImpl@UITempArticle@@$1?IID_ITempArticle@@3U_GUID@@B$1?LIBID_STRUCTDICTLib@@3U3@B$00$0A@VCComTypeInfoHolder@ATL@@@ATL@@QAE@XZ 100080c0 f i ComDictionary.obj
 0001:00007110       ??0?$_Iterator012@Urandom_access_iterator_tag@std@@EHPBEABEU_Iterator_base12@2@@std@@QAE@ABU01@@Z 10008110 f i ComDictionary.obj
 0001:00007160       ??0?$_Iterator012@Urandom_access_iterator_tag@std@@EHPBEABEU_Iterator_base12@2@@std@@QAE@XZ 10008160 f i ComDictionary.obj
 0001:000071b0       ??0?$_Iterator012@Urandom_access_iterator_tag@std@@UTSignatItem@@HPBU3@ABU3@U_Iterator_base12@2@@std@@QAE@ABU01@@Z 100081b0 f i ComDictionary.obj
 0001:00007200       ??0?$_Iterator012@Urandom_access_iterator_tag@std@@UTSignatItem@@HPBU3@ABU3@U_Iterator_base12@2@@std@@QAE@XZ 10008200 f i ComDictionary.obj
 0001:00007250       ??0?$_Iterator012@Urandom_access_iterator_tag@std@@VCStructEntry@@HPBV3@ABV3@U_Iterator_base12@2@@std@@QAE@ABU01@@Z 10008250 f i ComDictionary.obj
 0001:000072a0       ??0?$_Iterator012@Urandom_access_iterator_tag@std@@VCStructEntry@@HPBV3@ABV3@U_Iterator_base12@2@@std@@QAE@XZ 100082a0 f i ComDictionary.obj
 0001:000072f0       ??0?$_String_alloc@$0A@U?$_String_base_types@DV?$allocator@D@std@@@std@@@std@@QAE@ABV?$allocator@D@1@@Z 100082f0 f i ComDictionary.obj
 0001:00007380       ??0?$_String_val@U?$_Simple_types@D@std@@@std@@QAE@XZ 10008380 f i ComDictionary.obj
 0001:000073e0       ??0?$_Vector_alloc@$0A@U?$_Vec_base_types@EV?$allocator@E@std@@@std@@@std@@QAE@ABV?$allocator@E@1@@Z 100083e0 f i ComDictionary.obj
 0001:00007470       ??0?$_Vector_alloc@$0A@U?$_Vec_base_types@UTSignatItem@@V?$allocator@UTSignatItem@@@std@@@std@@@std@@QAE@ABV?$allocator@UTSignatItem@@@1@@Z 10008470 f i ComDictionary.obj
 0001:00007500       ??0?$_Vector_const_iterator@V?$_Vector_val@U?$_Simple_types@E@std@@@std@@@std@@QAE@ABV01@@Z 10008500 f i ComDictionary.obj
 0001:00007560       ??0?$_Vector_const_iterator@V?$_Vector_val@U?$_Simple_types@E@std@@@std@@@std@@QAE@PAEPBU_Container_base12@1@@Z 10008560 f i ComDictionary.obj
 0001:00007600       ??0?$_Vector_const_iterator@V?$_Vector_val@U?$_Simple_types@UTSignatItem@@@std@@@std@@@std@@QAE@ABV01@@Z 10008600 f i ComDictionary.obj
 0001:00007660       ??0?$_Vector_const_iterator@V?$_Vector_val@U?$_Simple_types@UTSignatItem@@@std@@@std@@@std@@QAE@PAUTSignatItem@@PBU_Container_base12@1@@Z 10008660 f i ComDictionary.obj
 0001:00007700       ??0?$_Vector_const_iterator@V?$_Vector_val@U?$_Simple_types@VCStructEntry@@@std@@@std@@@std@@QAE@ABV01@@Z 10008700 f i ComDictionary.obj
 0001:00007760       ??0?$_Vector_const_iterator@V?$_Vector_val@U?$_Simple_types@VCStructEntry@@@std@@@std@@@std@@QAE@PAVCStructEntry@@PBU_Container_base12@1@@Z 10008760 f i ComDictionary.obj
 0001:00007800       ??0?$_Vector_iterator@V?$_Vector_val@U?$_Simple_types@VCStructEntry@@@std@@@std@@@std@@QAE@ABV01@@Z 10008800 f i ComDictionary.obj
 0001:00007850       ??0?$_Vector_iterator@V?$_Vector_val@U?$_Simple_types@VCStructEntry@@@std@@@std@@@std@@QAE@PAVCStructEntry@@PBU_Container_base12@1@@Z 10008850 f i ComDictionary.obj
 0001:000078a0       ??0?$_Vector_val@U?$_Simple_types@E@std@@@std@@QAE@XZ 100088a0 f i ComDictionary.obj
 0001:00007910       ??0?$_Vector_val@U?$_Simple_types@UTSignatItem@@@std@@@std@@QAE@XZ 10008910 f i ComDictionary.obj
 0001:00007980       ??0?$_Wrap_alloc@V?$allocator@D@std@@@std@@QAE@ABV?$allocator@D@1@@Z 10008980 f i ComDictionary.obj
 0001:000079d0       ??0?$_Wrap_alloc@V?$allocator@D@std@@@std@@QAE@XZ 100089d0 f i ComDictionary.obj
 0001:00007a20       ??0?$_Wrap_alloc@V?$allocator@E@std@@@std@@QAE@ABV?$allocator@E@1@@Z 10008a20 f i ComDictionary.obj
 0001:00007a70       ??0?$_Wrap_alloc@V?$allocator@E@std@@@std@@QAE@XZ 10008a70 f i ComDictionary.obj
 0001:00007ac0       ??0?$_Wrap_alloc@V?$allocator@UCSignat@@@std@@@std@@QAE@XZ 10008ac0 f i ComDictionary.obj
 0001:00007b10       ??0?$_Wrap_alloc@V?$allocator@UCTextField@@@std@@@std@@QAE@XZ 10008b10 f i ComDictionary.obj
 0001:00007b60       ??0?$_Wrap_alloc@V?$allocator@UTCortege10@@@std@@@std@@QAE@XZ 10008b60 f i ComDictionary.obj
 0001:00007bb0       ??0?$_Wrap_alloc@V?$allocator@UTSignatItem@@@std@@@std@@QAE@ABV?$allocator@UTSignatItem@@@1@@Z 10008bb0 f i ComDictionary.obj
 0001:00007c00       ??0?$_Wrap_alloc@V?$allocator@UTSignatItem@@@std@@@std@@QAE@XZ 10008c00 f i ComDictionary.obj
 0001:00007c50       ??0?$_Wrap_alloc@V?$allocator@U_Container_proxy@std@@@std@@@std@@QAE@XZ 10008c50 f i ComDictionary.obj
 0001:00007ca0       ??0?$allocator@D@std@@QAE@ABV01@@Z 10008ca0 f i ComDictionary.obj
 0001:00007cd0       ??0?$allocator@D@std@@QAE@XZ 10008cd0 f i ComDictionary.obj
 0001:00007d00       ??0?$allocator@E@std@@QAE@ABV01@@Z 10008d00 f i ComDictionary.obj
 0001:00007d30       ??0?$allocator@E@std@@QAE@XZ 10008d30 f i ComDictionary.obj
 0001:00007d60       ??0?$allocator@UCSignat@@@std@@QAE@ABV01@@Z 10008d60 f i ComDictionary.obj
 0001:00007d90       ??0?$allocator@UCSignat@@@std@@QAE@XZ 10008d90 f i ComDictionary.obj
 0001:00007dc0       ??0?$allocator@UCTextField@@@std@@QAE@XZ 10008dc0 f i ComDictionary.obj
 0001:00007df0       ??0?$allocator@UTCortege10@@@std@@QAE@XZ 10008df0 f i ComDictionary.obj
 0001:00007e20       ??0?$allocator@UTSignatItem@@@std@@QAE@ABV01@@Z 10008e20 f i ComDictionary.obj
 0001:00007e50       ??0?$allocator@UTSignatItem@@@std@@QAE@XZ 10008e50 f i ComDictionary.obj
 0001:00007e80       ??0?$allocator@U_Container_proxy@std@@@std@@QAE@XZ 10008e80 f i ComDictionary.obj
 0001:00007eb0       ??0?$basic_string@DU?$char_traits@D@std@@V?$allocator@D@2@@std@@QAE@ABV01@@Z 10008eb0 f i ComDictionary.obj
 0001:00007f70       ??0?$basic_string@DU?$char_traits@D@std@@V?$allocator@D@2@@std@@QAE@PBD@Z 10008f70 f i ComDictionary.obj
 0001:00008010       ??0?$basic_string@DU?$char_traits@D@std@@V?$allocator@D@2@@std@@QAE@XZ 10009010 f i ComDictionary.obj
 0001:000080b0       ??0?$vector@EV?$allocator@E@std@@@std@@QAE@ABV01@@Z 100090b0 f i ComDictionary.obj
 0001:000081f0       ??0?$vector@UTSignatItem@@V?$allocator@UTSignatItem@@@std@@@std@@QAE@ABV01@@Z 100091f0 f i ComDictionary.obj
 0001:00008330       ??0CAtlException@ATL@@QAE@J@Z 10009330 f i ComDictionary.obj
 0001:00008370       ??0CComBSTR@ATL@@QAE@XZ    10009370 f i ComDictionary.obj
 0001:000083b0       ??0CComDomen@@QAE@XZ       100093b0 f i ComDictionary.obj
 0001:00008400       ??0CComField@@QAE@XZ       10009400 f i ComDictionary.obj
 0001:00008450       ??0CComObjectRootBase@ATL@@QAE@XZ 10009450 f i ComDictionary.obj
 0001:00008490       ??0CComTempArticle@@QAE@XZ 10009490 f i ComDictionary.obj
 0001:00008520       ??0CSignat@@QAE@ABU0@@Z    10009520 f i ComDictionary.obj
 0001:00008650       ??0CStructEntry@@QAE@PBDH@Z 10009650 f i ComDictionary.obj
 0001:00008710       ??0CTraceFileAndLineInfo@ATL@@QAE@PBDH@Z 10009710 f i ComDictionary.obj
 0001:00008750       ??0Data_t@_bstr_t@@QAE@PBD@Z 10009750 f i ComDictionary.obj
 0001:000087b0       ??0Data_t@_bstr_t@@QAE@PB_W@Z 100097b0 f i ComDictionary.obj
 0001:00008830       ??0IDispatch@@QAE@XZ       10009830 f i ComDictionary.obj
 0001:00008880       ??0IDomain@@QAE@XZ         10009880 f i ComDictionary.obj
 0001:000088d0       ??0IField@@QAE@XZ          100098d0 f i ComDictionary.obj
 0001:00008920       ??0ITempArticle@@QAE@XZ    10009920 f i ComDictionary.obj
 0001:00008970       ??0IUnknown@@QAE@XZ        10009970 f i ComDictionary.obj
 0001:000089a0       ??0ModuleLockHelper@ATL@@QAE@XZ 100099a0 f i ComDictionary.obj
 0001:00008a00       ??0_Container_proxy@std@@QAE@XZ 10009a00 f i ComDictionary.obj
 0001:00008a40       ??0_Generic_error_category@std@@QAE@XZ 10009a40 f i ComDictionary.obj
 0001:00008a90       ??0_Ignore@std@@QAE@XZ     10009a90 f i ComDictionary.obj
 0001:00008ac0       ??0_Iostream_error_category@std@@QAE@XZ 10009ac0 f i ComDictionary.obj
 0001:00008b10       ??0_Iterator_base12@std@@QAE@ABU01@@Z 10009b10 f i ComDictionary.obj
 0001:00008b70       ??0_Iterator_base12@std@@QAE@XZ 10009b70 f i ComDictionary.obj
 0001:00008bb0       ??0_System_error_category@std@@QAE@XZ 10009bb0 f i ComDictionary.obj
 0001:00008c00       ??0_bstr_t@@QAE@PBD@Z      10009c00 f i ComDictionary.obj
 0001:00008ce0       ??0_bstr_t@@QAE@PB_W@Z     10009ce0 f i ComDictionary.obj
 0001:00008dc0       ??0error_category@std@@QAE@XZ 10009dc0 f i ComDictionary.obj
 0001:00008e00       ??0error_condition@std@@QAE@HABVerror_category@1@@Z 10009e00 f i ComDictionary.obj
 0001:00008e40       ??0stringdispid@CComTypeInfoHolder@ATL@@QAE@XZ 10009e40 f i ComDictionary.obj
 0001:00008ea0       ??1?$CAtlSafeAllocBufferManager@VCCRTAllocator@ATL@@@_ATL_SAFE_ALLOCA_IMPL@ATL@@QAE@XZ 10009ea0 f i ComDictionary.obj
 0001:00008f10       ??1?$CComCritSecLock@VCComCriticalSection@ATL@@@ATL@@QAE@XZ 10009f10 f i ComDictionary.obj
 0001:00008f60       ??1?$CComObject@VCComDomen@@@ATL@@UAE@XZ 10009f60 f i ComDictionary.obj
 0001:00009010       ??1?$CComObject@VCComField@@@ATL@@UAE@XZ 1000a010 f i ComDictionary.obj
 0001:000090c0       ??1?$CComObject@VCComTempArticle@@@ATL@@UAE@XZ 1000a0c0 f i ComDictionary.obj
 0001:00009170       ??1?$CComObjectRootEx@VCComSingleThreadModel@ATL@@@ATL@@QAE@XZ 1000a170 f i ComDictionary.obj
 0001:000091b0       ??1?$CComPtr@UITypeInfo2@@@ATL@@QAE@XZ 1000a1b0 f i ComDictionary.obj
 0001:000091f0       ??1?$CComPtr@UITypeInfo@@@ATL@@QAE@XZ 1000a1f0 f i ComDictionary.obj
 0001:00009230       ??1?$CComPtr@UITypeLib@@@ATL@@QAE@XZ 1000a230 f i ComDictionary.obj
 0001:00009270       ??1?$CComPtr@UIUnknown@@@ATL@@QAE@XZ 1000a270 f i ComDictionary.obj
 0001:000092b0       ??1?$CComPtrBase@UITypeInfo2@@@ATL@@QAE@XZ 1000a2b0 f i ComDictionary.obj
 0001:00009310       ??1?$CComPtrBase@UITypeInfo@@@ATL@@QAE@XZ 1000a310 f i ComDictionary.obj
 0001:00009370       ??1?$CComPtrBase@UITypeLib@@@ATL@@QAE@XZ 1000a370 f i ComDictionary.obj
 0001:000093d0       ??1?$CComPtrBase@UIUnknown@@@ATL@@QAE@XZ 1000a3d0 f i ComDictionary.obj
 0001:00009430       ??1?$_Iterator012@Urandom_access_iterator_tag@std@@EHPBEABEU_Iterator_base12@2@@std@@QAE@XZ 1000a430 f i ComDictionary.obj
 0001:00009470       ??1?$_Iterator012@Urandom_access_iterator_tag@std@@UTSignatItem@@HPBU3@ABU3@U_Iterator_base12@2@@std@@QAE@XZ 1000a470 f i ComDictionary.obj
 0001:000094b0       ??1?$_Iterator012@Urandom_access_iterator_tag@std@@VCStructEntry@@HPBV3@ABV3@U_Iterator_base12@2@@std@@QAE@XZ 1000a4b0 f i ComDictionary.obj
 0001:000094f0       ??1?$_String_alloc@$0A@U?$_String_base_types@DV?$allocator@D@std@@@std@@@std@@QAE@XZ 1000a4f0 f i ComDictionary.obj
 0001:00009540       ??1?$_String_val@U?$_Simple_types@D@std@@@std@@QAE@XZ 1000a540 f i ComDictionary.obj
 0001:00009590       ??1?$_Vector_alloc@$0A@U?$_Vec_base_types@EV?$allocator@E@std@@@std@@@std@@QAE@XZ 1000a590 f i ComDictionary.obj
 0001:000095e0       ??1?$_Vector_alloc@$0A@U?$_Vec_base_types@UCTextField@@V?$allocator@UCTextField@@@std@@@std@@@std@@QAE@XZ 1000a5e0 f i ComDictionary.obj
 0001:00009630       ??1?$_Vector_alloc@$0A@U?$_Vec_base_types@UTCortege10@@V?$allocator@UTCortege10@@@std@@@std@@@std@@QAE@XZ 1000a630 f i ComDictionary.obj
 0001:00009680       ??1?$_Vector_alloc@$0A@U?$_Vec_base_types@UTSignatItem@@V?$allocator@UTSignatItem@@@std@@@std@@@std@@QAE@XZ 1000a680 f i ComDictionary.obj
 0001:000096d0       ??1?$_Vector_const_iterator@V?$_Vector_val@U?$_Simple_types@E@std@@@std@@@std@@QAE@XZ 1000a6d0 f i ComDictionary.obj
 0001:00009710       ??1?$_Vector_const_iterator@V?$_Vector_val@U?$_Simple_types@UTSignatItem@@@std@@@std@@@std@@QAE@XZ 1000a710 f i ComDictionary.obj
 0001:00009750       ??1?$_Vector_const_iterator@V?$_Vector_val@U?$_Simple_types@VCStructEntry@@@std@@@std@@@std@@QAE@XZ 1000a750 f i ComDictionary.obj
 0001:00009790       ??1?$_Vector_iterator@V?$_Vector_val@U?$_Simple_types@VCStructEntry@@@std@@@std@@@std@@QAE@XZ 1000a790 f i ComDictionary.obj
 0001:000097d0       ??1?$_Vector_val@U?$_Simple_types@E@std@@@std@@QAE@XZ 1000a7d0 f i ComDictionary.obj
 0001:00009820       ??1?$_Vector_val@U?$_Simple_types@UCTextField@@@std@@@std@@QAE@XZ 1000a820 f i ComDictionary.obj
 0001:00009870       ??1?$_Vector_val@U?$_Simple_types@UTCortege10@@@std@@@std@@QAE@XZ 1000a870 f i ComDictionary.obj
 0001:000098c0       ??1?$_Vector_val@U?$_Simple_types@UTSignatItem@@@std@@@std@@QAE@XZ 1000a8c0 f i ComDictionary.obj
 0001:00009910       ??1?$basic_string@DU?$char_traits@D@std@@V?$allocator@D@2@@std@@QAE@XZ 1000a910 f i ComDictionary.obj
 0001:00009960       ??1?$vector@EV?$allocator@E@std@@@std@@QAE@XZ 1000a960 f i ComDictionary.obj
 0001:000099b0       ??1?$vector@UCTextField@@V?$allocator@UCTextField@@@std@@@std@@QAE@XZ 1000a9b0 f i ComDictionary.obj
 0001:00009a00       ??1?$vector@UTCortege10@@V?$allocator@UTCortege10@@@std@@@std@@QAE@XZ 1000aa00 f i ComDictionary.obj
 0001:00009a50       ??1?$vector@UTSignatItem@@V?$allocator@UTSignatItem@@@std@@@std@@QAE@XZ 1000aa50 f i ComDictionary.obj
 0001:00009aa0       ??1CComBSTR@ATL@@QAE@XZ    1000aaa0 f i ComDictionary.obj
 0001:00009af0       ??1CComDomen@@QAE@XZ       1000aaf0 f i ComDictionary.obj
 0001:00009b40       ??1CComField@@QAE@XZ       1000ab40 f i ComDictionary.obj
 0001:00009b90       ??1CComObjectRootBase@ATL@@QAE@XZ 1000ab90 f i ComDictionary.obj
 0001:00009bc0       ??1CComTempArticle@@QAE@XZ 1000abc0 f i ComDictionary.obj
 0001:00009c10       ??1CSignat@@QAE@XZ         1000ac10 f i ComDictionary.obj
 0001:00009c70       ??1CTempArticle@@QAE@XZ    1000ac70 f i ComDictionary.obj
 0001:00009cd0       ??1Data_t@_bstr_t@@AAE@XZ  1000acd0 f i ComDictionary.obj
 0001:00009d10       ??1ModuleLockHelper@ATL@@QAE@XZ 1000ad10 f i ComDictionary.obj
 0001:00009d70       ??1_Generic_error_category@std@@UAE@XZ 1000ad70 f i ComDictionary.obj
 0001:00009db0       ??1_Iostream_error_category@std@@UAE@XZ 1000adb0 f i ComDictionary.obj
 0001:00009df0       ??1_Iterator_base12@std@@QAE@XZ 1000adf0 f i ComDictionary.obj
 0001:00009e90       ??1_System_error_category@std@@UAE@XZ 1000ae90 f i ComDictionary.obj
 0001:00009ed0       ??1_bstr_t@@QAE@XZ         1000aed0 f i ComDictionary.obj
 0001:00009f10       ??1error_category@std@@UAE@XZ 1000af10 f i ComDictionary.obj
 0001:00009f50       ??1stringdispid@CComTypeInfoHolder@ATL@@QAE@XZ 1000af50 f i ComDictionary.obj
 0001:00009f90       ??2@YAPAXIPAX@Z            1000af90 f i ComDictionary.obj
 0001:00009fc0       ??2Data_t@_bstr_t@@SAPAXI@Z 1000afc0 f i ComDictionary.obj
 0001:0000a000       ??3@YAXPAX0@Z              1000b000 f i ComDictionary.obj
 0001:0000a030       ??4?$vector@EV?$allocator@E@std@@@std@@QAEAAV01@ABV01@@Z 1000b030 f i ComDictionary.obj
 0001:0000a2b0       ??4?$vector@UCSignat@@V?$allocator@UCSignat@@@std@@@std@@QAEAAV01@ABV01@@Z 1000b2b0 f i ComDictionary.obj
 0001:0000a550       ??4?$vector@UTSignatItem@@V?$allocator@UTSignatItem@@@std@@@std@@QAEAAV01@ABV01@@Z 1000b550 f i ComDictionary.obj
 0001:0000a7e0       ??4CField@@QAEAAU0@ABU0@@Z 1000b7e0 f i ComDictionary.obj
 0001:0000a880       ??4CSignat@@QAEAAU0@ABU0@@Z 1000b880 f i ComDictionary.obj
 0001:0000a9e0       ??4_Iterator_base12@std@@QAEAAU01@ABU01@@Z 1000b9e0 f i ComDictionary.obj
 0001:0000aae0       ??8?$CComPtrBase@UIUnknown@@@ATL@@QBE_NPAUIUnknown@@@Z 1000bae0 f i ComDictionary.obj
 0001:0000ab40       ??8error_category@std@@QBE_NABV01@@Z 1000bb40 f i ComDictionary.obj
 0001:0000ab90       ??8error_condition@std@@QBE_NABV01@@Z 1000bb90 f i ComDictionary.obj
 0001:0000ac20       ??A?$vector@UCDomen@@V?$allocator@UCDomen@@@std@@@std@@QAEAAUCDomen@@I@Z 1000bc20 f i ComDictionary.obj
 0001:0000ad00       ??A?$vector@UCField@@V?$allocator@UCField@@@std@@@std@@QAEAAUCField@@I@Z 1000bd00 f i ComDictionary.obj
 0001:0000ade0       ??A?$vector@UTDomItem@@V?$allocator@UTDomItem@@@std@@@std@@QAEAAUTDomItem@@I@Z 1000bde0 f i ComDictionary.obj
 0001:0000aec0       ??A?$vector@VCStructEntry@@V?$allocator@VCStructEntry@@@std@@@std@@QAEAAVCStructEntry@@I@Z 1000bec0 f i ComDictionary.obj
 0001:0000afa0       ??B?$CComPtrBase@UITypeInfo2@@@ATL@@QBEPAUITypeInfo2@@XZ 1000bfa0 f i ComDictionary.obj
 0001:0000afd0       ??B?$CComPtrBase@UITypeInfo@@@ATL@@QBEPAUITypeInfo@@XZ 1000bfd0 f i ComDictionary.obj
 0001:0000b000       ??B?$CComPtrBase@UIUnknown@@@ATL@@QBEPAUIUnknown@@XZ 1000c000 f i ComDictionary.obj
 0001:0000b030       ??B?$CTraceCategoryEx@$00$0A@@ATL@@QAEIXZ 1000c030 f i ComDictionary.obj
 0001:0000b060       ??B?$CTraceCategoryEx@$01$0A@@ATL@@QAEIXZ 1000c060 f i ComDictionary.obj
 0001:0000b090       ??B?$CTraceCategoryEx@$0CAAA@$0A@@ATL@@QAEIXZ 1000c090 f i ComDictionary.obj
 0001:0000b0c0       ??BCComBSTR@ATL@@QBEPA_WXZ 1000c0c0 f i ComDictionary.obj
 0001:0000b0f0       ??B_bstr_t@@QBEPADXZ       1000c0f0 f i ComDictionary.obj
 0001:0000b160       ??B_bstr_t@@QBEPBDXZ       1000c160 f i ComDictionary.obj
 0001:0000b1d0       ??C?$CComPtrBase@UITypeInfo@@@ATL@@QBEPAV?$_NoAddRefReleaseOnCComPtr@UITypeInfo@@@1@XZ 1000c1d0 f i ComDictionary.obj
 0001:0000b250       ??C?$CComPtrBase@UITypeLib@@@ATL@@QBEPAV?$_NoAddRefReleaseOnCComPtr@UITypeLib@@@1@XZ 1000c250 f i ComDictionary.obj
 0001:0000b2d0       ??G?$_Vector_const_iterator@V?$_Vector_val@U?$_Simple_types@VCStructEntry@@@std@@@std@@@std@@QBEHABV01@@Z 1000c2d0 f i ComDictionary.obj
 0001:0000b330       ??H?$_Vector_iterator@V?$_Vector_val@U?$_Simple_types@VCStructEntry@@@std@@@std@@@std@@QBE?AV01@H@Z 1000c330 f i ComDictionary.obj
 0001:0000b420       ??I?$CComPtrBase@UITypeInfo2@@@ATL@@QAEPAPAUITypeInfo2@@XZ 1000c420 f i ComDictionary.obj
 0001:0000b4a0       ??I?$CComPtrBase@UITypeInfo@@@ATL@@QAEPAPAUITypeInfo@@XZ 1000c4a0 f i ComDictionary.obj
 0001:0000b520       ??I?$CComPtrBase@UITypeLib@@@ATL@@QAEPAPAUITypeLib@@XZ 1000c520 f i ComDictionary.obj
 0001:0000b5a0       ??I?$CComPtrBase@UIUnknown@@@ATL@@QAEPAPAUIUnknown@@XZ 1000c5a0 f i ComDictionary.obj
 0001:0000b620       ??ICComBSTR@ATL@@QAEPAPA_WXZ 1000c620 f i ComDictionary.obj
 0001:0000b650       ??MCStructEntry@@QBE_NABV0@@Z 1000c650 f i ComDictionary.obj
 0001:0000b6e0       ??RCTraceFileAndLineInfo@ATL@@QBAXHIPBDZZ 1000c6e0 f i ComDictionary.obj
 0001:0000b750       ??Y?$_Vector_const_iterator@V?$_Vector_val@U?$_Simple_types@VCStructEntry@@@std@@@std@@@std@@QAEAAV01@H@Z 1000c750 f i ComDictionary.obj
 0001:0000b860       ??Y?$_Vector_iterator@V?$_Vector_val@U?$_Simple_types@VCStructEntry@@@std@@@std@@@std@@QAEAAV01@H@Z 1000c860 f i ComDictionary.obj
 0001:0000b8b0       ??_Estringdispid@CComTypeInfoHolder@ATL@@QAEPAXI@Z 1000c8b0 f i ComDictionary.obj
 0001:0000b950       ??_E?$CComObject@VCComDomen@@@ATL@@UAEPAXI@Z 1000c950 f i ComDictionary.obj
 0001:0000b950       ??_G?$CComObject@VCComDomen@@@ATL@@UAEPAXI@Z 1000c950 f i ComDictionary.obj
 0001:0000b9b0       ??_G?$CComObject@VCComField@@@ATL@@UAEPAXI@Z 1000c9b0 f i ComDictionary.obj
 0001:0000b9b0       ??_E?$CComObject@VCComField@@@ATL@@UAEPAXI@Z 1000c9b0 f i ComDictionary.obj
 0001:0000ba10       ??_G?$CComObject@VCComTempArticle@@@ATL@@UAEPAXI@Z 1000ca10 f i ComDictionary.obj
 0001:0000ba10       ??_E?$CComObject@VCComTempArticle@@@ATL@@UAEPAXI@Z 1000ca10 f i ComDictionary.obj
 0001:0000ba70       ??_GCSignat@@QAEPAXI@Z     1000ca70 f i ComDictionary.obj
 0001:0000bad0       ??_GData_t@_bstr_t@@AAEPAXI@Z 1000cad0 f i ComDictionary.obj
 0001:0000bb30       ??_E_Generic_error_category@std@@UAEPAXI@Z 1000cb30 f i ComDictionary.obj
 0001:0000bb30       ??_G_Generic_error_category@std@@UAEPAXI@Z 1000cb30 f i ComDictionary.obj
 0001:0000bb90       ??_G_Iostream_error_category@std@@UAEPAXI@Z 1000cb90 f i ComDictionary.obj
 0001:0000bb90       ??_E_Iostream_error_category@std@@UAEPAXI@Z 1000cb90 f i ComDictionary.obj
 0001:0000bbf0       ??_G_System_error_category@std@@UAEPAXI@Z 1000cbf0 f i ComDictionary.obj
 0001:0000bbf0       ??_E_System_error_category@std@@UAEPAXI@Z 1000cbf0 f i ComDictionary.obj
 0001:0000bc50       ??_Eerror_category@std@@UAEPAXI@Z 1000cc50 f i ComDictionary.obj
 0001:0000bc50       ??_Gerror_category@std@@UAEPAXI@Z 1000cc50 f i ComDictionary.obj
 0001:0000bcb0       ?AddRef@?$CComObject@VCComDomen@@@ATL@@UAGKXZ 1000ccb0 f i ComDictionary.obj
 0001:0000bcf0       ?AddRef@?$CComObject@VCComField@@@ATL@@UAGKXZ 1000ccf0 f i ComDictionary.obj
 0001:0000bd30       ?AddRef@?$CComObject@VCComTempArticle@@@ATL@@UAGKXZ 1000cd30 f i ComDictionary.obj
 0001:0000bd70       ?AddTermFunc@CAtlModule@ATL@@QAEJP6GXK@ZK@Z 1000cd70 f i ComDictionary.obj
 0001:0000bde0       ?Allocate@?$CAtlSafeAllocBufferManager@VCCRTAllocator@ATL@@@_ATL_SAFE_ALLOCA_IMPL@ATL@@QAEPAXK@Z 1000cde0 f i ComDictionary.obj
 0001:0000be60       ?Allocate@CCRTAllocator@ATL@@SAPAXI@Z 1000ce60 f i ComDictionary.obj
 0001:0000beb0       ?AtlA2WHelper@@YGPA_WPA_WPBDHI@Z 1000ceb0 f i ComDictionary.obj
 0001:0000bfe0       ?AtlComQIPtrAssign@ATL@@YGPAUIUnknown@@PAPAU2@PAU2@ABU_GUID@@@Z 1000cfe0 f i ComDictionary.obj
 0001:0000c080       ?AtlInternalQueryInterface@ATL@@YGJPAXPBU_ATL_INTMAP_ENTRY@1@ABU_GUID@@PAPAX@Z 1000d080 f i ComDictionary.obj
 0001:0000c300       ?AtlModuleAddTermFunc@ATL@@YGJPAU_ATL_MODULE70@1@P6GXK@ZK@Z 1000d300 f i ComDictionary.obj
 0001:0000c490       ?AtlThrowImpl@ATL@@YGXJ@Z  1000d490 f i ComDictionary.obj
 0001:0000c530       ?Attach@CComBSTR@ATL@@QAEXPA_W@Z 1000d530 f i ComDictionary.obj
 0001:0000c590       ?BuildFormats@CComDictionary@@UAGJXZ 1000d590 f   ComDictionary.obj
 0001:0000c610       ?BuildSignat@CComDictionary@@UAGJPAUISignat@@PA_W1@Z 1000d610 f   ComDictionary.obj
 0001:0000c720       ?CheckArticleError@CComDictionary@@UAGJPA_WPAPA_WPAH@Z 1000d720 f   ComDictionary.obj
 0001:0000c870       ?Cleanup@CComTypeInfoHolder@ATL@@SGXK@Z 1000d870 f i ComDictionary.obj
 0001:0000c970       ?ClearUnit@CComDictionary@@UAGJG@Z 1000d970 f   ComDictionary.obj
 0001:0000c9c0       ?Copy@Data_t@_bstr_t@@QBEPA_WXZ 1000d9c0 f i ComDictionary.obj
 0001:0000ca50       ?Decrement@CComSingleThreadModel@ATL@@SGKPAJ@Z 1000da50 f i ComDictionary.obj
 0001:0000ca90       ?DelAllItemsInTheDomain@CComDictionary@@UAGJE@Z 1000da90 f   ComDictionary.obj
 0001:0000cb40       ?DelCorteges@CComDictionary@@UAGJJJ@Z 1000db40 f   ComDictionary.obj
 0001:0000cb90       ?DelDomItem@CComDictionary@@UAGJJ@Z 1000db90 f   ComDictionary.obj
 0001:0000cbe0       ?DelUnit@CComDictionary@@UAGJG@Z 1000dbe0 f   ComDictionary.obj
 0001:0000cc60       ?Detach@?$CComPtrBase@UITypeInfo@@@ATL@@QAEPAUITypeInfo@@XZ 1000dc60 f i ComDictionary.obj
 0001:0000cca0       ?Detach@CComBSTR@ATL@@QAEPA_WXZ 1000dca0 f i ComDictionary.obj
 0001:0000cce0       ?EnsureTI@CComTypeInfoHolder@ATL@@QAEJK@Z 1000dce0 f i ComDictionary.obj
 0001:0000cd50       ?FinalRelease@CComObjectRootBase@ATL@@QAEXXZ 1000dd50 f i ComDictionary.obj
 0001:0000cd80       ?Free@CCRTAllocator@ATL@@SAXPAX@Z 1000dd80 f i ComDictionary.obj
 0001:0000cdd0       ?GetCategoryName@CTrace@ATL@@CAPA_WI@Z 1000ddd0 f i ComDictionary.obj
 0001:0000ce40       ?GetCortegeBracketLeafId@CComDictionary@@UAGJJPAJ@Z 1000de40 f   ComDictionary.obj
 0001:0000cea0       ?GetCortegeFieldNo@CComDictionary@@UAGJJPAE@Z 1000dea0 f   ComDictionary.obj
 0001:0000cef0       ?GetCortegeItem@CComDictionary@@UAGJJEPAJ@Z 1000def0 f   ComDictionary.obj
 0001:0000cf50       ?GetCortegeLeafId@CComDictionary@@UAGJJPAE@Z 1000df50 f   ComDictionary.obj
 0001:0000cfa0       ?GetCortegeLevelId@CComDictionary@@UAGJJPAE@Z 1000dfa0 f   ComDictionary.obj
 0001:0000cff0       ?GetCortegeSignatNo@CComDictionary@@UAGJJPAE@Z 1000dff0 f   ComDictionary.obj
 0001:0000d040       ?GetCortegesSize@CComDictionary@@UAGJPAJ@Z 1000e040 f   ComDictionary.obj
 0001:0000d090       ?GetData@CAtlSafeAllocBufferNode@?$CAtlSafeAllocBufferManager@VCCRTAllocator@ATL@@@_ATL_SAFE_ALLOCA_IMPL@ATL@@QAEPAXXZ 1000e090 f i ComDictionary.obj
 0001:0000d0c0       ?GetDomItemDomNo@CComDictionary@@UAGJJPAE@Z 1000e0c0 f   ComDictionary.obj
 0001:0000d120       ?GetDomItemStr@CComDictionary@@UAGJJPAPA_W@Z 1000e120 f   ComDictionary.obj
 0001:0000d1e0       ?GetDomItemStr_Inproc@CComDictionary@@UAGJJPAJ@Z 1000e1e0 f   ComDictionary.obj
 0001:0000d250       ?GetDomItemsSize@CComDictionary@@UAGJPAJ@Z 1000e250 f   ComDictionary.obj
 0001:0000d2a0       ?GetDomItemsSize@TItemContainer@@QBEIXZ 1000e2a0 f i ComDictionary.obj
 0001:0000d2f0       ?GetDomNo@TDomItem@@QBEEXZ 1000e2f0 f i ComDictionary.obj
 0001:0000d320       ?GetDomainNoByDomStr@CComDictionary@@UAGJPA_WPAE@Z 1000e320 f   ComDictionary.obj
 0001:0000d3c0       ?GetDomainsSize@CComDictionary@@UAGJPAE@Z 1000e3c0 f   ComDictionary.obj
 0001:0000d410       ?GetFieldDomainNo@CComDictionary@@UAGJPAE@Z 1000e410 f   ComDictionary.obj
 0001:0000d450       ?GetFieldNoByFieldStr@CComDictionary@@UAGJPA_WPAE@Z 1000e450 f   ComDictionary.obj
 0001:0000d4f0       ?GetFieldsSize@CComDictionary@@UAGJPAE@Z 1000e4f0 f   ComDictionary.obj
 0001:0000d540       ?GetIDsOfNames@?$IDispatchImpl@UIDomain@@$1?IID_IDomain@@3U_GUID@@B$1?LIBID_STRUCTDICTLib@@3U3@B$00$0A@VCComTypeInfoHolder@ATL@@@ATL@@UAGJABU_GUID@@PAPA_WIKPAJ@Z 1000e540 f i ComDictionary.obj
 0001:0000d5a0       ?GetIDsOfNames@?$IDispatchImpl@UIField@@$1?IID_IField@@3U_GUID@@B$1?LIBID_STRUCTDICTLib@@3U3@B$00$0A@VCComTypeInfoHolder@ATL@@@ATL@@UAGJABU_GUID@@PAPA_WIKPAJ@Z 1000e5a0 f i ComDictionary.obj
 0001:0000d600       ?GetIDsOfNames@?$IDispatchImpl@UITempArticle@@$1?IID_ITempArticle@@3U_GUID@@B$1?LIBID_STRUCTDICTLib@@3U3@B$00$0A@VCComTypeInfoHolder@ATL@@@ATL@@UAGJABU_GUID@@PAPA_WIKPAJ@Z 1000e600 f i ComDictionary.obj
 0001:0000d660       ?GetIDsOfNames@CComTypeInfoHolder@ATL@@QAEJABU_GUID@@PAPA_WIKPAJ@Z 1000e660 f i ComDictionary.obj
 0001:0000d7c0       ?GetItem@?$TBasicCortege@$09@@QBEHI@Z 1000e7c0 f i ComDictionary.obj
 0001:0000d830       ?GetItemNoByItemStr@CComDictionary@@UAGJPA_WEPAJ@Z 1000e830 f   ComDictionary.obj
 0001:0000d8f0       ?GetLexPlusDomNo@CComDictionary@@UAGJPAE@Z 1000e8f0 f   ComDictionary.obj
 0001:0000d930       ?GetModuleInstance@CAtlBaseModule@ATL@@QAEPAUHINSTANCE__@@XZ 1000e930 f i ComDictionary.obj
 0001:0000d960       ?GetSelectedUnitNo@CComDictionary@@UAGJGPAG@Z 1000e960 f   ComDictionary.obj
 0001:0000d9b0       ?GetSelectedUnitsSize@CComDictionary@@UAGJPAJ@Z 1000e9b0 f   ComDictionary.obj
 0001:0000da00       ?GetString@Data_t@_bstr_t@@QBEPBDXZ 1000ea00 f i ComDictionary.obj
 0001:0000da60       ?GetTI@CComTypeInfoHolder@ATL@@QAEJK@Z 1000ea60 f i ComDictionary.obj
 0001:0000e5e0       ?GetTI@CComTypeInfoHolder@ATL@@QAEJKPAPAUITypeInfo@@@Z 1000f5e0 f i ComDictionary.obj
 0001:0000e6c0       ?GetTypeInfo@?$IDispatchImpl@UIDomain@@$1?IID_IDomain@@3U_GUID@@B$1?LIBID_STRUCTDICTLib@@3U3@B$00$0A@VCComTypeInfoHolder@ATL@@@ATL@@UAGJIKPAPAUITypeInfo@@@Z 1000f6c0 f i ComDictionary.obj
 0001:0000e710       ?GetTypeInfo@?$IDispatchImpl@UIField@@$1?IID_IField@@3U_GUID@@B$1?LIBID_STRUCTDICTLib@@3U3@B$00$0A@VCComTypeInfoHolder@ATL@@@ATL@@UAGJIKPAPAUITypeInfo@@@Z 1000f710 f i ComDictionary.obj
 0001:0000e760       ?GetTypeInfo@?$IDispatchImpl@UITempArticle@@$1?IID_ITempArticle@@3U_GUID@@B$1?LIBID_STRUCTDICTLib@@3U3@B$00$0A@VCComTypeInfoHolder@ATL@@@ATL@@UAGJIKPAPAUITypeInfo@@@Z 1000f760 f i ComDictionary.obj
 0001:0000e7b0       ?GetTypeInfo@CComTypeInfoHolder@ATL@@QAEJIKPAPAUITypeInfo@@@Z 1000f7b0 f i ComDictionary.obj
 0001:0000e810       ?GetTypeInfoCount@?$IDispatchImpl@UIDomain@@$1?IID_IDomain@@3U_GUID@@B$1?LIBID_STRUCTDICTLib@@3U3@B$00$0A@VCComTypeInfoHolder@ATL@@@ATL@@UAGJPAI@Z 1000f810 f i ComDictionary.obj
 0001:0000e850       ?GetTypeInfoCount@?$IDispatchImpl@UIField@@$1?IID_IField@@3U_GUID@@B$1?LIBID_STRUCTDICTLib@@3U3@B$00$0A@VCComTypeInfoHolder@ATL@@@ATL@@UAGJPAI@Z 1000f850 f i ComDictionary.obj
 0001:0000e890       ?GetTypeInfoCount@?$IDispatchImpl@UITempArticle@@$1?IID_ITempArticle@@3U_GUID@@B$1?LIBID_STRUCTDICTLib@@3U3@B$00$0A@VCComTypeInfoHolder@ATL@@@ATL@@UAGJPAI@Z 1000f890 f i ComDictionary.obj
 0001:0000e8d0       ?GetUnitAuthor@CComDictionary@@UAGJGPAPA_W@Z 1000f8d0 f   ComDictionary.obj
 0001:0000e980       ?GetUnitCommentStr@CComDictionary@@UAGJGPAPA_W@Z 1000f980 f   ComDictionary.obj
 0001:0000ea40       ?GetUnitEndPos@CComDictionary@@UAGJGPAJ@Z 1000fa40 f   ComDictionary.obj
 0001:0000eaa0       ?GetUnitMeanNum@CComDictionary@@UAGJGPAE@Z 1000faa0 f   ComDictionary.obj
 0001:0000eb00       ?GetUnitModifTimeStr@CComDictionary@@UAGJGPAPA_W@Z 1000fb00 f   ComDictionary.obj
 0001:0000ebd0       ?GetUnitSelected@CComDictionary@@UAGJGPAH@Z 1000fbd0 f   ComDictionary.obj
 0001:0000ec30       ?GetUnitStartPos@CComDictionary@@UAGJGPAJ@Z 1000fc30 f   ComDictionary.obj
 0001:0000ec90       ?GetUnitStr@CComDictionary@@UAGJGPAPA_W@Z 1000fc90 f   ComDictionary.obj
 0001:0000ed40       ?GetUnitTextHeader@CComDictionary@@UAGJGPAPA_W@Z 1000fd40 f   ComDictionary.obj
 0001:0000ee10       ?GetUnitsSize@CComDictionary@@UAGJPAG@Z 1000fe10 f   ComDictionary.obj
 0001:0000ee60       ?GetWString@Data_t@_bstr_t@@QAEAAPA_WXZ 1000fe60 f i ComDictionary.obj
 0001:0000ee90       ?GetWildCardDomItemNo@CComDictionary@@UAGJPAJ@Z 1000fe90 f   ComDictionary.obj
 0001:0000eed0       ?HasEmptyArticle@CStructEntry@@QBE_NXZ 1000fed0 f i ComDictionary.obj
 0001:0000ef30       ?ImportFromText@CComDictionary@@UAGJPA_WHHHPAPA_W@Z 1000ff30 f   ComDictionary.obj
 0001:0000f070       ?IncludeArticle@CComDictionary@@UAGJGPA_WPAH@Z 10010070 f   ComDictionary.obj
 0001:0000f270       ?Increment@CComSingleThreadModel@ATL@@SGKPAJ@Z 10010270 f i ComDictionary.obj
 0001:0000f2b0       ?InitRusConsts@CComDictionary@@UAGJXZ 100102b0 f   ComDictionary.obj
 0001:0000f300       ?InlineIsEqualUnknown@ATL@@YGHABU_GUID@@@Z 10010300 f i ComDictionary.obj
 0001:0000f390       ?InsertDomItem@CComDictionary@@UAGJPA_WEPAH@Z 10010390 f   ComDictionary.obj
 0001:0000f480       ?InsertUnit@CComDictionary@@UAGJPA_WEPAJ@Z 10010480 f   ComDictionary.obj
 0001:0000f4f0       ?InternalAddRef@?$CComObjectRootEx@VCComSingleThreadModel@ATL@@@ATL@@QAEKXZ 100104f0 f i ComDictionary.obj
 0001:0000f570       ?InternalQueryInterface@CComObjectRootBase@ATL@@SGJPAXPBU_ATL_INTMAP_ENTRY@2@ABU_GUID@@PAPAX@Z 10010570 f i ComDictionary.obj
 0001:0000f670       ?InternalRelease@?$CComObjectRootEx@VCComSingleThreadModel@ATL@@@ATL@@QAEKXZ 10010670 f i ComDictionary.obj
 0001:0000f700       ?Invoke@?$IDispatchImpl@UIDomain@@$1?IID_IDomain@@3U_GUID@@B$1?LIBID_STRUCTDICTLib@@3U3@B$00$0A@VCComTypeInfoHolder@ATL@@@ATL@@UAGJJABU_GUID@@KGPAUtagDISPPARAMS@@PAUtagVARIANT@@PAUtagEXCEPINFO@@PAI@Z 10010700 f i ComDictionary.obj
 0001:0000f770       ?Invoke@?$IDispatchImpl@UIField@@$1?IID_IField@@3U_GUID@@B$1?LIBID_STRUCTDICTLib@@3U3@B$00$0A@VCComTypeInfoHolder@ATL@@@ATL@@UAGJJABU_GUID@@KGPAUtagDISPPARAMS@@PAUtagVARIANT@@PAUtagEXCEPINFO@@PAI@Z 10010770 f i ComDictionary.obj
 0001:0000f7e0       ?Invoke@?$IDispatchImpl@UITempArticle@@$1?IID_ITempArticle@@3U_GUID@@B$1?LIBID_STRUCTDICTLib@@3U3@B$00$0A@VCComTypeInfoHolder@ATL@@@ATL@@UAGJJABU_GUID@@KGPAUtagDISPPARAMS@@PAUtagVARIANT@@PAUtagEXCEPINFO@@PAI@Z 100107e0 f i ComDictionary.obj
 0001:0000f850       ?Invoke@CComTypeInfoHolder@ATL@@QAEJPAUIDispatch@@JABU_GUID@@KGPAUtagDISPPARAMS@@PAUtagVARIANT@@PAUtagEXCEPINFO@@PAI@Z 10010850 f i ComDictionary.obj
 0001:0000f8f0       ?IsEmptyArticle@CComDictionary@@UAGJGPAH@Z 100108f0 f   ComDictionary.obj
 0001:0000f970       ?IsEqualObject@?$CComPtrBase@UITypeInfo@@@ATL@@QAE_NPAUIUnknown@@@Z 10010970 f i ComDictionary.obj
 0001:0000faa0       ?LoadNameCache@CComTypeInfoHolder@ATL@@QAEJPAUITypeInfo@@@Z 10010aa0 f i ComDictionary.obj
 0001:0000fdc0       ?LoadUnitComments@CComDictionary@@UAGJXZ 10010dc0 f   ComDictionary.obj
 0001:0000fe50       ?LoadWithoutComments@CComDictionary@@UAGJPA_W@Z 10010e50 f   ComDictionary.obj
 0001:0000ff20       ?LocateUnit@CComDictionary@@UAGJPA_WEPAG@Z 10010f20 f   ComDictionary.obj
 0001:0000ffc0       ?LocateUnit_Inproc@CComDictionary@@UAGJPAEEPAG@Z 10010fc0 f   ComDictionary.obj
 0001:00010020       ?Lock@?$CComCritSecLock@VCComCriticalSection@ATL@@@ATL@@QAEJXZ 10011020 f i ComDictionary.obj
 0001:00010100       ?Lock@CComCriticalSection@ATL@@QAEJXZ 10011100 f i ComDictionary.obj
 0001:00010150       ?QueryInterface@?$CComObject@VCComDomen@@@ATL@@UAGJABU_GUID@@PAPAX@Z 10011150 f i ComDictionary.obj
 0001:000101a0       ?QueryInterface@?$CComObject@VCComField@@@ATL@@UAGJABU_GUID@@PAPAX@Z 100111a0 f i ComDictionary.obj
 0001:000101f0       ?QueryInterface@?$CComObject@VCComTempArticle@@@ATL@@UAGJABU_GUID@@PAPAX@Z 100111f0 f i ComDictionary.obj
 0001:00010240       ?RegisterCategory@CTrace@ATL@@SAXPBDI@Z 10011240 f i ComDictionary.obj
 0001:00010390       ?Release@?$CComObject@VCComDomen@@@ATL@@UAGKXZ 10011390 f i ComDictionary.obj
 0001:00010470       ?Release@?$CComObject@VCComField@@@ATL@@UAGKXZ 10011470 f i ComDictionary.obj
 0001:00010550       ?Release@?$CComObject@VCComTempArticle@@@ATL@@UAGKXZ 10011550 f i ComDictionary.obj
 0001:00010630       ?Release@Data_t@_bstr_t@@QAEKXZ 10011630 f i ComDictionary.obj
 0001:000106c0       ?Save@CComDictionary@@UAGJXZ 100116c0 f   ComDictionary.obj
 0001:00010710       ?SetUnitAuthor@CComDictionary@@UAGJGPA_W@Z 10011710 f   ComDictionary.obj
 0001:00010780       ?SetUnitCommentStr@CComDictionary@@UAGJGPA_W@Z 10011780 f   ComDictionary.obj
 0001:000107f0       ?SetUnitCurrentTime@CComDictionary@@UAGJG@Z 100117f0 f   ComDictionary.obj
 0001:000108b0       ?SetUnitEndPos@CComDictionary@@UAGJGJ@Z 100118b0 f   ComDictionary.obj
 0001:00010900       ?SetUnitModifTimeStr@CComDictionary@@UAGJGPA_W@Z 10011900 f   ComDictionary.obj
 0001:00010970       ?SetUnitSelected@CComDictionary@@UAGJGH@Z 10011970 f   ComDictionary.obj
 0001:000109e0       ?SetUnitStartPos@CComDictionary@@UAGJGJ@Z 100119e0 f   ComDictionary.obj
 0001:00010a30       ?SetUnitStr@CComDictionary@@UAGJGPA_W@Z 10011a30 f   ComDictionary.obj
 0001:00010aa0       ?TraceV@CTrace@ATL@@CAXPBDHIIPB_W@Z 10011aa0 f i ComDictionary.obj
 0001:00010cd0       ?TraceV@CTrace@ATL@@SAXPBDHII0PAD@Z 10011cd0 f i ComDictionary.obj
 0001:00010e20       ?UnitsLowerBound@CComDictionary@@UAGJPA_WPAG@Z 10011e20 f   ComDictionary.obj
 0001:00010ec0       ?UnitsLowerBound@TRoss@@QBEGPBD@Z 10011ec0 f i ComDictionary.obj
 0001:00011030       ?Unlock@?$CComCritSecLock@VCComCriticalSection@ATL@@@ATL@@QAEXXZ 10012030 f i ComDictionary.obj
 0001:000110c0       ?Unlock@CComCriticalSection@ATL@@QAEJXZ 100120c0 f i ComDictionary.obj
 0001:00011110       ?UpdateConstDomains@CComDictionary@@UAGJXZ 10012110 f   ComDictionary.obj
 0001:00011160       ?_Adopt@_Iterator_base12@std@@QAEXPBU_Container_base12@2@@Z 10012160 f i ComDictionary.obj
 0001:000112b0       ?_Alloc_proxy@?$_String_alloc@$0A@U?$_String_base_types@DV?$allocator@D@std@@@std@@@std@@QAEXXZ 100122b0 f i ComDictionary.obj
 0001:00011360       ?_Alloc_proxy@?$_Vector_alloc@$0A@U?$_Vec_base_types@EV?$allocator@E@std@@@std@@@std@@QAEXXZ 10012360 f i ComDictionary.obj
 0001:00011410       ?_Alloc_proxy@?$_Vector_alloc@$0A@U?$_Vec_base_types@UTSignatItem@@V?$allocator@UTSignatItem@@@std@@@std@@@std@@QAEXXZ 10012410 f i ComDictionary.obj
 0001:000114c0       ?_AtlGetConversionACP@ATL@@YGIXZ 100124c0 f i ComDictionary.obj
 0001:000114f0       ?_AtlVerifyStackAvailable@_ATL_SAFE_ALLOCA_IMPL@ATL@@YA_NK@Z 100124f0 f i ComDictionary.obj
 0001:000116e0       ?_Buy@?$vector@EV?$allocator@E@std@@@std@@IAE_NI@Z 100126e0 f i ComDictionary.obj
 0001:000117a0       ?_Buy@?$vector@UCSignat@@V?$allocator@UCSignat@@@std@@@std@@IAE_NI@Z 100127a0 f i ComDictionary.obj
 0001:00011860       ?_Buy@?$vector@UTSignatItem@@V?$allocator@UTSignatItem@@@std@@@std@@IAE_NI@Z 10012860 f i ComDictionary.obj
 0001:00011920       ?_Change_alloc@?$_Vector_alloc@$0A@U?$_Vec_base_types@EV?$allocator@E@std@@@std@@@std@@QAEXABU?$_Wrap_alloc@V?$allocator@E@std@@@2@@Z 10012920 f i ComDictionary.obj
 0001:00011950       ?_Change_alloc@?$_Vector_alloc@$0A@U?$_Vec_base_types@UCSignat@@V?$allocator@UCSignat@@@std@@@std@@@std@@QAEXABU?$_Wrap_alloc@V?$allocator@UCSignat@@@std@@@2@@Z 10012950 f i ComDictionary.obj
 0001:00011980       ?_Change_alloc@?$_Vector_alloc@$0A@U?$_Vec_base_types@UTSignatItem@@V?$allocator@UTSignatItem@@@std@@@std@@@std@@QAEXABU?$_Wrap_alloc@V?$allocator@UTSignatItem@@@std@@@2@@Z 10012980 f i ComDictionary.obj
 0001:000119b0       ?_Compat@?$_Vector_const_iterator@V?$_Vector_val@U?$_Simple_types@VCStructEntry@@@std@@@std@@@std@@QBEXABV12@@Z 100129b0 f i ComDictionary.obj
 0001:00011aa0       ?_Copy@?$basic_string@DU?$char_traits@D@std@@V?$allocator@D@2@@std@@QAEXII@Z 10012aa0 f i ComDictionary.obj
 0001:00011cd0       ?_Destroy@?$vector@EV?$allocator@E@std@@@std@@IAEXPAE0@Z 10012cd0 f i ComDictionary.obj
 0001:00011d60       ?_Destroy@?$vector@UCSignat@@V?$allocator@UCSignat@@@std@@@std@@IAEXPAUCSignat@@0@Z 10012d60 f i ComDictionary.obj
 0001:00011df0       ?_Destroy@?$vector@UCTextField@@V?$allocator@UCTextField@@@std@@@std@@IAEXPAUCTextField@@0@Z 10012df0 f i ComDictionary.obj
 0001:00011e80       ?_Destroy@?$vector@UTCortege10@@V?$allocator@UTCortege10@@@std@@@std@@IAEXPAUTCortege10@@0@Z 10012e80 f i ComDictionary.obj
 0001:00011f10       ?_Destroy@?$vector@UTSignatItem@@V?$allocator@UTSignatItem@@@std@@@std@@IAEXPAUTSignatItem@@0@Z 10012f10 f i ComDictionary.obj
 0001:00011fa0       ?_Eos@?$basic_string@DU?$char_traits@D@std@@V?$allocator@D@2@@std@@QAEXI@Z 10012fa0 f i ComDictionary.obj
 0001:00012010       ?_Free@Data_t@_bstr_t@@AAEXXZ 10013010 f i ComDictionary.obj
 0001:000120a0       ?_Free@_bstr_t@@AAEXXZ     100130a0 f i ComDictionary.obj
 0001:00012100       ?_Free_proxy@?$_String_alloc@$0A@U?$_String_base_types@DV?$allocator@D@std@@@std@@@std@@QAEXXZ 10013100 f i ComDictionary.obj
 0001:000121b0       ?_Free_proxy@?$_Vector_alloc@$0A@U?$_Vec_base_types@EV?$allocator@E@std@@@std@@@std@@QAEXXZ 100131b0 f i ComDictionary.obj
 0001:00012260       ?_Free_proxy@?$_Vector_alloc@$0A@U?$_Vec_base_types@UCTextField@@V?$allocator@UCTextField@@@std@@@std@@@std@@QAEXXZ 10013260 f i ComDictionary.obj
 0001:00012310       ?_Free_proxy@?$_Vector_alloc@$0A@U?$_Vec_base_types@UTCortege10@@V?$allocator@UTCortege10@@@std@@@std@@@std@@QAEXXZ 10013310 f i ComDictionary.obj
 0001:000123c0       ?_Free_proxy@?$_Vector_alloc@$0A@U?$_Vec_base_types@UTSignatItem@@V?$allocator@UTSignatItem@@@std@@@std@@@std@@QAEXXZ 100133c0 f i ComDictionary.obj
 0001:00012470       ?_GetEntries@CComDomen@@SGPBU_ATL_INTMAP_ENTRY@ATL@@XZ 10013470 f i ComDictionary.obj
 0001:000124b0       ?_GetEntries@CComField@@SGPBU_ATL_INTMAP_ENTRY@ATL@@XZ 100134b0 f i ComDictionary.obj
 0001:000124f0       ?_GetEntries@CComTempArticle@@SGPBU_ATL_INTMAP_ENTRY@ATL@@XZ 100134f0 f i ComDictionary.obj
 0001:00012530       ?_Getal@?$_String_alloc@$0A@U?$_String_base_types@DV?$allocator@D@std@@@std@@@std@@QBE?AU?$_Wrap_alloc@V?$allocator@D@std@@@2@XZ 10013530 f i ComDictionary.obj
 0001:00012580       ?_Getal@?$_Vector_alloc@$0A@U?$_Vec_base_types@EV?$allocator@E@std@@@std@@@std@@QBE?AU?$_Wrap_alloc@V?$allocator@E@std@@@2@XZ 10013580 f i ComDictionary.obj
 0001:000125d0       ?_Getal@?$_Vector_alloc@$0A@U?$_Vec_base_types@UCSignat@@V?$allocator@UCSignat@@@std@@@std@@@std@@QBE?AU?$_Wrap_alloc@V?$allocator@UCSignat@@@std@@@2@XZ 100135d0 f i ComDictionary.obj
 0001:00012620       ?_Getal@?$_Vector_alloc@$0A@U?$_Vec_base_types@UCTextField@@V?$allocator@UCTextField@@@std@@@std@@@std@@QBE?AU?$_Wrap_alloc@V?$allocator@UCTextField@@@std@@@2@XZ 10013620 f i ComDictionary.obj
 0001:00012670       ?_Getal@?$_Vector_alloc@$0A@U?$_Vec_base_types@UTCortege10@@V?$allocator@UTCortege10@@@std@@@std@@@std@@QBE?AU?$_Wrap_alloc@V?$allocator@UTCortege10@@@std@@@2@XZ 10013670 f i ComDictionary.obj
 0001:000126c0       ?_Getal@?$_Vector_alloc@$0A@U?$_Vec_base_types@UTSignatItem@@V?$allocator@UTSignatItem@@@std@@@std@@@std@@QBE?AU?$_Wrap_alloc@V?$allocator@UTSignatItem@@@std@@@2@XZ 100136c0 f i ComDictionary.obj
 0001:00012710       ?_Getcont@_Iterator_base12@std@@QBEPBU_Container_base12@2@XZ 10013710 f i ComDictionary.obj
 0001:00012770       ?_Grow@?$basic_string@DU?$char_traits@D@std@@V?$allocator@D@2@@std@@QAE_NI_N@Z 10013770 f i ComDictionary.obj
 0001:00012860       ?_Inside@?$basic_string@DU?$char_traits@D@std@@V?$allocator@D@2@@std@@QAE_NPBD@Z 10013860 f i ComDictionary.obj
 0001:000128d0       ?_InternalQueryInterface@CComDomen@@QAEJABU_GUID@@PAPAX@Z 100138d0 f i ComDictionary.obj
 0001:00012920       ?_InternalQueryInterface@CComField@@QAEJABU_GUID@@PAPAX@Z 10013920 f i ComDictionary.obj
 0001:00012970       ?_InternalQueryInterface@CComTempArticle@@QAEJABU_GUID@@PAPAX@Z 10013970 f i ComDictionary.obj
 0001:000129c0       ?_Myptr@?$_String_val@U?$_Simple_types@D@std@@@std@@QAEPADXZ 100139c0 f i ComDictionary.obj
 0001:00012a30       ?_Myptr@?$_String_val@U?$_Simple_types@D@std@@@std@@QBEPBDXZ 10013a30 f i ComDictionary.obj
 0001:00012aa0       ?_Orphan_me@_Iterator_base12@std@@QAEXXZ 10013aa0 f i ComDictionary.obj
 0001:00012b50       ?_Rechecked@?$_Vector_const_iterator@V?$_Vector_val@U?$_Simple_types@VCStructEntry@@@std@@@std@@@std@@QAEAAV12@PBVCStructEntry@@@Z 10013b50 f i ComDictionary.obj
 0001:00012b90       ?_Tidy@?$basic_string@DU?$char_traits@D@std@@V?$allocator@D@2@@std@@QAEX_NI@Z 10013b90 f i ComDictionary.obj
 0001:00012c70       ?_Tidy@?$vector@EV?$allocator@E@std@@@std@@IAEXXZ 10013c70 f i ComDictionary.obj
 0001:00012d20       ?_Tidy@?$vector@UCSignat@@V?$allocator@UCSignat@@@std@@@std@@IAEXXZ 10013d20 f i ComDictionary.obj
 0001:00012de0       ?_Tidy@?$vector@UCTextField@@V?$allocator@UCTextField@@@std@@@std@@IAEXXZ 10013de0 f i ComDictionary.obj
 0001:00012ea0       ?_Tidy@?$vector@UTCortege10@@V?$allocator@UTCortege10@@@std@@@std@@IAEXXZ 10013ea0 f i ComDictionary.obj
 0001:00012f60       ?_Tidy@?$vector@UTSignatItem@@V?$allocator@UTSignatItem@@@std@@@std@@IAEXXZ 10013f60 f i ComDictionary.obj
 0001:00013020       ?_Unchecked@?$_Vector_const_iterator@V?$_Vector_val@U?$_Simple_types@E@std@@@std@@@std@@QBEPBEXZ 10014020 f i ComDictionary.obj
 0001:00013050       ?_Unchecked@?$_Vector_const_iterator@V?$_Vector_val@U?$_Simple_types@UTSignatItem@@@std@@@std@@@std@@QBEPBUTSignatItem@@XZ 10014050 f i ComDictionary.obj
 0001:00013080       ?_Unchecked@?$_Vector_const_iterator@V?$_Vector_val@U?$_Simple_types@VCStructEntry@@@std@@@std@@@std@@QBEPBVCStructEntry@@XZ 10014080 f i ComDictionary.obj
 0001:000130b0       ?_Xlen@?$basic_string@DU?$char_traits@D@std@@V?$allocator@D@2@@std@@QBEXXZ 100140b0 f i ComDictionary.obj
 0001:00013100       ?_Xlen@?$vector@EV?$allocator@E@std@@@std@@IBEXXZ 10014100 f i ComDictionary.obj
 0001:00013150       ?_Xlen@?$vector@UCSignat@@V?$allocator@UCSignat@@@std@@@std@@IBEXXZ 10014150 f i ComDictionary.obj
 0001:000131a0       ?_Xlen@?$vector@UTSignatItem@@V?$allocator@UTSignatItem@@@std@@@std@@IBEXXZ 100141a0 f i ComDictionary.obj
 0001:000131f0       ?_Xran@?$basic_string@DU?$char_traits@D@std@@V?$allocator@D@2@@std@@QBEXXZ 100141f0 f i ComDictionary.obj
 0001:00013240       ?allocate@?$_Wrap_alloc@V?$allocator@D@std@@@std@@QAEPADI@Z 10014240 f i ComDictionary.obj
 0001:00013290       ?allocate@?$_Wrap_alloc@V?$allocator@E@std@@@std@@QAEPAEI@Z 10014290 f i ComDictionary.obj
 0001:000132e0       ?allocate@?$_Wrap_alloc@V?$allocator@UCSignat@@@std@@@std@@QAEPAUCSignat@@I@Z 100142e0 f i ComDictionary.obj
 0001:00013330       ?allocate@?$_Wrap_alloc@V?$allocator@UTSignatItem@@@std@@@std@@QAEPAUTSignatItem@@I@Z 10014330 f i ComDictionary.obj
 0001:00013380       ?allocate@?$_Wrap_alloc@V?$allocator@U_Container_proxy@std@@@std@@@std@@QAEPAU_Container_proxy@2@I@Z 10014380 f i ComDictionary.obj
 0001:000133d0       ?allocate@?$allocator@D@std@@QAEPADI@Z 100143d0 f i ComDictionary.obj
 0001:00013420       ?allocate@?$allocator@E@std@@QAEPAEI@Z 10014420 f i ComDictionary.obj
 0001:00013470       ?allocate@?$allocator@UCSignat@@@std@@QAEPAUCSignat@@I@Z 10014470 f i ComDictionary.obj
 0001:000134c0       ?allocate@?$allocator@UTSignatItem@@@std@@QAEPAUTSignatItem@@I@Z 100144c0 f i ComDictionary.obj
 0001:00013510       ?allocate@?$allocator@U_Container_proxy@std@@@std@@QAEPAU_Container_proxy@2@I@Z 10014510 f i ComDictionary.obj
 0001:00013560       ?assign@?$basic_string@DU?$char_traits@D@std@@V?$allocator@D@2@@std@@QAEAAV12@ABV12@II@Z 10014560 f i ComDictionary.obj
 0001:00013640       ?assign@?$basic_string@DU?$char_traits@D@std@@V?$allocator@D@2@@std@@QAEAAV12@PBD@Z 10014640 f i ComDictionary.obj
 0001:000136b0       ?assign@?$basic_string@DU?$char_traits@D@std@@V?$allocator@D@2@@std@@QAEAAV12@PBDI@Z 100146b0 f i ComDictionary.obj
 0001:00013780       ?assign@?$char_traits@D@std@@SAXAADABD@Z 10014780 f i ComDictionary.obj
 0001:000137b0       ?begin@?$vector@EV?$allocator@E@std@@@std@@QBE?AV?$_Vector_const_iterator@V?$_Vector_val@U?$_Simple_types@E@std@@@std@@@2@XZ 100147b0 f i ComDictionary.obj
 0001:00013800       ?begin@?$vector@UTSignatItem@@V?$allocator@UTSignatItem@@@std@@@std@@QBE?AV?$_Vector_const_iterator@V?$_Vector_val@U?$_Simple_types@UTSignatItem@@@std@@@std@@@2@XZ 10014800 f i ComDictionary.obj
 0001:00013850       ?begin@?$vector@VCStructEntry@@V?$allocator@VCStructEntry@@@std@@@std@@QAE?AV?$_Vector_iterator@V?$_Vector_val@U?$_Simple_types@VCStructEntry@@@std@@@std@@@2@XZ 10014850 f i ComDictionary.obj
 0001:000138a0       ?begin@?$vector@VCStructEntry@@V?$allocator@VCStructEntry@@@std@@@std@@QBE?AV?$_Vector_const_iterator@V?$_Vector_val@U?$_Simple_types@VCStructEntry@@@std@@@std@@@2@XZ 100148a0 f i ComDictionary.obj
 0001:000138f0       ?c_str@?$basic_string@DU?$char_traits@D@std@@V?$allocator@D@2@@std@@QBEPBDXZ 100148f0 f i ComDictionary.obj
 0001:00013930       ?capacity@?$vector@EV?$allocator@E@std@@@std@@QBEIXZ 10014930 f i ComDictionary.obj
 0001:00013970       ?capacity@?$vector@UCSignat@@V?$allocator@UCSignat@@@std@@@std@@QBEIXZ 10014970 f i ComDictionary.obj
 0001:000139b0       ?capacity@?$vector@UTSignatItem@@V?$allocator@UTSignatItem@@@std@@@std@@QBEIXZ 100149b0 f i ComDictionary.obj
 0001:000139f0       ?category@error_code@std@@QBEABVerror_category@2@XZ 100149f0 f i ComDictionary.obj
 0001:00013a20       ?category@error_condition@std@@QBEABVerror_category@2@XZ 10014a20 f i ComDictionary.obj
 0001:00013a50       ?clear@?$vector@EV?$allocator@E@std@@@std@@QAEXXZ 10014a50 f i ComDictionary.obj
 0001:00013ac0       ?clear@?$vector@UCSignat@@V?$allocator@UCSignat@@@std@@@std@@QAEXXZ 10014ac0 f i ComDictionary.obj
 0001:00013b30       ?clear@?$vector@UTSignatItem@@V?$allocator@UTSignatItem@@@std@@@std@@QAEXXZ 10014b30 f i ComDictionary.obj
 0001:00013ba0       ?construct@?$allocator@UTSignatItem@@@std@@QAEXPAUTSignatItem@@ABU3@@Z 10014ba0 f i ComDictionary.obj
 0001:00013c20       ?copy@?$char_traits@D@std@@SAPADPADPBDI@Z 10014c20 f i ComDictionary.obj
 0001:00013c90       ?copy@_bstr_t@@QBEPA_W_N@Z 10014c90 f i ComDictionary.obj
 0001:00013d20       ?deallocate@?$_Wrap_alloc@V?$allocator@D@std@@@std@@QAEXPADI@Z 10014d20 f i ComDictionary.obj
 0001:00013d70       ?deallocate@?$_Wrap_alloc@V?$allocator@E@std@@@std@@QAEXPAEI@Z 10014d70 f i ComDictionary.obj
 0001:00013dc0       ?deallocate@?$_Wrap_alloc@V?$allocator@UCSignat@@@std@@@std@@QAEXPAUCSignat@@I@Z 10014dc0 f i ComDictionary.obj
 0001:00013e10       ?deallocate@?$_Wrap_alloc@V?$allocator@UCTextField@@@std@@@std@@QAEXPAUCTextField@@I@Z 10014e10 f i ComDictionary.obj
 0001:00013e60       ?deallocate@?$_Wrap_alloc@V?$allocator@UTCortege10@@@std@@@std@@QAEXPAUTCortege10@@I@Z 10014e60 f i ComDictionary.obj
 0001:00013eb0       ?deallocate@?$_Wrap_alloc@V?$allocator@UTSignatItem@@@std@@@std@@QAEXPAUTSignatItem@@I@Z 10014eb0 f i ComDictionary.obj
 0001:00013f00       ?deallocate@?$_Wrap_alloc@V?$allocator@U_Container_proxy@std@@@std@@@std@@QAEXPAU_Container_proxy@2@I@Z 10014f00 f i ComDictionary.obj
 0001:00013f50       ?deallocate@?$allocator@D@std@@QAEXPADI@Z 10014f50 f i ComDictionary.obj
 0001:00013fa0       ?deallocate@?$allocator@E@std@@QAEXPAEI@Z 10014fa0 f i ComDictionary.obj
 0001:00013ff0       ?deallocate@?$allocator@UCSignat@@@std@@QAEXPAUCSignat@@I@Z 10014ff0 f i ComDictionary.obj
 0001:00014040       ?deallocate@?$allocator@UCTextField@@@std@@QAEXPAUCTextField@@I@Z 10015040 f i ComDictionary.obj
 0001:00014090       ?deallocate@?$allocator@UTCortege10@@@std@@QAEXPAUTCortege10@@I@Z 10015090 f i ComDictionary.obj
 0001:000140e0       ?deallocate@?$allocator@UTSignatItem@@@std@@QAEXPAUTSignatItem@@I@Z 100150e0 f i ComDictionary.obj
 0001:00014130       ?deallocate@?$allocator@U_Container_proxy@std@@@std@@QAEXPAU_Container_proxy@2@I@Z 10015130 f i ComDictionary.obj
 0001:00014180       ?default_error_condition@_System_error_category@std@@UBE?AVerror_condition@2@H@Z 10015180 f i ComDictionary.obj
 0001:00014210       ?default_error_condition@error_category@std@@UBE?AVerror_condition@2@H@Z 10015210 f i ComDictionary.obj
 0001:00014260       ?empty@?$vector@EV?$allocator@E@std@@@std@@QBE_NXZ 10015260 f i ComDictionary.obj
 0001:000142c0       ?empty@?$vector@UCSignat@@V?$allocator@UCSignat@@@std@@@std@@QBE_NXZ 100152c0 f i ComDictionary.obj
 0001:00014320       ?empty@?$vector@UTSignatItem@@V?$allocator@UTSignatItem@@@std@@@std@@QBE_NXZ 10015320 f i ComDictionary.obj
 0001:00014380       ?end@?$vector@EV?$allocator@E@std@@@std@@QBE?AV?$_Vector_const_iterator@V?$_Vector_val@U?$_Simple_types@E@std@@@std@@@2@XZ 10015380 f i ComDictionary.obj
 0001:000143d0       ?end@?$vector@UTSignatItem@@V?$allocator@UTSignatItem@@@std@@@std@@QBE?AV?$_Vector_const_iterator@V?$_Vector_val@U?$_Simple_types@UTSignatItem@@@std@@@std@@@2@XZ 100153d0 f i ComDictionary.obj
 0001:00014420       ?end@?$vector@VCStructEntry@@V?$allocator@VCStructEntry@@@std@@@std@@QBE?AV?$_Vector_const_iterator@V?$_Vector_val@U?$_Simple_types@VCStructEntry@@@std@@@std@@@2@XZ 10015420 f i ComDictionary.obj
 0001:00014470       ?equivalent@error_category@std@@UBE_NABVerror_code@2@H@Z 10015470 f i ComDictionary.obj
 0001:000144f0       ?equivalent@error_category@std@@UBE_NHABVerror_condition@2@@Z 100154f0 f i ComDictionary.obj
 0001:00014560       ?erase@?$basic_string@DU?$char_traits@D@std@@V?$allocator@D@2@@std@@QAEAAV12@I@Z 10015560 f i ComDictionary.obj
 0001:000145c0       ?erase@?$basic_string@DU?$char_traits@D@std@@V?$allocator@D@2@@std@@QAEAAV12@II@Z 100155c0 f i ComDictionary.obj
 0001:00014680       ?generic_category@std@@YAABVerror_category@1@XZ 10015680 f i ComDictionary.obj
 0001:000146b0       ?get_Domains@CComDictionary@@UAGJEPAPAUIDomain@@@Z 100156b0 f   ComDictionary.obj
 0001:00014770       ?get_Fields@CComDictionary@@UAGJEPAPAUIField@@@Z 10015770 f   ComDictionary.obj
 0001:00014830       ?get_MaxNumDom@CComDictionary@@UAGJPAE@Z 10015830 f   ComDictionary.obj
 0001:00014870       ?get_Name@CComDictionary@@UAGJPAPA_W@Z 10015870 f   ComDictionary.obj
 0001:00014910       ?get_RussianFields@CComDictionary@@UAGJPAH@Z 10015910 f   ComDictionary.obj
 0001:00014970       ?get_UnitEditor@CComDictionary@@UAGJGPAPA_W@Z 10015970 f   ComDictionary.obj
 0001:00014a50       ?get_bDontLoadExamples@CComDictionary@@UAGJPAH@Z 10015a50 f   ComDictionary.obj
 0001:00014ab0       ?length@?$char_traits@D@std@@SAIPBD@Z 10015ab0 f i ComDictionary.obj
 0001:00014b10       ?max_size@?$_Wrap_alloc@V?$allocator@D@std@@@std@@QBEIXZ 10015b10 f i ComDictionary.obj
 0001:00014b60       ?max_size@?$_Wrap_alloc@V?$allocator@E@std@@@std@@QBEIXZ 10015b60 f i ComDictionary.obj
 0001:00014bb0       ?max_size@?$_Wrap_alloc@V?$allocator@UCSignat@@@std@@@std@@QBEIXZ 10015bb0 f i ComDictionary.obj
 0001:00014c00       ?max_size@?$_Wrap_alloc@V?$allocator@UTSignatItem@@@std@@@std@@QBEIXZ 10015c00 f i ComDictionary.obj
 0001:00014c50       ?max_size@?$allocator@D@std@@QBEIXZ 10015c50 f i ComDictionary.obj
 0001:00014c80       ?max_size@?$allocator@E@std@@QBEIXZ 10015c80 f i ComDictionary.obj
 0001:00014cb0       ?max_size@?$allocator@UCSignat@@@std@@QBEIXZ 10015cb0 f i ComDictionary.obj
 0001:00014ce0       ?max_size@?$allocator@UTSignatItem@@@std@@QBEIXZ 10015ce0 f i ComDictionary.obj
 0001:00014d10       ?max_size@?$allocator_traits@V?$allocator@D@std@@@std@@SAIABV?$allocator@D@2@@Z 10015d10 f i ComDictionary.obj
 0001:00014d50       ?max_size@?$allocator_traits@V?$allocator@E@std@@@std@@SAIABV?$allocator@E@2@@Z 10015d50 f i ComDictionary.obj
 0001:00014d90       ?max_size@?$allocator_traits@V?$allocator@UCSignat@@@std@@@std@@SAIABV?$allocator@UCSignat@@@2@@Z 10015d90 f i ComDictionary.obj
 0001:00014dd0       ?max_size@?$allocator_traits@V?$allocator@UTSignatItem@@@std@@@std@@SAIABV?$allocator@UTSignatItem@@@2@@Z 10015dd0 f i ComDictionary.obj
 0001:00014e10       ?max_size@?$basic_string@DU?$char_traits@D@std@@V?$allocator@D@2@@std@@QBEIXZ 10015e10 f i ComDictionary.obj
 0001:00014e90       ?max_size@?$vector@EV?$allocator@E@std@@@std@@QBEIXZ 10015e90 f i ComDictionary.obj
 0001:00014ee0       ?max_size@?$vector@UCSignat@@V?$allocator@UCSignat@@@std@@@std@@QBEIXZ 10015ee0 f i ComDictionary.obj
 0001:00014f30       ?max_size@?$vector@UTSignatItem@@V?$allocator@UTSignatItem@@@std@@@std@@QBEIXZ 10015f30 f i ComDictionary.obj
 0001:00014f80       ?message@_Generic_error_category@std@@UBE?AV?$basic_string@DU?$char_traits@D@std@@V?$allocator@D@2@@2@H@Z 10015f80 f i ComDictionary.obj
 0001:00015020       ?message@_Iostream_error_category@std@@UBE?AV?$basic_string@DU?$char_traits@D@std@@V?$allocator@D@2@@2@H@Z 10016020 f i ComDictionary.obj
 0001:000150b0       ?message@_System_error_category@std@@UBE?AV?$basic_string@DU?$char_traits@D@std@@V?$allocator@D@2@@2@H@Z 100160b0 f i ComDictionary.obj
 0001:00015150       ?move@?$char_traits@D@std@@SAPADPADPBDI@Z 10016150 f i ComDictionary.obj
 0001:000151c0       ?name@_Generic_error_category@std@@UBEPBDXZ 100161c0 f i ComDictionary.obj
 0001:000151f0       ?name@_Iostream_error_category@std@@UBEPBDXZ 100161f0 f i ComDictionary.obj
 0001:00015220       ?name@_System_error_category@std@@UBEPBDXZ 10016220 f i ComDictionary.obj
 0001:00015250       ?ocslen@@YAHPB_W@Z         10016250 f i ComDictionary.obj
 0001:000152b0       ?put_Domains@CComDictionary@@UAGJEPAUIDomain@@@Z 100162b0 f   ComDictionary.obj
 0001:00015310       ?put_Fields@CComDictionary@@UAGJEPAUIField@@@Z 10016310 f   ComDictionary.obj
 0001:00015370       ?put_RussianFields@CComDictionary@@UAGJH@Z 10016370 f   ComDictionary.obj
 0001:000153d0       ?put_UnitEditor@CComDictionary@@UAGJGPA_W@Z 100163d0 f   ComDictionary.obj
 0001:00015440       ?put_bDontLoadExamples@CComDictionary@@UAGJH@Z 10016440 f   ComDictionary.obj
 0001:000154a0       ?select_on_container_copy_construction@?$_Wrap_alloc@V?$allocator@D@std@@@std@@QBE?AU12@XZ 100164a0 f i ComDictionary.obj
 0001:00015500       ?select_on_container_copy_construction@?$_Wrap_alloc@V?$allocator@E@std@@@std@@QBE?AU12@XZ 10016500 f i ComDictionary.obj
 0001:00015560       ?select_on_container_copy_construction@?$_Wrap_alloc@V?$allocator@UTSignatItem@@@std@@@std@@QBE?AU12@XZ 10016560 f i ComDictionary.obj
 0001:000155c0       ?select_on_container_copy_construction@?$allocator@D@std@@QBE?AV12@XZ 100165c0 f i ComDictionary.obj
 0001:00015610       ?select_on_container_copy_construction@?$allocator@E@std@@QBE?AV12@XZ 10016610 f i ComDictionary.obj
 0001:00015660       ?select_on_container_copy_construction@?$allocator@UTSignatItem@@@std@@QBE?AV12@XZ 10016660 f i ComDictionary.obj
 0001:000156b0       ?select_on_container_copy_construction@?$allocator_traits@V?$allocator@D@std@@@std@@SA?AV?$allocator@D@2@ABV32@@Z 100166b0 f i ComDictionary.obj
 0001:00015700       ?select_on_container_copy_construction@?$allocator_traits@V?$allocator@E@std@@@std@@SA?AV?$allocator@E@2@ABV32@@Z 10016700 f i ComDictionary.obj
 0001:00015750       ?select_on_container_copy_construction@?$allocator_traits@V?$allocator@UTSignatItem@@@std@@@std@@SA?AV?$allocator@UTSignatItem@@@2@ABV32@@Z 10016750 f i ComDictionary.obj
 0001:000157a0       ?size@?$basic_string@DU?$char_traits@D@std@@V?$allocator@D@2@@std@@QBEIXZ 100167a0 f i ComDictionary.obj
 0001:000157d0       ?size@?$vector@EV?$allocator@E@std@@@std@@QBEIXZ 100167d0 f i ComDictionary.obj
 0001:00015810       ?size@?$vector@UCDomen@@V?$allocator@UCDomen@@@std@@@std@@QBEIXZ 10016810 f i ComDictionary.obj
 0001:00015850       ?size@?$vector@UCField@@V?$allocator@UCField@@@std@@@std@@QBEIXZ 10016850 f i ComDictionary.obj
 0001:00015890       ?size@?$vector@UCSignat@@V?$allocator@UCSignat@@@std@@@std@@QBEIXZ 10016890 f i ComDictionary.obj
 0001:000158d0       ?size@?$vector@UTDomItem@@V?$allocator@UTDomItem@@@std@@@std@@QBEIXZ 100168d0 f i ComDictionary.obj
 0001:00015910       ?size@?$vector@UTSignatItem@@V?$allocator@UTSignatItem@@@std@@@std@@QBEIXZ 10016910 f i ComDictionary.obj
 0001:00015950       ?size@?$vector@VCStructEntry@@V?$allocator@VCStructEntry@@@std@@@std@@QBEIXZ 10016950 f i ComDictionary.obj
 0001:00015990       ?system_category@std@@YAABVerror_category@1@XZ 10016990 f i ComDictionary.obj
 0001:000159c0       ?value@error_code@std@@QBEHXZ 100169c0 f i ComDictionary.obj
 0001:000159f0       ?value@error_condition@std@@QBEHXZ 100169f0 f i ComDictionary.obj
 0001:00015a20       _HRESULT_FROM_WIN32        10016a20 f i ComDictionary.obj
 0001:00015a80       _InlineIsEqualGUID         10016a80 f i ComDictionary.obj
 0001:00015b40       _hypot                     10016b40 f i ComDictionary.obj
 0001:00015ba0       ??A?$vector@UCDomen@@V?$allocator@UCDomen@@@std@@@std@@QBEABUCDomen@@I@Z 10016ba0 f i ComDomen.obj
 0001:00015c80       ?FindItem@CComDomen@@UAGJPA_WPAJ@Z 10016c80 f   ComDomen.obj
 0001:00015d90       ?GetDomItemStr@TItemContainer@@QBEPBDABUTDomItem@@@Z 10016d90 f i ComDomen.obj
 0001:00015e40       ?GetItemStrNo@TDomItem@@QBEKXZ 10016e40 f i ComDomen.obj
 0001:00015e80       ?GetItemsCount@CComDomen@@UAGJPAJ@Z 10016e80 f   ComDomen.obj
 0001:00015ed0       ?get_DomStr@CComDomen@@UAGJPAPA_W@Z 10016ed0 f   ComDomen.obj
 0001:00015f70       ?get_Format@CComDomen@@UAGJPAPA_W@Z 10016f70 f   ComDomen.obj
 0001:00016010       ?get_IsDelim@CComDomen@@UAGJPAH@Z 10017010 f   ComDomen.obj
 0001:00016070       ?get_IsFree@CComDomen@@UAGJPAH@Z 10017070 f   ComDomen.obj
 0001:000160d0       ?get_Items@CComDomen@@UAGJJPAPA_W@Z 100170d0 f   ComDomen.obj
 0001:000161a0       ?get_Parts@CComDomen@@UAGJEPAE@Z 100171a0 f   ComDomen.obj
 0001:000161e0       ?get_PartsSize@CComDomen@@UAGJPAE@Z 100171e0 f   ComDomen.obj
 0001:00016220       ?get_Source@CComDomen@@UAGJPAE@Z 10017220 f   ComDomen.obj
 0001:00016260       ?put_DomStr@CComDomen@@UAGJPA_W@Z 10017260 f   ComDomen.obj
 0001:00016300       ?put_Format@CComDomen@@UAGJPA_W@Z 10017300 f   ComDomen.obj
 0001:000163a0       ?put_IsDelim@CComDomen@@UAGJH@Z 100173a0 f   ComDomen.obj
 0001:00016400       ?put_IsFree@CComDomen@@UAGJH@Z 10017400 f   ComDomen.obj
 0001:00016460       ?put_Parts@CComDomen@@UAGJEE@Z 10017460 f   ComDomen.obj
 0001:000164a0       ?put_Source@CComDomen@@UAGJE@Z 100174a0 f   ComDomen.obj
 0001:000164e0       ??$_Umove@PAUCSignat@@@?$vector@UCSignat@@V?$allocator@UCSignat@@@std@@@std@@IAEPAUCSignat@@PAU2@00@Z 100174e0 f i ComField.obj
 0001:00016570       ??$_Uninit_move@PAUCSignat@@PAU1@U?$_Wrap_alloc@V?$allocator@UCSignat@@@std@@@std@@@std@@YAPAUCSignat@@PAU1@00AAU?$_Wrap_alloc@V?$allocator@UCSignat@@@std@@@0@@Z 10017570 f i ComField.obj
 0001:000165f0       ??$_Uninit_move@PAUCSignat@@PAU1@V?$allocator@UCSignat@@@std@@U1@@std@@YAPAUCSignat@@PAU1@00AAU?$_Wrap_alloc@V?$allocator@UCSignat@@@std@@@0@0U_Nonscalar_ptr_iterator_tag@0@@Z 100175f0 f i ComField.obj
 0001:00016710       ??$_Uninitialized_move@PAUCSignat@@PAU1@U?$_Wrap_alloc@V?$allocator@UCSignat@@@std@@@std@@@std@@YAPAUCSignat@@PAU1@00AAU?$_Wrap_alloc@V?$allocator@UCSignat@@@std@@@0@@Z 10017710 f i ComField.obj
 0001:00016790       ??$_Val_type@PAUCSignat@@@std@@YAPAUCSignat@@PAU1@@Z 10017790 f i ComField.obj
 0001:000167c0       ??$addressof@$$CBUCSignat@@@std@@YAPBUCSignat@@ABU1@@Z 100177c0 f i ComField.obj
 0001:000167f0       ??$construct@UCSignat@@ABU1@@?$_Wrap_alloc@V?$allocator@UCSignat@@@std@@@std@@QAEXPAUCSignat@@ABU2@@Z 100177f0 f i ComField.obj
 0001:00016850       ??$construct@UCSignat@@ABU1@@?$allocator_traits@V?$allocator@UCSignat@@@std@@@std@@SAXAAV?$allocator@UCSignat@@@1@PAUCSignat@@ABU3@@Z 10017850 f i ComField.obj
 0001:000168a0       ??$construct@UCSignat@@U1@@?$_Wrap_alloc@V?$allocator@UCSignat@@@std@@@std@@QAEXPAUCSignat@@$$QAU2@@Z 100178a0 f i ComField.obj
 0001:00016900       ??$construct@UCSignat@@U1@@?$allocator@UCSignat@@@std@@QAEXPAUCSignat@@$$QAU2@@Z 10017900 f i ComField.obj
 0001:000169d0       ??$construct@UCSignat@@U1@@?$allocator_traits@V?$allocator@UCSignat@@@std@@@std@@SAXAAV?$allocator@UCSignat@@@1@PAUCSignat@@$$QAU3@@Z 100179d0 f i ComField.obj
 0001:00016a20       ??$forward@ABUCSignat@@@std@@YAABUCSignat@@ABU1@@Z 10017a20 f i ComField.obj
 0001:00016a50       ??$forward@UCSignat@@@std@@YA$$QAUCSignat@@AAU1@@Z 10017a50 f i ComField.obj
 0001:00016a80       ??0?$CComObject@VCComSignat@@@ATL@@QAE@PAX@Z 10017a80 f i ComField.obj
 0001:00016b20       ??0?$IDispatchImpl@UISignat@@$1?IID_ISignat@@3U_GUID@@B$1?LIBID_STRUCTDICTLib@@3U3@B$00$0A@VCComTypeInfoHolder@ATL@@@ATL@@QAE@XZ 10017b20 f i ComField.obj
 0001:00016b70       ??0?$vector@EV?$allocator@E@std@@@std@@QAE@XZ 10017b70 f i ComField.obj
 0001:00016bc0       ??0?$vector@UTSignatItem@@V?$allocator@UTSignatItem@@@std@@@std@@QAE@XZ 10017bc0 f i ComField.obj
 0001:00016c10       ??0CComSignat@@QAE@XZ      10017c10 f i ComField.obj
 0001:00016c70       ??0CSignat@@QAE@XZ         10017c70 f i ComField.obj
 0001:00016d00       ??0ISignat@@QAE@XZ         10017d00 f i ComField.obj
 0001:00016d50       ??1?$CComObject@VCComSignat@@@ATL@@UAE@XZ 10017d50 f i ComField.obj
 0001:00016e00       ??1CComSignat@@QAE@XZ      10017e00 f i ComField.obj
 0001:00016e90       ??A?$vector@UCSignat@@V?$allocator@UCSignat@@@std@@@std@@QAEAAUCSignat@@I@Z 10017e90 f i ComField.obj
 0001:00016f70       ??_E?$CComObject@VCComSignat@@@ATL@@UAEPAXI@Z 10017f70 f i ComField.obj
 0001:00016f70       ??_G?$CComObject@VCComSignat@@@ATL@@UAEPAXI@Z 10017f70 f i ComField.obj
 0001:00016fd0       ?AddRef@?$CComObject@VCComSignat@@@ATL@@UAGKXZ 10017fd0 f i ComField.obj
 0001:00017010       ?AddSignat@CComField@@UAGJXZ 10018010 f   ComField.obj
 0001:00017170       ?DeleteLastSignat@CComField@@UAGJXZ 10018170 f   ComField.obj
 0001:000171d0       ?GetIDsOfNames@?$IDispatchImpl@UISignat@@$1?IID_ISignat@@3U_GUID@@B$1?LIBID_STRUCTDICTLib@@3U3@B$00$0A@VCComTypeInfoHolder@ATL@@@ATL@@UAGJABU_GUID@@PAPA_WIKPAJ@Z 100181d0 f i ComField.obj
 0001:00017230       ?GetTypeInfo@?$IDispatchImpl@UISignat@@$1?IID_ISignat@@3U_GUID@@B$1?LIBID_STRUCTDICTLib@@3U3@B$00$0A@VCComTypeInfoHolder@ATL@@@ATL@@UAGJIKPAPAUITypeInfo@@@Z 10018230 f i ComField.obj
 0001:00017280       ?GetTypeInfoCount@?$IDispatchImpl@UISignat@@$1?IID_ISignat@@3U_GUID@@B$1?LIBID_STRUCTDICTLib@@3U3@B$00$0A@VCComTypeInfoHolder@ATL@@@ATL@@UAGJPAI@Z 10018280 f i ComField.obj
 0001:000172c0       ?Invoke@?$IDispatchImpl@UISignat@@$1?IID_ISignat@@3U_GUID@@B$1?LIBID_STRUCTDICTLib@@3U3@B$00$0A@VCComTypeInfoHolder@ATL@@@ATL@@UAGJJABU_GUID@@KGPAUtagDISPPARAMS@@PAUtagVARIANT@@PAUtagEXCEPINFO@@PAI@Z 100182c0 f i ComField.obj
 0001:00017330       ?Length@Data_t@_bstr_t@@QBEIXZ 10018330 f i ComField.obj
 0001:000173a0       ?QueryInterface@?$CComObject@VCComSignat@@@ATL@@UAGJABU_GUID@@PAPAX@Z 100183a0 f i ComField.obj
 0001:000173f0       ?Release@?$CComObject@VCComSignat@@@ATL@@UAGKXZ 100183f0 f i ComField.obj
 0001:000174d0       ?_Clrcont@_Iterator_base12@std@@QAEXXZ 100184d0 f i ComField.obj
 0001:00017510       ?_GetEntries@CComSignat@@SGPBU_ATL_INTMAP_ENTRY@ATL@@XZ 10018510 f i ComField.obj
 0001:00017550       ?_Getpnext@_Iterator_base12@std@@QAEPAPAU12@XZ 10018550 f i ComField.obj
 0001:00017580       ?_Grow_to@?$vector@UCSignat@@V?$allocator@UCSignat@@@std@@@std@@IBEII@Z 10018580 f i ComField.obj
 0001:00017610       ?_Inside@?$vector@UCSignat@@V?$allocator@UCSignat@@@std@@@std@@IBE_NPBUCSignat@@@Z 10018610 f i ComField.obj
 0001:00017670       ?_InternalQueryInterface@CComSignat@@QAEJABU_GUID@@PAPAX@Z 10018670 f i ComField.obj
 0001:000176c0       ?_Orphan_range@?$vector@UCSignat@@V?$allocator@UCSignat@@@std@@@std@@IBEXPAUCSignat@@0@Z 100186c0 f i ComField.obj
 0001:000177f0       ?_Reallocate@?$vector@UCSignat@@V?$allocator@UCSignat@@@std@@@std@@IAEXI@Z 100187f0 f i ComField.obj
 0001:00017970       ?_Reserve@?$vector@UCSignat@@V?$allocator@UCSignat@@@std@@@std@@IAEXI@Z 10018970 f i ComField.obj
 0001:00017a00       ?_Unused_capacity@?$vector@UCSignat@@V?$allocator@UCSignat@@@std@@@std@@QBEIXZ 10018a00 f i ComField.obj
 0001:00017a40       ?construct@?$allocator@UCSignat@@@std@@QAEXPAUCSignat@@ABU3@@Z 10018a40 f i ComField.obj
 0001:00017b00       ?get_FieldStr@CComField@@UAGJPAPA_W@Z 10018b00 f   ComField.obj
 0001:00017b70       ?get_IsApplicToActant@CComField@@UAGJPAH@Z 10018b70 f   ComField.obj
 0001:00017bd0       ?get_OrderId@CComField@@UAGJPAJ@Z 10018bd0 f   ComField.obj
 0001:00017c10       ?get_SignatCount@CComField@@UAGJPAE@Z 10018c10 f   ComField.obj
 0001:00017c60       ?get_Signats@CComField@@UAGJEPAPAUISignat@@@Z 10018c60 f   ComField.obj
 0001:00017d20       ?get_Type@CComField@@UAGJPAE@Z 10018d20 f   ComField.obj
 0001:00017d60       ?length@_bstr_t@@QBEIXZ    10018d60 f i ComField.obj
 0001:00017dd0       ?pop_back@?$vector@UCSignat@@V?$allocator@UCSignat@@@std@@@std@@QAEXXZ 10018dd0 f i ComField.obj
 0001:00017e90       ?push_back@?$vector@UCSignat@@V?$allocator@UCSignat@@@std@@@std@@QAEXABUCSignat@@@Z 10018e90 f i ComField.obj
 0001:00017fe0       ?put_FieldStr@CComField@@UAGJPA_W@Z 10018fe0 f   ComField.obj
 0001:000180b0       ?put_IsApplicToActant@CComField@@UAGJH@Z 100190b0 f   ComField.obj
 0001:00018110       ?put_OrderId@CComField@@UAGJJ@Z 10019110 f   ComField.obj
 0001:00018150       ?put_Signats@CComField@@UAGJEPAUISignat@@@Z 10019150 f   ComField.obj
 0001:000181b0       ?put_Type@CComField@@UAGJE@Z 100191b0 f   ComField.obj
 0001:000181f0       ??$_Umove@PAE@?$vector@EV?$allocator@E@std@@@std@@IAEPAEPAE00@Z 100191f0 f i ComSignat.obj
 0001:00018280       ??$_Umove@PAUTSignatItem@@@?$vector@UTSignatItem@@V?$allocator@UTSignatItem@@@std@@@std@@IAEPAUTSignatItem@@PAU2@00@Z 10019280 f i ComSignat.obj
 0001:00018310       ??$_Uninit_def_fill_n@EIE@std@@YAXPAEIAAU?$_Wrap_alloc@V?$allocator@E@std@@@0@0U_Scalar_ptr_iterator_tag@0@@Z 10019310 f i ComSignat.obj
 0001:00018360       ??$_Uninit_def_fill_n@PAUTSignatItem@@IV?$allocator@UTSignatItem@@@std@@U1@@std@@YAXPAUTSignatItem@@IAAU?$_Wrap_alloc@V?$allocator@UTSignatItem@@@std@@@0@0U_Nonscalar_ptr_iterator_tag@0@@Z 10019360 f i ComSignat.obj
 0001:00018440       ??$_Uninit_move@EEE@std@@YAPAEPAE00AAU?$_Wrap_alloc@V?$allocator@E@std@@@0@0U_Scalar_ptr_iterator_tag@0@@Z 10019440 f i ComSignat.obj
 0001:000184d0       ??$_Uninit_move@PAEPAEU?$_Wrap_alloc@V?$allocator@E@std@@@std@@@std@@YAPAEPAE00AAU?$_Wrap_alloc@V?$allocator@E@std@@@0@@Z 100194d0 f i ComSignat.obj
 0001:00018550       ??$_Uninit_move@PAUTSignatItem@@PAU1@U?$_Wrap_alloc@V?$allocator@UTSignatItem@@@std@@@std@@@std@@YAPAUTSignatItem@@PAU1@00AAU?$_Wrap_alloc@V?$allocator@UTSignatItem@@@std@@@0@@Z 10019550 f i ComSignat.obj
 0001:000185d0       ??$_Uninit_move@PAUTSignatItem@@PAU1@V?$allocator@UTSignatItem@@@std@@U1@@std@@YAPAUTSignatItem@@PAU1@00AAU?$_Wrap_alloc@V?$allocator@UTSignatItem@@@std@@@0@0U_Nonscalar_ptr_iterator_tag@0@@Z 100195d0 f i ComSignat.obj
 0001:000186e0       ??$_Uninitialized_default_fill_n@PAEIU?$_Wrap_alloc@V?$allocator@E@std@@@std@@@std@@YAXPAEIAAU?$_Wrap_alloc@V?$allocator@E@std@@@0@@Z 100196e0 f i ComSignat.obj
 0001:00018760       ??$_Uninitialized_default_fill_n@PAUTSignatItem@@IU?$_Wrap_alloc@V?$allocator@UTSignatItem@@@std@@@std@@@std@@YAXPAUTSignatItem@@IAAU?$_Wrap_alloc@V?$allocator@UTSignatItem@@@std@@@0@@Z 10019760 f i ComSignat.obj
 0001:000187e0       ??$_Uninitialized_move@PAEPAEU?$_Wrap_alloc@V?$allocator@E@std@@@std@@@std@@YAPAEPAE00AAU?$_Wrap_alloc@V?$allocator@E@std@@@0@@Z 100197e0 f i ComSignat.obj
 0001:00018860       ??$_Uninitialized_move@PAUTSignatItem@@PAU1@U?$_Wrap_alloc@V?$allocator@UTSignatItem@@@std@@@std@@@std@@YAPAUTSignatItem@@PAU1@00AAU?$_Wrap_alloc@V?$allocator@UTSignatItem@@@std@@@0@@Z 10019860 f i ComSignat.obj
 0001:000188e0       ??$_Val_type@PAE@std@@YAPAEPAE@Z 100198e0 f i ComSignat.obj
 0001:00018910       ??$_Val_type@PAUTSignatItem@@@std@@YAPAUTSignatItem@@PAU1@@Z 10019910 f i ComSignat.obj
 0001:00018940       ??$construct@UTSignatItem@@$$$V@?$allocator_traits@V?$allocator@UTSignatItem@@@std@@@std@@SAXAAV?$allocator@UTSignatItem@@@1@PAUTSignatItem@@@Z 10019940 f i ComSignat.obj
 0001:00018980       ??$construct@UTSignatItem@@U1@@?$_Wrap_alloc@V?$allocator@UTSignatItem@@@std@@@std@@QAEXPAUTSignatItem@@$$QAU2@@Z 10019980 f i ComSignat.obj
 0001:000189e0       ??$construct@UTSignatItem@@U1@@?$allocator@UTSignatItem@@@std@@QAEXPAUTSignatItem@@$$QAU2@@Z 100199e0 f i ComSignat.obj
 0001:00018ab0       ??$construct@UTSignatItem@@U1@@?$allocator_traits@V?$allocator@UTSignatItem@@@std@@@std@@SAXAAV?$allocator@UTSignatItem@@@1@PAUTSignatItem@@$$QAU3@@Z 10019ab0 f i ComSignat.obj
 0001:00018b00       ??$forward@UTSignatItem@@@std@@YA$$QAUTSignatItem@@AAU1@@Z 10019b00 f i ComSignat.obj
 0001:00018b30       ??0TSignatItem@@QAE@XZ     10019b30 f i ComSignat.obj
 0001:00018b70       ??A?$vector@EV?$allocator@E@std@@@std@@QAEAAEI@Z 10019b70 f i ComSignat.obj
 0001:00018c50       ??A?$vector@UTSignatItem@@V?$allocator@UTSignatItem@@@std@@@std@@QAEAAUTSignatItem@@I@Z 10019c50 f i ComSignat.obj
 0001:00018d30       ?CreateTempSignat@CComSignat@@UAGJXZ 10019d30 f   ComSignat.obj
 0001:00018dc0       ?_Fill_n@std@@YAPAEPAEIE@Z 10019dc0 f i ComSignat.obj
 0001:00018e10       ?_Grow_to@?$vector@EV?$allocator@E@std@@@std@@IBEII@Z 10019e10 f i ComSignat.obj
 0001:00018ea0       ?_Grow_to@?$vector@UTSignatItem@@V?$allocator@UTSignatItem@@@std@@@std@@IBEII@Z 10019ea0 f i ComSignat.obj
 0001:00018f30       ?_Orphan_range@?$vector@EV?$allocator@E@std@@@std@@IBEXPAE0@Z 10019f30 f i ComSignat.obj
 0001:00019060       ?_Orphan_range@?$vector@UTSignatItem@@V?$allocator@UTSignatItem@@@std@@@std@@IBEXPAUTSignatItem@@0@Z 1001a060 f i ComSignat.obj
 0001:00019190       ?_Pop_back_n@?$vector@EV?$allocator@E@std@@@std@@QAEXI@Z 1001a190 f i ComSignat.obj
 0001:00019210       ?_Pop_back_n@?$vector@UTSignatItem@@V?$allocator@UTSignatItem@@@std@@@std@@QAEXI@Z 1001a210 f i ComSignat.obj
 0001:00019290       ?_Reallocate@?$vector@EV?$allocator@E@std@@@std@@IAEXI@Z 1001a290 f i ComSignat.obj
 0001:00019400       ?_Reallocate@?$vector@UTSignatItem@@V?$allocator@UTSignatItem@@@std@@@std@@IAEXI@Z 1001a400 f i ComSignat.obj
 0001:00019580       ?_Reserve@?$vector@EV?$allocator@E@std@@@std@@IAEXI@Z 1001a580 f i ComSignat.obj
 0001:00019610       ?_Reserve@?$vector@UTSignatItem@@V?$allocator@UTSignatItem@@@std@@@std@@IAEXI@Z 1001a610 f i ComSignat.obj
 0001:000196a0       ?_Unused_capacity@?$vector@EV?$allocator@E@std@@@std@@QBEIXZ 1001a6a0 f i ComSignat.obj
 0001:000196e0       ?_Unused_capacity@?$vector@UTSignatItem@@V?$allocator@UTSignatItem@@@std@@@std@@QBEIXZ 1001a6e0 f i ComSignat.obj
 0001:00019720       ?construct@?$_Wrap_alloc@V?$allocator@UTSignatItem@@@std@@@std@@QAEXPAUTSignatItem@@@Z 1001a720 f i ComSignat.obj
 0001:00019770       ?construct@?$allocator@UTSignatItem@@@std@@QAEXPAUTSignatItem@@@Z 1001a770 f i ComSignat.obj
 0001:00019830       ?get_DomainString@CComSignat@@UAGJPAPA_W@Z 1001a830 f   ComSignat.obj
 0001:000198d0       ?get_Doms@CComSignat@@UAGJEPAE@Z 1001a8d0 f   ComSignat.obj
 0001:00019930       ?get_DomsCount@CComSignat@@UAGJPAE@Z 1001a930 f   ComSignat.obj
 0001:00019980       ?get_DomsWithDelims@CComSignat@@UAGJEPAE@Z 1001a980 f   ComSignat.obj
 0001:000199e0       ?get_DomsWithDelimsCount@CComSignat@@UAGJPAE@Z 1001a9e0 f   ComSignat.obj
 0001:00019a30       ?get_FormatForDomain@CComSignat@@UAGJPAPA_W@Z 1001aa30 f   ComSignat.obj
 0001:00019ad0       ?get_FormatForPrintf@CComSignat@@UAGJPAPA_W@Z 1001aad0 f   ComSignat.obj
 0001:00019b70       ?get_Name@CComSignat@@UAGJPAPA_W@Z 1001ab70 f   ComSignat.obj
 0001:00019c10       ?get_OrderNo@CComSignat@@UAGJPAJ@Z 1001ac10 f   ComSignat.obj
 0001:00019c50       ?get_SignatId@CComSignat@@UAGJPAJ@Z 1001ac50 f   ComSignat.obj
 0001:00019c90       ?put_DomainString@CComSignat@@UAGJPA_W@Z 1001ac90 f   ComSignat.obj
 0001:00019d30       ?put_Doms@CComSignat@@UAGJEE@Z 1001ad30 f   ComSignat.obj
 0001:00019d90       ?put_DomsCount@CComSignat@@UAGJE@Z 1001ad90 f   ComSignat.obj
 0001:00019de0       ?put_DomsWithDelims@CComSignat@@UAGJEE@Z 1001ade0 f   ComSignat.obj
 0001:00019e40       ?put_DomsWithDelimsCount@CComSignat@@UAGJE@Z 1001ae40 f   ComSignat.obj
 0001:00019e90       ?put_Name@CComSignat@@UAGJPA_W@Z 1001ae90 f   ComSignat.obj
 0001:00019f30       ?put_OrderNo@CComSignat@@UAGJJ@Z 1001af30 f   ComSignat.obj
 0001:00019f70       ?put_SignatId@CComSignat@@UAGJJ@Z 1001af70 f   ComSignat.obj
 0001:00019fb0       ?resize@?$vector@EV?$allocator@E@std@@@std@@QAEXI@Z 1001afb0 f i ComSignat.obj
 0001:0001a110       ?resize@?$vector@UTSignatItem@@V?$allocator@UTSignatItem@@@std@@@std@@QAEXI@Z 1001b110 f i ComSignat.obj
 0001:0001a270       ??0?$CComObject@VCComTextField@@@ATL@@QAE@PAX@Z 1001b270 f i ComTempArticle.obj
 0001:0001a310       ??0?$IDispatchImpl@UITextField@@$1?IID_ITextField@@3U_GUID@@B$1?LIBID_STRUCTDICTLib@@3U3@B$00$0A@VCComTypeInfoHolder@ATL@@@ATL@@QAE@XZ 1001b310 f i ComTempArticle.obj
 0001:0001a360       ??0CComTextField@@QAE@XZ   1001b360 f i ComTempArticle.obj
 0001:0001a3b0       ??0ITextField@@QAE@XZ      1001b3b0 f i ComTempArticle.obj
 0001:0001a400       ??1?$CComObject@VCComTextField@@@ATL@@UAE@XZ 1001b400 f i ComTempArticle.obj
 0001:0001a4b0       ??1CComTextField@@QAE@XZ   1001b4b0 f i ComTempArticle.obj
 0001:0001a500       ??4?$basic_string@DU?$char_traits@D@std@@V?$allocator@D@2@@std@@QAEAAV01@PBD@Z 1001b500 f i ComTempArticle.obj
 0001:0001a550       ??A?$vector@UCTextField@@V?$allocator@UCTextField@@@std@@@std@@QAEAAUCTextField@@I@Z 1001b550 f i ComTempArticle.obj
 0001:0001a630       ??_G?$CComObject@VCComTextField@@@ATL@@UAEPAXI@Z 1001b630 f i ComTempArticle.obj
 0001:0001a630       ??_E?$CComObject@VCComTextField@@@ATL@@UAEPAXI@Z 1001b630 f i ComTempArticle.obj
 0001:0001a690       ?AddArticle@CComTempArticle@@UAGJPAUITempArticle@@@Z 1001b690 f   ComTempArticle.obj
 0001:0001a720       ?AddRef@?$CComObject@VCComTextField@@@ATL@@UAGKXZ 1001b720 f i ComTempArticle.obj
 0001:0001a760       ?AttachToDictionary@CComTempArticle@@UAGJPAUIDictionary@@@Z 1001b760 f   ComTempArticle.obj
 0001:0001a7c0       ?BuildCortegeList@CComTempArticle@@UAGJXZ 1001b7c0 f   ComTempArticle.obj
 0001:0001a810       ?GetCortege@CComTempArticle@@UAGJJPAE0000@Z 1001b810 f   ComTempArticle.obj
 0001:0001a890       ?GetCortegeItem@CComTempArticle@@UAGJJEPAJ@Z 1001b890 f   ComTempArticle.obj
 0001:0001a8f0       ?GetCortegesSize@CComTempArticle@@UAGJPAJ@Z 1001b8f0 f   ComTempArticle.obj
 0001:0001a940       ?GetFieldsSize@CComTempArticle@@UAGJPAG@Z 1001b940 f   ComTempArticle.obj
 0001:0001a990       ?GetIDsOfNames@?$IDispatchImpl@UITextField@@$1?IID_ITextField@@3U_GUID@@B$1?LIBID_STRUCTDICTLib@@3U3@B$00$0A@VCComTypeInfoHolder@ATL@@@ATL@@UAGJABU_GUID@@PAPA_WIKPAJ@Z 1001b990 f i ComTempArticle.obj
 0001:0001a9f0       ?GetTypeInfo@?$IDispatchImpl@UITextField@@$1?IID_ITextField@@3U_GUID@@B$1?LIBID_STRUCTDICTLib@@3U3@B$00$0A@VCComTypeInfoHolder@ATL@@@ATL@@UAGJIKPAPAUITypeInfo@@@Z 1001b9f0 f i ComTempArticle.obj
 0001:0001aa40       ?GetTypeInfoCount@?$IDispatchImpl@UITextField@@$1?IID_ITextField@@3U_GUID@@B$1?LIBID_STRUCTDICTLib@@3U3@B$00$0A@VCComTypeInfoHolder@ATL@@@ATL@@UAGJPAI@Z 1001ba40 f i ComTempArticle.obj
 0001:0001aa80       ?IntersectByFields@CComTempArticle@@UAGJPAUITempArticle@@PAJ@Z 1001ba80 f   ComTempArticle.obj
 0001:0001ab00       ?Invoke@?$IDispatchImpl@UITextField@@$1?IID_ITextField@@3U_GUID@@B$1?LIBID_STRUCTDICTLib@@3U3@B$00$0A@VCComTypeInfoHolder@ATL@@@ATL@@UAGJJABU_GUID@@KGPAUtagDISPPARAMS@@PAUtagVARIANT@@PAUtagEXCEPINFO@@PAI@Z 1001bb00 f i ComTempArticle.obj
 0001:0001ab70       ?IsModified@CComTempArticle@@UAGJPAH@Z 1001bb70 f   ComTempArticle.obj
 0001:0001ac00       ?IsPartOf@CComTempArticle@@UAGJPAUITempArticle@@HPAH@Z 1001bc00 f   ComTempArticle.obj
 0001:0001aca0       ?MarkUp@CComTempArticle@@UAGJXZ 1001bca0 f   ComTempArticle.obj
 0001:0001acf0       ?QueryInterface@?$CComObject@VCComTextField@@@ATL@@UAGJABU_GUID@@PAPAX@Z 1001bcf0 f i ComTempArticle.obj
 0001:0001ad40       ?ReadFromDictionary@CComTempArticle@@UAGJGHH@Z 1001bd40 f   ComTempArticle.obj
 0001:0001add0       ?Release@?$CComObject@VCComTextField@@@ATL@@UAGKXZ 1001bdd0 f i ComTempArticle.obj
 0001:0001aeb0       ?WriteToDictionary@CComTempArticle@@UAGJXZ 1001beb0 f   ComTempArticle.obj
 0001:0001af00       ?_GetEntries@CComTextField@@SGPBU_ATL_INTMAP_ENTRY@ATL@@XZ 1001bf00 f i ComTempArticle.obj
 0001:0001af40       ?_InternalQueryInterface@CComTextField@@QAEJABU_GUID@@PAPAX@Z 1001bf40 f i ComTempArticle.obj
 0001:0001af90       ?get_ArticleStr@CComTempArticle@@UAGJPAPA_W@Z 1001bf90 f   ComTempArticle.obj
 0001:0001b030       ?get_ErrorLine@CComTempArticle@@UAGJPAH@Z 1001c030 f   ComTempArticle.obj
 0001:0001b070       ?get_Fields@CComTempArticle@@UAGJJPAPAUITextField@@@Z 1001c070 f   ComTempArticle.obj
 0001:0001b130       ?get_LastError@CComTempArticle@@UAGJPAPA_W@Z 1001c130 f   ComTempArticle.obj
 0001:0001b1d0       ?get_MeanNum@CComTempArticle@@UAGJPAE@Z 1001c1d0 f   ComTempArticle.obj
 0001:0001b210       ?get_UnitStr@CComTempArticle@@UAGJPAPA_W@Z 1001c210 f   ComTempArticle.obj
 0001:0001b2b0       ?put_ArticleStr@CComTempArticle@@UAGJPA_W@Z 1001c2b0 f   ComTempArticle.obj
 0001:0001b370       ?size@?$vector@UCTextField@@V?$allocator@UCTextField@@@std@@@std@@QBEIXZ 1001c370 f i ComTempArticle.obj
 0001:0001b3b0       ?get_BracketLeafId@CComTextField@@UAGJPAE@Z 1001c3b0 f   ComTextField.obj
 0001:0001b3f0       ?get_EndLine@CComTextField@@UAGJPAK@Z 1001c3f0 f   ComTextField.obj
 0001:0001b430       ?get_FieldNo@CComTextField@@UAGJPAE@Z 1001c430 f   ComTextField.obj
 0001:0001b470       ?get_LeafId@CComTextField@@UAGJPAE@Z 1001c470 f   ComTextField.obj
 0001:0001b4b0       ?get_StartLine@CComTextField@@UAGJPAK@Z 1001c4b0 f   ComTextField.obj
 0001:0001b4f0       ?put_BracketLeafId@CComTextField@@UAGJE@Z 1001c4f0 f   ComTextField.obj
 0001:0001b530       ?put_EndLine@CComTextField@@UAGJK@Z 1001c530 f   ComTextField.obj
 0001:0001b570       ?put_FieldNo@CComTextField@@UAGJE@Z 1001c570 f   ComTextField.obj
 0001:0001b5b0       ?put_LeafId@CComTextField@@UAGJE@Z 1001c5b0 f   ComTextField.obj
 0001:0001b5f0       ?put_StartLine@CComTextField@@UAGJK@Z 1001c5f0 f   ComTextField.obj
 0001:0001b630       ??0?$CSimpleArray@GV?$CSimpleArrayEqualHelper@G@ATL@@@ATL@@QAE@XZ 1001c630 f i StdPch.obj
 0001:0001b680       ??0?$CTraceCategoryEx@$03$0A@@ATL@@QAE@PBD@Z 1001c680 f i StdPch.obj
 0001:0001b6d0       ??0?$CTraceCategoryEx@$0BA@$0A@@ATL@@QAE@PBD@Z 1001c6d0 f i StdPch.obj
 0001:0001b720       ??0?$CTraceCategoryEx@$0BAA@$0A@@ATL@@QAE@PBD@Z 1001c720 f i StdPch.obj
 0001:0001b770       ??0?$CTraceCategoryEx@$0BAAA@$0A@@ATL@@QAE@PBD@Z 1001c770 f i StdPch.obj
 0001:0001b7c0       ??0?$CTraceCategoryEx@$0BAAAA@$0A@@ATL@@QAE@PBD@Z 1001c7c0 f i StdPch.obj
 0001:0001b810       ??0?$CTraceCategoryEx@$0BAAAAA@$0A@@ATL@@QAE@PBD@Z 1001c810 f i StdPch.obj
 0001:0001b860       ??0?$CTraceCategoryEx@$0CA@$0A@@ATL@@QAE@PBD@Z 1001c860 f i StdPch.obj
 0001:0001b8b0       ??0?$CTraceCategoryEx@$0CAA@$0A@@ATL@@QAE@PBD@Z 1001c8b0 f i StdPch.obj
 0001:0001b900       ??0?$CTraceCategoryEx@$0CAAAA@$0A@@ATL@@QAE@PBD@Z 1001c900 f i StdPch.obj
 0001:0001b950       ??0?$CTraceCategoryEx@$0CAAAAA@$0A@@ATL@@QAE@PBD@Z 1001c950 f i StdPch.obj
 0001:0001b9a0       ??0?$CTraceCategoryEx@$0EA@$0A@@ATL@@QAE@PBD@Z 1001c9a0 f i StdPch.obj
 0001:0001b9f0       ??0?$CTraceCategoryEx@$0EAA@$0A@@ATL@@QAE@PBD@Z 1001c9f0 f i StdPch.obj
 0001:0001ba40       ??0?$CTraceCategoryEx@$0EAAA@$0A@@ATL@@QAE@PBD@Z 1001ca40 f i StdPch.obj
 0001:0001ba90       ??0?$CTraceCategoryEx@$0EAAAA@$0A@@ATL@@QAE@PBD@Z 1001ca90 f i StdPch.obj
 0001:0001bae0       ??0?$CTraceCategoryEx@$0EAAAAA@$0A@@ATL@@QAE@PBD@Z 1001cae0 f i StdPch.obj
 0001:0001bb30       ??0?$CTraceCategoryEx@$0IA@$0A@@ATL@@QAE@PBD@Z 1001cb30 f i StdPch.obj
 0001:0001bb80       ??0?$CTraceCategoryEx@$0IAA@$0A@@ATL@@QAE@PBD@Z 1001cb80 f i StdPch.obj
 0001:0001bbd0       ??0?$CTraceCategoryEx@$0IAAA@$0A@@ATL@@QAE@PBD@Z 1001cbd0 f i StdPch.obj
 0001:0001bc20       ??0?$CTraceCategoryEx@$0IAAAA@$0A@@ATL@@QAE@PBD@Z 1001cc20 f i StdPch.obj
 0001:0001bc70       ??0CAtlComModule@ATL@@QAE@XZ 1001cc70 f i StdPch.obj
 0001:0001bd60       ??0CAtlWinModule@ATL@@QAE@XZ 1001cd60 f i StdPch.obj
 0001:0001be10       ??0CComCriticalSection@ATL@@QAE@XZ 1001ce10 f i StdPch.obj
 0001:0001be60       ??0_ATL_COM_MODULE70@ATL@@QAE@XZ 1001ce60 f i StdPch.obj
 0001:0001beb0       ??0_ATL_WIN_MODULE70@ATL@@QAE@XZ 1001ceb0 f i StdPch.obj
 0001:0001bf40       ??1?$CSimpleArray@GV?$CSimpleArrayEqualHelper@G@ATL@@@ATL@@QAE@XZ 1001cf40 f i StdPch.obj
 0001:0001bf80       ??1CAtlComModule@ATL@@QAE@XZ 1001cf80 f i StdPch.obj
 0001:0001c000       ??1CAtlWinModule@ATL@@QAE@XZ 1001d000 f i StdPch.obj
 0001:0001c080       ??1CComCriticalSection@ATL@@QAE@XZ 1001d080 f i StdPch.obj
 0001:0001c0b0       ??1_ATL_COM_MODULE70@ATL@@QAE@XZ 1001d0b0 f i StdPch.obj
 0001:0001c100       ??1_ATL_WIN_MODULE70@ATL@@QAE@XZ 1001d100 f i StdPch.obj
 0001:0001c190       ??A?$CSimpleArray@GV?$CSimpleArrayEqualHelper@G@ATL@@@ATL@@QAEAAGH@Z 1001d190 f i StdPch.obj
 0001:0001c240       ??B?$CTraceCategoryEx@$0CA@$0A@@ATL@@QAEIXZ 1001d240 f i StdPch.obj
 0001:0001c270       ?AtlWinModuleInit@ATL@@YGJPAU_ATL_WIN_MODULE70@1@@Z 1001d270 f i StdPch.obj
 0001:0001c360       ?AtlWinModuleTerm@ATL@@YGJPAU_ATL_WIN_MODULE70@1@PAUHINSTANCE__@@@Z 1001d360 f i StdPch.obj
 0001:0001c430       ?GetSize@?$CSimpleArray@GV?$CSimpleArrayEqualHelper@G@ATL@@@ATL@@QBEHXZ 1001d430 f i StdPch.obj
 0001:0001c460       ?Init@CComCriticalSection@ATL@@QAEJXZ 1001d460 f i StdPch.obj
 0001:0001c4d0       ?RemoveAll@?$CSimpleArray@GV?$CSimpleArrayEqualHelper@G@ATL@@@ATL@@QAEXXZ 1001d4d0 f i StdPch.obj
 0001:0001c570       ?Term@CAtlComModule@ATL@@QAEXXZ 1001d570 f i StdPch.obj
 0001:0001c640       ?Term@CAtlWinModule@ATL@@QAEXXZ 1001d640 f i StdPch.obj
 0001:0001c690       ?Term@CComCriticalSection@ATL@@QAEJXZ 1001d690 f i StdPch.obj
 0001:0001c6e0       ?_AtlInitializeCriticalSectionEx@ATL@@YAHPAU_RTL_CRITICAL_SECTION@@KK@Z 1001d6e0 f i StdPch.obj
 0001:0001c730       ?_AtlRaiseException@ATL@@YAXKK@Z 1001d730 f i StdPch.obj
 0001:0001c780       ?GetObjectDescription@?$CComCoClass@VCComDictionary@@$1?CLSID_Dictionary@@3U_GUID@@B@ATL@@SGPBDXZ 1001d780 f i StructDict.obj
 0001:0001c7b0       ?CreateInstance@?$CComCreator@V?$CComObjectCached@VCComClassFactory@ATL@@@ATL@@@ATL@@SGJPAXABU_GUID@@PAPAX@Z 1001d7b0 f i StructDict.obj
 0001:0001c9e0       ?CreateInstance@?$CComCreator2@V?$CComCreator@V?$CComObject@VCComSignat@@@ATL@@@ATL@@V?$CComCreator@V?$CComAggObject@VCComSignat@@@ATL@@@2@@ATL@@SGJPAXABU_GUID@@PAPAX@Z 1001d9e0 f i StructDict.obj
 0001:0001ca90       ?CreateInstance@?$CComCreator2@V?$CComCreator@V?$CComObject@VCComDictionary@@@ATL@@@ATL@@V?$CComCreator@V?$CComAggObject@VCComDictionary@@@ATL@@@2@@ATL@@SGJPAXABU_GUID@@PAPAX@Z 1001da90 f i StructDict.obj
 0001:0001cb40       ?CreateInstance@?$CComCreator2@V?$CComCreator@V?$CComObject@VCComDomen@@@ATL@@@ATL@@V?$CComCreator@V?$CComAggObject@VCComDomen@@@ATL@@@2@@ATL@@SGJPAXABU_GUID@@PAPAX@Z 1001db40 f i StructDict.obj
 0001:0001cbf0       ?CreateInstance@?$CComCreator2@V?$CComCreator@V?$CComObject@VCComField@@@ATL@@@ATL@@V?$CComCreator@V?$CComAggObject@VCComField@@@ATL@@@2@@ATL@@SGJPAXABU_GUID@@PAPAX@Z 1001dbf0 f i StructDict.obj
 0001:0001cca0       ?CreateInstance@?$CComCreator2@V?$CComCreator@V?$CComObject@VCComTempArticle@@@ATL@@@ATL@@V?$CComCreator@V?$CComAggObject@VCComTempArticle@@@ATL@@@2@@ATL@@SGJPAXABU_GUID@@PAPAX@Z 1001dca0 f i StructDict.obj
 0001:0001cd50       ?CreateInstance@?$CComCreator2@V?$CComCreator@V?$CComObject@VCComTextField@@@ATL@@@ATL@@V?$CComCreator@V?$CComAggObject@VCComTextField@@@ATL@@@2@@ATL@@SGJPAXABU_GUID@@PAPAX@Z 1001dd50 f i StructDict.obj
 0001:0001ce00       ?UpdateRegistry@CComDictionary@@SGJH@Z 1001de00 f i StructDict.obj
 0001:0001ce50       ?GetObjectDescription@?$CComCoClass@VCComSignat@@$1?CLSID_Signat@@3U_GUID@@B@ATL@@SGPBDXZ 1001de50 f i StructDict.obj
 0001:0001ce80       ?UpdateRegistry@CComSignat@@SGJH@Z 1001de80 f i StructDict.obj
 0001:0001ced0       ?GetObjectDescription@?$CComCoClass@VCComTempArticle@@$1?CLSID_TempArticle@@3U_GUID@@B@ATL@@SGPBDXZ 1001ded0 f i StructDict.obj
 0001:0001cf00       ?GetObjectDescription@?$CComCoClass@VCComDomen@@$1?CLSID_Domain@@3U_GUID@@B@ATL@@SGPBDXZ 1001df00 f i StructDict.obj
 0001:0001cf30       ?UpdateRegistry@CComTempArticle@@SGJH@Z 1001df30 f i StructDict.obj
 0001:0001cf80       ?UpdateRegistry@CComDomen@@SGJH@Z 1001df80 f i StructDict.obj
 0001:0001cfd0       ?GetObjectDescription@?$CComCoClass@VCComTextField@@$1?CLSID_TextField@@3U_GUID@@B@ATL@@SGPBDXZ 1001dfd0 f i StructDict.obj
 0001:0001d000       ?GetObjectDescription@?$CComCoClass@VCComField@@$1?CLSID_Field@@3U_GUID@@B@ATL@@SGPBDXZ 1001e000 f i StructDict.obj
 0001:0001d030       ?ObjectMain@CComObjectRootBase@ATL@@SGX_N@Z 1001e030 f i StructDict.obj
 0001:0001d060       ?GetCategoryMap@CComObjectRootBase@ATL@@SAPBU_ATL_CATMAP_ENTRY@2@XZ 1001e060 f i StructDict.obj
 0001:0001d090       ?UpdateRegistry@CComTextField@@SGJH@Z 1001e090 f i StructDict.obj
 0001:0001d0e0       ?UpdateRegistry@CComField@@SGJH@Z 1001e0e0 f i StructDict.obj
 0001:0001d130       ??$?2PAD@?$Wrapper@PAD@?$CSimpleMap@PADPA_WVCExpansionVectorEqualHelper@ATL@@@ATL@@SAPAXIPAPAD@Z 1001e130 f i StructDict.obj
 0001:0001d160       ??$?2PA_W@?$Wrapper@PA_W@?$CSimpleMap@PADPA_WVCExpansionVectorEqualHelper@ATL@@@ATL@@SAPAXIPAPA_W@Z 1001e160 f i StructDict.obj
 0001:0001d190       ??$?3PAD@?$Wrapper@PAD@?$CSimpleMap@PADPA_WVCExpansionVectorEqualHelper@ATL@@@ATL@@SAXPAXPAPAD@Z 1001e190 f i StructDict.obj
 0001:0001d1c0       ??$?3PA_W@?$Wrapper@PA_W@?$CSimpleMap@PADPA_WVCExpansionVectorEqualHelper@ATL@@@ATL@@SAXPAXPAPA_W@Z 1001e1c0 f i StructDict.obj
 0001:0001d1f0       ??$AtlMultiply@I@ATL@@YAJPAIII@Z 1001e1f0 f i StructDict.obj
 0001:0001d260       ??$AtlMultiply@K@ATL@@YAJPAKKK@Z 1001e260 f i StructDict.obj
 0001:0001d2d0       ??$AtlMultiplyThrow@I@ATL@@YAIII@Z 1001e2d0 f i StructDict.obj
 0001:0001d360       ??0?$CAtlModuleT@VCComModule@ATL@@@ATL@@QAE@XZ 1001e360 f i StructDict.obj
 0001:0001d3b0       ??0?$CAutoVectorPtr@D@ATL@@QAE@XZ 1001e3b0 f i StructDict.obj
 0001:0001d3f0       ??0?$CAutoVectorPtr@_W@ATL@@QAE@XZ 1001e3f0 f i StructDict.obj
 0001:0001d430       ??0?$CComAggObject@VCComDictionary@@@ATL@@QAE@PAX@Z 1001e430 f i StructDict.obj
 0001:0001d4f0       ??0?$CComAggObject@VCComDomen@@@ATL@@QAE@PAX@Z 1001e4f0 f i StructDict.obj
 0001:0001d5b0       ??0?$CComAggObject@VCComField@@@ATL@@QAE@PAX@Z 1001e5b0 f i StructDict.obj
 0001:0001d670       ??0?$CComAggObject@VCComSignat@@@ATL@@QAE@PAX@Z 1001e670 f i StructDict.obj
 0001:0001d730       ??0?$CComAggObject@VCComTempArticle@@@ATL@@QAE@PAX@Z 1001e730 f i StructDict.obj
 0001:0001d7f0       ??0?$CComAggObject@VCComTextField@@@ATL@@QAE@PAX@Z 1001e7f0 f i StructDict.obj
 0001:0001d8b0       ??0?$CComContainedObject@VCComDictionary@@@ATL@@QAE@PAX@Z 1001e8b0 f i StructDict.obj
 0001:0001d920       ??0?$CComContainedObject@VCComDomen@@@ATL@@QAE@PAX@Z 1001e920 f i StructDict.obj
 0001:0001d980       ??0?$CComContainedObject@VCComField@@@ATL@@QAE@PAX@Z 1001e980 f i StructDict.obj
 0001:0001d9e0       ??0?$CComContainedObject@VCComSignat@@@ATL@@QAE@PAX@Z 1001e9e0 f i StructDict.obj
 0001:0001da40       ??0?$CComContainedObject@VCComTempArticle@@@ATL@@QAE@PAX@Z 1001ea40 f i StructDict.obj
 0001:0001daa0       ??0?$CComContainedObject@VCComTextField@@@ATL@@QAE@PAX@Z 1001eaa0 f i StructDict.obj
 0001:0001db00       ??0?$CComObject@VCComDictionary@@@ATL@@QAE@PAX@Z 1001eb00 f i StructDict.obj
 0001:0001dbb0       ??0?$CComObjectCached@VCComClassFactory@ATL@@@ATL@@QAE@PAX@Z 1001ebb0 f i StructDict.obj
 0001:0001dc00       ??0?$CComObjectRootEx@VCComMultiThreadModel@ATL@@@ATL@@QAE@XZ 1001ec00 f i StructDict.obj
 0001:0001dc90       ??0?$CComPtr@UICatRegister@@@ATL@@QAE@XZ 1001ec90 f i StructDict.obj
 0001:0001dce0       ??0?$CComPtrBase@UICatRegister@@@ATL@@IAE@XZ 1001ece0 f i StructDict.obj
 0001:0001dd20       ??0?$CSimpleMap@PADPA_WVCExpansionVectorEqualHelper@ATL@@@ATL@@QAE@XZ 1001ed20 f i StructDict.obj
 0001:0001dd70       ??0?$CTempBuffer@D$0BAA@VCCRTAllocator@ATL@@@ATL@@QAE@XZ 1001ed70 f i StructDict.obj
 0001:0001ddb0       ??0?$CTempBuffer@D$0EAA@VCCRTAllocator@ATL@@@ATL@@QAE@XZ 1001edb0 f i StructDict.obj
 0001:0001ddf0       ??0?$CTempBuffer@E$0BAA@VCCRTAllocator@ATL@@@ATL@@QAE@XZ 1001edf0 f i StructDict.obj
 0001:0001de30       ??0?$IDispatchImpl@UIDictionary@@$1?IID_IDictionary@@3U_GUID@@B$1?LIBID_STRUCTDICTLib@@3U3@B$00$0A@VCComTypeInfoHolder@ATL@@@ATL@@QAE@XZ 1001ee30 f i StructDict.obj
 0001:0001de80       ??0?$Wrapper@PAD@?$CSimpleMap@PADPA_WVCExpansionVectorEqualHelper@ATL@@@ATL@@QAE@ABQAD@Z 1001ee80 f i StructDict.obj
 0001:0001dec0       ??0?$Wrapper@PA_W@?$CSimpleMap@PADPA_WVCExpansionVectorEqualHelper@ATL@@@ATL@@QAE@ABQA_W@Z 1001eec0 f i StructDict.obj
 0001:0001df00       ??0CAtlModule@ATL@@QAE@XZ  1001ef00 f i StructDict.obj
 0001:0001e040       ??0CComAutoDeleteCriticalSection@ATL@@QAE@XZ 1001f040 f i StructDict.obj
 0001:0001e090       ??0CComClassFactory@ATL@@QAE@XZ 1001f090 f i StructDict.obj
 0001:0001e0f0       ??0CComDictionary@@QAE@XZ  1001f0f0 f i StructDict.obj
 0001:0001e190       ??0CComModule@ATL@@QAE@XZ  1001f190 f i StructDict.obj
 0001:0001e220       ??0CComSafeDeleteCriticalSection@ATL@@QAE@XZ 1001f220 f i StructDict.obj
 0001:0001e270       ??0CExpansionVector@ATL@@QAE@XZ 1001f270 f i StructDict.obj
 0001:0001e2c0       ??0CParseBuffer@CRegParser@ATL@@QAE@H@Z 1001f2c0 f i StructDict.obj
 0001:0001e350       ??0CRegKey@ATL@@QAE@PAUHKEY__@@@Z 1001f350 f i StructDict.obj
 0001:0001e3a0       ??0CRegKey@ATL@@QAE@PAVCAtlTransactionManager@1@@Z 1001f3a0 f i StructDict.obj
 0001:0001e3f0       ??0CRegObject@ATL@@QAE@XZ  1001f3f0 f i StructDict.obj
 0001:0001e450       ??0CRegParser@ATL@@QAE@PAVCRegObject@1@@Z 1001f450 f i StructDict.obj
 0001:0001e4a0       ??0IClassFactory@@QAE@XZ   1001f4a0 f i StructDict.obj
 0001:0001e4f0       ??0IDictionary@@QAE@XZ     1001f4f0 f i StructDict.obj
 0001:0001e540       ??0IRegistrarBase@@QAE@XZ  1001f540 f i StructDict.obj
 0001:0001e590       ??0_ATL_MODULE70@ATL@@QAE@XZ 1001f590 f i StructDict.obj
 0001:0001e5e0       ??1?$CAtlModuleT@VCComModule@ATL@@@ATL@@UAE@XZ 1001f5e0 f i StructDict.obj
 0001:0001e620       ??1?$CAutoVectorPtr@D@ATL@@QAE@XZ 1001f620 f i StructDict.obj
 0001:0001e660       ??1?$CAutoVectorPtr@_W@ATL@@QAE@XZ 1001f660 f i StructDict.obj
 0001:0001e6a0       ??1?$CComAggObject@VCComDictionary@@@ATL@@UAE@XZ 1001f6a0 f i StructDict.obj
 0001:0001e760       ??1?$CComAggObject@VCComDomen@@@ATL@@UAE@XZ 1001f760 f i StructDict.obj
 0001:0001e820       ??1?$CComAggObject@VCComField@@@ATL@@UAE@XZ 1001f820 f i StructDict.obj
 0001:0001e8e0       ??1?$CComAggObject@VCComSignat@@@ATL@@UAE@XZ 1001f8e0 f i StructDict.obj
 0001:0001e9a0       ??1?$CComAggObject@VCComTempArticle@@@ATL@@UAE@XZ 1001f9a0 f i StructDict.obj
 0001:0001ea60       ??1?$CComAggObject@VCComTextField@@@ATL@@UAE@XZ 1001fa60 f i StructDict.obj
 0001:0001eb20       ??1?$CComContainedObject@VCComDictionary@@@ATL@@QAE@XZ 1001fb20 f i StructDict.obj
 0001:0001eb60       ??1?$CComContainedObject@VCComDomen@@@ATL@@QAE@XZ 1001fb60 f i StructDict.obj
 0001:0001eba0       ??1?$CComContainedObject@VCComField@@@ATL@@QAE@XZ 1001fba0 f i StructDict.obj
 0001:0001ebe0       ??1?$CComContainedObject@VCComSignat@@@ATL@@QAE@XZ 1001fbe0 f i StructDict.obj
 0001:0001ec20       ??1?$CComContainedObject@VCComTempArticle@@@ATL@@QAE@XZ 1001fc20 f i StructDict.obj
 0001:0001ec60       ??1?$CComContainedObject@VCComTextField@@@ATL@@QAE@XZ 1001fc60 f i StructDict.obj
 0001:0001eca0       ??1?$CComObject@VCComDictionary@@@ATL@@UAE@XZ 1001fca0 f i StructDict.obj
 0001:0001ed60       ??1?$CComObjectCached@VCComClassFactory@ATL@@@ATL@@UAE@XZ 1001fd60 f i StructDict.obj
 0001:0001ee00       ??1?$CComObjectRootEx@VCComMultiThreadModel@ATL@@@ATL@@QAE@XZ 1001fe00 f i StructDict.obj
 0001:0001ee50       ??1?$CComPtr@UICatRegister@@@ATL@@QAE@XZ 1001fe50 f i StructDict.obj
 0001:0001ee90       ??1?$CComPtrBase@UICatRegister@@@ATL@@QAE@XZ 1001fe90 f i StructDict.obj
 0001:0001eef0       ??1?$CSimpleMap@PADPA_WVCExpansionVectorEqualHelper@ATL@@@ATL@@QAE@XZ 1001fef0 f i StructDict.obj
 0001:0001ef30       ??1?$CTempBuffer@D$0BAA@VCCRTAllocator@ATL@@@ATL@@QAE@XZ 1001ff30 f i StructDict.obj
 0001:0001ef80       ??1?$CTempBuffer@D$0EAA@VCCRTAllocator@ATL@@@ATL@@QAE@XZ 1001ff80 f i StructDict.obj
 0001:0001efd0       ??1?$CTempBuffer@E$0BAA@VCCRTAllocator@ATL@@@ATL@@QAE@XZ 1001ffd0 f i StructDict.obj
 0001:0001f020       ??1CAtlModule@ATL@@UAE@XZ  10020020 f i StructDict.obj
 0001:0001f070       ??1CComAutoDeleteCriticalSection@ATL@@QAE@XZ 10020070 f i StructDict.obj
 0001:0001f0b0       ??1CComClassFactory@ATL@@UAE@XZ 100200b0 f i StructDict.obj
 0001:0001f100       ??1CComDictionary@@QAE@XZ  10020100 f i StructDict.obj
 0001:0001f190       ??1CComModule@ATL@@UAE@XZ  10020190 f i StructDict.obj
 0001:0001f1e0       ??1CComSafeDeleteCriticalSection@ATL@@QAE@XZ 100201e0 f i StructDict.obj
 0001:0001f240       ??1CDictionary@@QAE@XZ     10020240 f i StructDict.obj
 0001:0001f280       ??1CExpansionVector@ATL@@QAE@XZ 10020280 f i StructDict.obj
 0001:0001f300       ??1CParseBuffer@CRegParser@ATL@@QAE@XZ 10020300 f i StructDict.obj
 0001:0001f350       ??1CRegKey@ATL@@QAE@XZ     10020350 f i StructDict.obj
 0001:0001f390       ??1CRegObject@ATL@@UAE@XZ  10020390 f i StructDict.obj
 0001:0001f420       ??1_ATL_MODULE70@ATL@@QAE@XZ 10020420 f i StructDict.obj
 0001:0001f470       ??7CComBSTR@ATL@@QBE_NXZ   10020470 f i StructDict.obj
 0001:0001f4c0       ??8CComBSTR@ATL@@QBE_NH@Z  100204c0 f i StructDict.obj
 0001:0001f540       ??9CComBSTR@ATL@@QBE_NH@Z  10020540 f i StructDict.obj
 0001:0001f5b0       ??B?$CComPtrBase@UITypeLib@@@ATL@@QBEPAUITypeLib@@XZ 100205b0 f i StructDict.obj
 0001:0001f5e0       ??B?$CTempBuffer@D$0BAA@VCCRTAllocator@ATL@@@ATL@@QBEPADXZ 100205e0 f i StructDict.obj
 0001:0001f610       ??B?$CTempBuffer@D$0EAA@VCCRTAllocator@ATL@@@ATL@@QBEPADXZ 10020610 f i StructDict.obj
 0001:0001f640       ??B?$CTempBuffer@E$0BAA@VCCRTAllocator@ATL@@@ATL@@QBEPAEXZ 10020640 f i StructDict.obj
 0001:0001f670       ??B?$CTraceCategoryEx@$07$0A@@ATL@@QAEIXZ 10020670 f i StructDict.obj
 0001:0001f6a0       ??BCRegKey@ATL@@QBEPAUHKEY__@@XZ 100206a0 f i StructDict.obj
 0001:0001f6d0       ??C?$CComPtrBase@UICatRegister@@@ATL@@QBEPAV?$_NoAddRefReleaseOnCComPtr@UICatRegister@@@1@XZ 100206d0 f i StructDict.obj
 0001:0001f750       ??I?$CComPtrBase@UICatRegister@@@ATL@@QAEPAPAUICatRegister@@XZ 10020750 f i StructDict.obj
 0001:0001f7d0       ??_E?$CComAggObject@VCComDictionary@@@ATL@@UAEPAXI@Z 100207d0 f i StructDict.obj
 0001:0001f7d0       ??_G?$CComAggObject@VCComDictionary@@@ATL@@UAEPAXI@Z 100207d0 f i StructDict.obj
 0001:0001f830       ??_G?$CComAggObject@VCComDomen@@@ATL@@UAEPAXI@Z 10020830 f i StructDict.obj
 0001:0001f830       ??_E?$CComAggObject@VCComDomen@@@ATL@@UAEPAXI@Z 10020830 f i StructDict.obj
 0001:0001f890       ??_G?$CComAggObject@VCComField@@@ATL@@UAEPAXI@Z 10020890 f i StructDict.obj
 0001:0001f890       ??_E?$CComAggObject@VCComField@@@ATL@@UAEPAXI@Z 10020890 f i StructDict.obj
 0001:0001f8f0       ??_E?$CComAggObject@VCComSignat@@@ATL@@UAEPAXI@Z 100208f0 f i StructDict.obj
 0001:0001f8f0       ??_G?$CComAggObject@VCComSignat@@@ATL@@UAEPAXI@Z 100208f0 f i StructDict.obj
 0001:0001f950       ??_G?$CComAggObject@VCComTempArticle@@@ATL@@UAEPAXI@Z 10020950 f i StructDict.obj
 0001:0001f950       ??_E?$CComAggObject@VCComTempArticle@@@ATL@@UAEPAXI@Z 10020950 f i StructDict.obj
 0001:0001f9b0       ??_G?$CComAggObject@VCComTextField@@@ATL@@UAEPAXI@Z 100209b0 f i StructDict.obj
 0001:0001f9b0       ??_E?$CComAggObject@VCComTextField@@@ATL@@UAEPAXI@Z 100209b0 f i StructDict.obj
 0001:0001fa10       ??_E?$CComObject@VCComDictionary@@@ATL@@UAEPAXI@Z 10020a10 f i StructDict.obj
 0001:0001fa10       ??_G?$CComObject@VCComDictionary@@@ATL@@UAEPAXI@Z 10020a10 f i StructDict.obj
 0001:0001fa70       ??_G?$CComObjectCached@VCComClassFactory@ATL@@@ATL@@UAEPAXI@Z 10020a70 f i StructDict.obj
 0001:0001fa70       ??_E?$CComObjectCached@VCComClassFactory@ATL@@@ATL@@UAEPAXI@Z 10020a70 f i StructDict.obj
 0001:0001fad0       ??_GCComClassFactory@ATL@@UAEPAXI@Z 10020ad0 f i StructDict.obj
 0001:0001fad0       ??_ECComClassFactory@ATL@@UAEPAXI@Z 10020ad0 f i StructDict.obj
 0001:0001fb30       ??_GCComModule@ATL@@UAEPAXI@Z 10020b30 f i StructDict.obj
 0001:0001fb30       ??_ECComModule@ATL@@UAEPAXI@Z 10020b30 f i StructDict.obj
 0001:0001fb90       ??_ECRegObject@ATL@@UAEPAXI@Z 10020b90 f i StructDict.obj
 0001:0001fb90       ??_GCRegObject@ATL@@UAEPAXI@Z 10020b90 f i StructDict.obj
 0001:0001fbf0       ?Add@?$CSimpleMap@PADPA_WVCExpansionVectorEqualHelper@ATL@@@ATL@@QAEHABQADABQA_W@Z 10020bf0 f i StructDict.obj
 0001:0001fcd0       ?Add@CExpansionVector@ATL@@QAEHPBDPB_W@Z 10020cd0 f i StructDict.obj
 0001:0001ffe0       ?AddChar@CParseBuffer@CRegParser@ATL@@QAEHPBD@Z 10020fe0 f i StructDict.obj
 0001:00020050       ?AddCommonRGSReplacements@?$CAtlModuleT@VCComModule@ATL@@@ATL@@UAEJPAUIRegistrarBase@@@Z 10021050 f i StructDict.obj
 0001:000200b0       ?AddRef@?$CComAggObject@VCComDictionary@@@ATL@@UAGKXZ 100210b0 f i StructDict.obj
 0001:000200f0       ?AddRef@?$CComAggObject@VCComDomen@@@ATL@@UAGKXZ 100210f0 f i StructDict.obj
 0001:00020130       ?AddRef@?$CComAggObject@VCComField@@@ATL@@UAGKXZ 10021130 f i StructDict.obj
 0001:00020170       ?AddRef@?$CComAggObject@VCComSignat@@@ATL@@UAGKXZ 10021170 f i StructDict.obj
 0001:000201b0       ?AddRef@?$CComAggObject@VCComTempArticle@@@ATL@@UAGKXZ 100211b0 f i StructDict.obj
 0001:000201f0       ?AddRef@?$CComAggObject@VCComTextField@@@ATL@@UAGKXZ 100211f0 f i StructDict.obj
 0001:00020230       ?AddRef@?$CComContainedObject@VCComDictionary@@@ATL@@UAGKXZ 10021230 f i StructDict.obj
 0001:00020280       ?AddRef@?$CComContainedObject@VCComDomen@@@ATL@@UAGKXZ 10021280 f i StructDict.obj
 0001:000202c0       ?AddRef@?$CComContainedObject@VCComField@@@ATL@@UAGKXZ 100212c0 f i StructDict.obj
 0001:00020300       ?AddRef@?$CComContainedObject@VCComSignat@@@ATL@@UAGKXZ 10021300 f i StructDict.obj
 0001:00020340       ?AddRef@?$CComContainedObject@VCComTempArticle@@@ATL@@UAGKXZ 10021340 f i StructDict.obj
 0001:00020380       ?AddRef@?$CComContainedObject@VCComTextField@@@ATL@@UAGKXZ 10021380 f i StructDict.obj
 0001:000203c0       ?AddRef@?$CComObject@VCComDictionary@@@ATL@@UAGKXZ 100213c0 f i StructDict.obj
 0001:00020410       ?AddRef@?$CComObjectCached@VCComClassFactory@ATL@@@ATL@@UAGKXZ 10021410 f i StructDict.obj
 0001:00020480       ?AddRef@CRegObject@ATL@@UAGKXZ 10021480 f i StructDict.obj
 0001:00020500       ?AddReplacement@CRegObject@ATL@@UAGJPB_W0@Z 10021500 f i StructDict.obj
 0001:000207c0       ?AddString@CParseBuffer@CRegParser@ATL@@QAEHPB_W@Z 100217c0 f i StructDict.obj
 0001:00020a40       ?AddValue@CRegParser@ATL@@IAEJAAVCRegKey@2@PBDPAD@Z 10021a40 f i StructDict.obj
 0001:00021440       ?Allocate@?$CTempBuffer@D$0BAA@VCCRTAllocator@ATL@@@ATL@@QAEPADI@Z 10022440 f i StructDict.obj
 0001:00021490       ?Allocate@?$CTempBuffer@D$0EAA@VCCRTAllocator@ATL@@@ATL@@QAEPADI@Z 10022490 f i StructDict.obj
 0001:000214e0       ?Allocate@?$CTempBuffer@E$0BAA@VCCRTAllocator@ATL@@@ATL@@QAEPAEI@Z 100224e0 f i StructDict.obj
 0001:00021530       ?AllocateBytes@?$CTempBuffer@D$0BAA@VCCRTAllocator@ATL@@@ATL@@QAEPADI@Z 10022530 f i StructDict.obj
 0001:000215d0       ?AllocateBytes@?$CTempBuffer@D$0EAA@VCCRTAllocator@ATL@@@ATL@@QAEPADI@Z 100225d0 f i StructDict.obj
 0001:00021670       ?AllocateBytes@?$CTempBuffer@E$0BAA@VCCRTAllocator@ATL@@@ATL@@QAEPAEI@Z 10022670 f i StructDict.obj
 0001:00021710       ?AllocateHeap@?$CTempBuffer@D$0BAA@VCCRTAllocator@ATL@@@ATL@@AAEXI@Z 10022710 f i StructDict.obj
 0001:00021770       ?AllocateHeap@?$CTempBuffer@D$0EAA@VCCRTAllocator@ATL@@@ATL@@AAEXI@Z 10022770 f i StructDict.obj
 0001:000217d0       ?AllocateHeap@?$CTempBuffer@E$0BAA@VCCRTAllocator@ATL@@@ATL@@AAEXI@Z 100227d0 f i StructDict.obj
 0001:00021830       ?Append@CParseBuffer@CRegParser@ATL@@QAEHPBDH@Z 10022830 f i StructDict.obj
 0001:000219f0       ?AtlCallTermFunc@ATL@@YGXPAU_ATL_MODULE70@1@@Z 100229f0 f i StructDict.obj
 0001:00021aa0       ?AtlCoTaskMemCAlloc@ATL@@YAPAXKK@Z 10022aa0 f i StructDict.obj
 0001:00021b40       ?AtlCoTaskMemRecalloc@ATL@@YAPAXPAXKK@Z 10022b40 f i StructDict.obj
 0001:00021be0       ?AtlComModuleGetClassObject@ATL@@YGJPAU_ATL_COM_MODULE70@1@ABU_GUID@@1PAPAX@Z 10022be0 f i StructDict.obj
 0001:00021ea0       ?AtlComModuleRegisterServer@ATL@@YGJPAU_ATL_COM_MODULE70@1@HPBU_GUID@@@Z 10022ea0 f i StructDict.obj
 0001:00022060       ?AtlComModuleUnregisterServer@ATL@@YGJPAU_ATL_COM_MODULE70@1@HPBU_GUID@@@Z 10023060 f i StructDict.obj
 0001:000221a0       ?AtlCrtErrorCheck@ATL@@YAHH@Z 100231a0 f i StructDict.obj
 0001:00022430       ?AtlGetPerUserRegistration@ATL@@YGJPA_N@Z 10023430 f i StructDict.obj
 0001:00022480       ?AtlHresultFromLastError@ATL@@YAJXZ 10023480 f i StructDict.obj
 0001:000224d0       ?AtlHresultFromWin32@ATL@@YAJK@Z 100234d0 f i StructDict.obj
 0001:00022510       ?AtlLoadTypeLib@ATL@@YGJPAUHINSTANCE__@@PB_WPAPA_WPAPAUITypeLib@@@Z 10023510 f i StructDict.obj
 0001:00022cd0       ?AtlRegisterClassCategoriesHelper@ATL@@YGJABU_GUID@@PBU_ATL_CATMAP_ENTRY@1@H@Z 10023cd0 f i StructDict.obj
 0001:000234b0       ?AtlRegisterTypeLib@ATL@@YGJPAUHINSTANCE__@@PB_W@Z 100244b0 f i StructDict.obj
 0001:000237f0       ?AtlUnRegisterTypeLib@ATL@@YGJPAUHINSTANCE__@@PB_W@Z 100247f0 f i StructDict.obj
 0001:00023a20       ?AtlW2AHelper@@YGPADPADPB_WHI@Z 10024a20 f i StructDict.obj
 0001:00023b50       ?Attach@?$CAutoVectorPtr@D@ATL@@QAEXPAD@Z 10024b50 f i StructDict.obj
 0001:00023bd0       ?Attach@?$CAutoVectorPtr@_W@ATL@@QAEXPA_W@Z 10024bd0 f i StructDict.obj
 0001:00023c50       ?Attach@CRegKey@ATL@@QAEXPAUHKEY__@@@Z 10024c50 f i StructDict.obj
 0001:00023cf0       ?CanForceRemoveKey@CRegParser@ATL@@IAEHPBD@Z 10024cf0 f i StructDict.obj
 0001:00023d70       ?ChToByte@CRegParser@ATL@@KAED@Z 10024d70 f i StructDict.obj
 0001:00023ec0       ?ClearReplacements@CExpansionVector@ATL@@QAEJXZ 10024ec0 f i StructDict.obj
 0001:00023f70       ?ClearReplacements@CRegObject@ATL@@UAGJXZ 10024f70 f i StructDict.obj
 0001:00023fd0       ?Close@CRegKey@ATL@@QAEJXZ 10024fd0 f i StructDict.obj
 0001:00024050       ?Create@CRegKey@ATL@@QAEJPAUHKEY__@@PBDPADKKPAU_SECURITY_ATTRIBUTES@@PAK@Z 10025050 f i StructDict.obj
 0001:000241b0       ?CreateInstance@?$CComCreator@V?$CComAggObject@VCComDictionary@@@ATL@@@ATL@@SGJPAXABU_GUID@@PAPAX@Z 100251b0 f i StructDict.obj
 0001:000243e0       ?CreateInstance@?$CComCreator@V?$CComAggObject@VCComDomen@@@ATL@@@ATL@@SGJPAXABU_GUID@@PAPAX@Z 100253e0 f i StructDict.obj
 0001:00024610       ?CreateInstance@?$CComCreator@V?$CComAggObject@VCComField@@@ATL@@@ATL@@SGJPAXABU_GUID@@PAPAX@Z 10025610 f i StructDict.obj
 0001:00024840       ?CreateInstance@?$CComCreator@V?$CComAggObject@VCComSignat@@@ATL@@@ATL@@SGJPAXABU_GUID@@PAPAX@Z 10025840 f i StructDict.obj
 0001:00024a70       ?CreateInstance@?$CComCreator@V?$CComAggObject@VCComTempArticle@@@ATL@@@ATL@@SGJPAXABU_GUID@@PAPAX@Z 10025a70 f i StructDict.obj
 0001:00024ca0       ?CreateInstance@?$CComCreator@V?$CComAggObject@VCComTextField@@@ATL@@@ATL@@SGJPAXABU_GUID@@PAPAX@Z 10025ca0 f i StructDict.obj
 0001:00024ed0       ?CreateInstance@?$CComCreator@V?$CComObject@VCComDictionary@@@ATL@@@ATL@@SGJPAXABU_GUID@@PAPAX@Z 10025ed0 f i StructDict.obj
 0001:00025110       ?CreateInstance@?$CComCreator@V?$CComObject@VCComDomen@@@ATL@@@ATL@@SGJPAXABU_GUID@@PAPAX@Z 10026110 f i StructDict.obj
 0001:00025340       ?CreateInstance@?$CComCreator@V?$CComObject@VCComField@@@ATL@@@ATL@@SGJPAXABU_GUID@@PAPAX@Z 10026340 f i StructDict.obj
 0001:00025570       ?CreateInstance@?$CComCreator@V?$CComObject@VCComSignat@@@ATL@@@ATL@@SGJPAXABU_GUID@@PAPAX@Z 10026570 f i StructDict.obj
 0001:000257a0       ?CreateInstance@?$CComCreator@V?$CComObject@VCComTempArticle@@@ATL@@@ATL@@SGJPAXABU_GUID@@PAPAX@Z 100267a0 f i StructDict.obj
 0001:000259d0       ?CreateInstance@?$CComCreator@V?$CComObject@VCComTextField@@@ATL@@@ATL@@SGJPAXABU_GUID@@PAPAX@Z 100269d0 f i StructDict.obj
 0001:00025c00       ?CreateInstance@CComClassFactory@ATL@@UAGJPAUIUnknown@@ABU_GUID@@PAPAX@Z 10026c00 f i StructDict.obj
 0001:00025d00       ?Decrement@CComMultiThreadModel@ATL@@SGKPAJ@Z 10026d00 f i StructDict.obj
 0001:00025d40       ?DeleteSubKey@CRegKey@ATL@@QAEJPBD@Z 10026d40 f i StructDict.obj
 0001:00025e00       ?DeleteValue@CRegKey@ATL@@QAEJPBD@Z 10026e00 f i StructDict.obj
 0001:00025ea0       ?Detach@?$CAutoVectorPtr@D@ATL@@QAEPADXZ 10026ea0 f i StructDict.obj
 0001:00025ee0       ?Detach@?$CAutoVectorPtr@_W@ATL@@QAEPA_WXZ 10026ee0 f i StructDict.obj
 0001:00025f20       ?Detach@CParseBuffer@CRegParser@ATL@@QAEPADXZ 10026f20 f i StructDict.obj
 0001:00025f80       ?Detach@CRegKey@ATL@@QAEPAUHKEY__@@XZ 10026f80 f i StructDict.obj
 0001:00025fe0       ?EndOfVar@CRegParser@ATL@@IAEHXZ 10026fe0 f i StructDict.obj
 0001:00026060       ?EscapeSingleQuote@CAtlModule@ATL@@SAXPA_WIPB_W@Z 10027060 f i StructDict.obj
 0001:00026120       ?FinalConstruct@?$CComAggObject@VCComDictionary@@@ATL@@QAEJXZ 10027120 f i StructDict.obj
 0001:00026170       ?FinalConstruct@?$CComAggObject@VCComDomen@@@ATL@@QAEJXZ 10027170 f i StructDict.obj
 0001:000261c0       ?FinalConstruct@?$CComAggObject@VCComField@@@ATL@@QAEJXZ 100271c0 f i StructDict.obj
 0001:00026210       ?FinalConstruct@?$CComAggObject@VCComSignat@@@ATL@@QAEJXZ 10027210 f i StructDict.obj
 0001:00026260       ?FinalConstruct@?$CComAggObject@VCComTempArticle@@@ATL@@QAEJXZ 10027260 f i StructDict.obj
 0001:000262b0       ?FinalConstruct@?$CComAggObject@VCComTextField@@@ATL@@QAEJXZ 100272b0 f i StructDict.obj
 0001:00026300       ?FinalConstruct@CComObjectRootBase@ATL@@QAEJXZ 10027300 f i StructDict.obj
 0001:00026330       ?FinalConstruct@CRegObject@ATL@@QAEJXZ 10027330 f i StructDict.obj
 0001:00026380       ?FinalRelease@?$CComAggObject@VCComDictionary@@@ATL@@QAEXXZ 10027380 f i StructDict.obj
 0001:000263d0       ?FinalRelease@?$CComAggObject@VCComDomen@@@ATL@@QAEXXZ 100273d0 f i StructDict.obj
 0001:00026420       ?FinalRelease@?$CComAggObject@VCComField@@@ATL@@QAEXXZ 10027420 f i StructDict.obj
 0001:00026470       ?FinalRelease@?$CComAggObject@VCComSignat@@@ATL@@QAEXXZ 10027470 f i StructDict.obj
 0001:000264c0       ?FinalRelease@?$CComAggObject@VCComTempArticle@@@ATL@@QAEXXZ 100274c0 f i StructDict.obj
 0001:00026510       ?FinalRelease@?$CComAggObject@VCComTextField@@@ATL@@QAEXXZ 10027510 f i StructDict.obj
 0001:00026560       ?FindKey@?$CSimpleMap@PADPA_WVCExpansionVectorEqualHelper@ATL@@@ATL@@QBEHABQAD@Z 10027560 f i StructDict.obj
 0001:000265f0       ?Free@?$CAutoVectorPtr@D@ATL@@QAEXXZ 100275f0 f i StructDict.obj
 0001:00026650       ?Free@?$CAutoVectorPtr@_W@ATL@@QAEXXZ 10027650 f i StructDict.obj
 0001:000266b0       ?FreeHeap@?$CTempBuffer@D$0BAA@VCCRTAllocator@ATL@@@ATL@@AAEXXZ 100276b0 f i StructDict.obj
 0001:00026700       ?FreeHeap@?$CTempBuffer@D$0EAA@VCCRTAllocator@ATL@@@ATL@@AAEXXZ 10027700 f i StructDict.obj
 0001:00026750       ?FreeHeap@?$CTempBuffer@E$0BAA@VCCRTAllocator@ATL@@@ATL@@AAEXXZ 10027750 f i StructDict.obj
 0001:000267a0       ?GenerateError@CRegParser@ATL@@IAEJI@Z 100277a0 f i StructDict.obj
 0001:000267e0       ?GetAppId@?$CAtlModuleT@VCComModule@ATL@@@ATL@@SAPB_WXZ 100277e0 f i StructDict.obj
 0001:00026810       ?GetClassObject@CComModule@ATL@@QAEJABU_GUID@@0PAPAX@Z 10027810 f i StructDict.obj
 0001:00026a20       ?GetGITPtr@CAtlModule@ATL@@UAEJPAPAUIGlobalInterfaceTable@@@Z 10027a20 f i StructDict.obj
 0001:00026b50       ?GetIDsOfNames@?$IDispatchImpl@UIDictionary@@$1?IID_IDictionary@@3U_GUID@@B$1?LIBID_STRUCTDICTLib@@3U3@B$00$0A@VCComTypeInfoHolder@ATL@@@ATL@@UAGJABU_GUID@@PAPA_WIKPAJ@Z 10027b50 f i StructDict.obj
 0001:00026bb0       ?GetKeyAt@?$CSimpleMap@PADPA_WVCExpansionVectorEqualHelper@ATL@@@ATL@@QBEAAPADH@Z 10027bb0 f i StructDict.obj
 0001:00026c60       ?GetLockCount@CAtlModule@ATL@@UAEJXZ 10027c60 f i StructDict.obj
 0001:00026c90       ?GetSize@?$CSimpleMap@PADPA_WVCExpansionVectorEqualHelper@ATL@@@ATL@@QBEHXZ 10027c90 f i StructDict.obj
 0001:00026cc0       ?GetTypeInfo@?$IDispatchImpl@UIDictionary@@$1?IID_IDictionary@@3U_GUID@@B$1?LIBID_STRUCTDICTLib@@3U3@B$00$0A@VCComTypeInfoHolder@ATL@@@ATL@@UAGJIKPAPAUITypeInfo@@@Z 10027cc0 f i StructDict.obj
 0001:00026d10       ?GetTypeInfoCount@?$IDispatchImpl@UIDictionary@@$1?IID_IDictionary@@3U_GUID@@B$1?LIBID_STRUCTDICTLib@@3U3@B$00$0A@VCComTypeInfoHolder@ATL@@@ATL@@UAGJPAI@Z 10027d10 f i StructDict.obj
 0001:00026d50       ?GetValueAt@?$CSimpleMap@PADPA_WVCExpansionVectorEqualHelper@ATL@@@ATL@@QBEAAPA_WH@Z 10027d50 f i StructDict.obj
 0001:00026e00       ?HKeyFromString@CRegParser@ATL@@KAPAUHKEY__@@PAD@Z 10027e00 f i StructDict.obj
 0001:00026e80       ?HasSubKeys@CRegParser@ATL@@IAEHPAUHKEY__@@@Z 10027e80 f i StructDict.obj
 0001:00026fc0       ?Increment@CComMultiThreadModel@ATL@@SGKPAJ@Z 10027fc0 f i StructDict.obj
 0001:00027000       ?Init@CComFakeCriticalSection@ATL@@QAEJXZ 10028000 f i StructDict.obj
 0001:00027030       ?Init@CComModule@ATL@@QAEJPAU_ATL_OBJMAP_ENTRY30@2@PAUHINSTANCE__@@PBU_GUID@@@Z 10028030 f i StructDict.obj
 0001:00027120       ?Init@CComSafeDeleteCriticalSection@ATL@@QAEJXZ 10028120 f i StructDict.obj
 0001:000271b0       ?InitLibId@?$CAtlModuleT@VCComModule@ATL@@@ATL@@SAXXZ 100281b0 f i StructDict.obj
 0001:000271e0       ?InternalAddRef@?$CComObjectRootEx@VCComMultiThreadModel@ATL@@@ATL@@QAEKXZ 100281e0 f i StructDict.obj
 0001:00027260       ?InternalFinalConstructAddRef@CComDictionary@@QAEXXZ 10028260 f i StructDict.obj
 0001:000272b0       ?InternalFinalConstructAddRef@CComDomen@@QAEXXZ 100282b0 f i StructDict.obj
 0001:00027300       ?InternalFinalConstructAddRef@CComField@@QAEXXZ 10028300 f i StructDict.obj
 0001:00027350       ?InternalFinalConstructAddRef@CComObjectRootBase@ATL@@QAEXXZ 10028350 f i StructDict.obj
 0001:00027380       ?InternalFinalConstructAddRef@CComSignat@@QAEXXZ 10028380 f i StructDict.obj
 0001:000273d0       ?InternalFinalConstructAddRef@CComTempArticle@@QAEXXZ 100283d0 f i StructDict.obj
 0001:00027420       ?InternalFinalConstructAddRef@CComTextField@@QAEXXZ 10028420 f i StructDict.obj
 0001:00027470       ?InternalFinalConstructRelease@CComDictionary@@QAEXXZ 10028470 f i StructDict.obj
 0001:000274c0       ?InternalFinalConstructRelease@CComDomen@@QAEXXZ 100284c0 f i StructDict.obj
 0001:00027510       ?InternalFinalConstructRelease@CComField@@QAEXXZ 10028510 f i StructDict.obj
 0001:00027560       ?InternalFinalConstructRelease@CComObjectRootBase@ATL@@QAEXXZ 10028560 f i StructDict.obj
 0001:000275e0       ?InternalFinalConstructRelease@CComSignat@@QAEXXZ 100285e0 f i StructDict.obj
 0001:00027630       ?InternalFinalConstructRelease@CComTempArticle@@QAEXXZ 10028630 f i StructDict.obj
 0001:00027680       ?InternalFinalConstructRelease@CComTextField@@QAEXXZ 10028680 f i StructDict.obj
 0001:000276d0       ?InternalRelease@?$CComObjectRootEx@VCComMultiThreadModel@ATL@@@ATL@@QAEKXZ 100286d0 f i StructDict.obj
 0001:00027760       ?InternalSetAtIndex@?$CSimpleMap@PADPA_WVCExpansionVectorEqualHelper@ATL@@@ATL@@QAEXHABQADABQA_W@Z 10028760 f i StructDict.obj
 0001:00027890       ?Invoke@?$IDispatchImpl@UIDictionary@@$1?IID_IDictionary@@3U_GUID@@B$1?LIBID_STRUCTDICTLib@@3U3@B$00$0A@VCComTypeInfoHolder@ATL@@@ATL@@UAGJJABU_GUID@@KGPAUtagDISPPARAMS@@PAUtagVARIANT@@PAUtagEXCEPINFO@@PAI@Z 10028890 f i StructDict.obj
 0001:00027900       ?IsEqualKey@CExpansionVectorEqualHelper@ATL@@SA_NQAD0@Z 10028900 f i StructDict.obj
 0001:00027960       ?IsSpace@CRegParser@ATL@@IAEHD@Z 10028960 f i StructDict.obj
 0001:000279f0       ?Length@CComBSTR@ATL@@QBEIXZ 100289f0 f i StructDict.obj
 0001:00027a40       ?Lock@CAtlModule@ATL@@UAEJXZ 10028a40 f i StructDict.obj
 0001:00027a90       ?Lock@CComFakeCriticalSection@ATL@@QAEJXZ 10028a90 f i StructDict.obj
 0001:00027ac0       ?LockServer@CComClassFactory@ATL@@UAGJH@Z 10028ac0 f i StructDict.obj
 0001:00027b40       ?Lookup@?$CSimpleMap@PADPA_WVCExpansionVectorEqualHelper@ATL@@@ATL@@QBEPA_WABQAD@Z 10028b40 f i StructDict.obj
 0001:00027ba0       ?NextToken@CRegParser@ATL@@IAEJPAD@Z 10028ba0 f i StructDict.obj
 0001:00027e40       ?Open@CRegKey@ATL@@QAEJPAUHKEY__@@PBDK@Z 10028e40 f i StructDict.obj
 0001:00027fa0       ?OuterAddRef@CComObjectRootBase@ATL@@QAEKXZ 10028fa0 f i StructDict.obj
 0001:00028000       ?OuterQueryInterface@CComObjectRootBase@ATL@@QAEJABU_GUID@@PAPAX@Z 10029000 f i StructDict.obj
 0001:00028060       ?OuterRelease@CComObjectRootBase@ATL@@QAEKXZ 10029060 f i StructDict.obj
 0001:000280c0       ?PreProcessBuffer@CRegParser@ATL@@QAEJPADPAPAD@Z 100290c0 f i StructDict.obj
 0001:00028690       ?QueryInterface@?$CComAggObject@VCComDictionary@@@ATL@@UAGJABU_GUID@@PAPAX@Z 10029690 f i StructDict.obj
 0001:00028760       ?QueryInterface@?$CComAggObject@VCComDomen@@@ATL@@UAGJABU_GUID@@PAPAX@Z 10029760 f i StructDict.obj
 0001:00028830       ?QueryInterface@?$CComAggObject@VCComField@@@ATL@@UAGJABU_GUID@@PAPAX@Z 10029830 f i StructDict.obj
 0001:00028900       ?QueryInterface@?$CComAggObject@VCComSignat@@@ATL@@UAGJABU_GUID@@PAPAX@Z 10029900 f i StructDict.obj
 0001:000289d0       ?QueryInterface@?$CComAggObject@VCComTempArticle@@@ATL@@UAGJABU_GUID@@PAPAX@Z 100299d0 f i StructDict.obj
 0001:00028aa0       ?QueryInterface@?$CComAggObject@VCComTextField@@@ATL@@UAGJABU_GUID@@PAPAX@Z 10029aa0 f i StructDict.obj
 0001:00028b70       ?QueryInterface@?$CComContainedObject@VCComDictionary@@@ATL@@UAGJABU_GUID@@PAPAX@Z 10029b70 f i StructDict.obj
 0001:00028bc0       ?QueryInterface@?$CComContainedObject@VCComDomen@@@ATL@@UAGJABU_GUID@@PAPAX@Z 10029bc0 f i StructDict.obj
 0001:00028c10       ?QueryInterface@?$CComContainedObject@VCComField@@@ATL@@UAGJABU_GUID@@PAPAX@Z 10029c10 f i StructDict.obj
 0001:00028c60       ?QueryInterface@?$CComContainedObject@VCComSignat@@@ATL@@UAGJABU_GUID@@PAPAX@Z 10029c60 f i StructDict.obj
 0001:00028cb0       ?QueryInterface@?$CComContainedObject@VCComTempArticle@@@ATL@@UAGJABU_GUID@@PAPAX@Z 10029cb0 f i StructDict.obj
 0001:00028d00       ?QueryInterface@?$CComContainedObject@VCComTextField@@@ATL@@UAGJABU_GUID@@PAPAX@Z 10029d00 f i StructDict.obj
 0001:00028d50       ?QueryInterface@?$CComObject@VCComDictionary@@@ATL@@UAGJABU_GUID@@PAPAX@Z 10029d50 f i StructDict.obj
 0001:00028da0       ?QueryInterface@?$CComObjectCached@VCComClassFactory@ATL@@@ATL@@UAGJABU_GUID@@PAPAX@Z 10029da0 f i StructDict.obj
 0001:00028df0       ?QueryInterface@CRegObject@ATL@@UAGJABU_GUID@@PAPAX@Z 10029df0 f i StructDict.obj
 0001:00028e70       ?RecurseDeleteKey@CRegKey@ATL@@QAEJPBD@Z 10029e70 f i StructDict.obj
 0001:00029050       ?RegCreateKeyExA@CAtlTransactionManager@ATL@@QAEJPAUHKEY__@@PBDKPADKKQAU_SECURITY_ATTRIBUTES@@PAPAU3@PAK@Z 1002a050 f i StructDict.obj
 0001:000291a0       ?RegDeleteKeyA@CAtlTransactionManager@ATL@@QAEJPAUHKEY__@@PBD@Z 1002a1a0 f i StructDict.obj
 0001:000292b0       ?RegOpenKeyExA@CAtlTransactionManager@ATL@@QAEJPAUHKEY__@@PBDKKPAPAU3@@Z 1002a2b0 f i StructDict.obj
 0001:000293e0       ?RegisterBuffer@CRegParser@ATL@@QAEJPADH@Z 1002a3e0 f i StructDict.obj
 0001:00029720       ?RegisterFromResource@CRegObject@ATL@@IAEJPB_WPBD1H@Z 1002a720 f i StructDict.obj
 0001:00029c90       ?RegisterServer@?$CAtlModuleT@VCComModule@ATL@@@ATL@@QAEJHPBU_GUID@@@Z 1002ac90 f i StructDict.obj
 0001:00029d20       ?RegisterServer@CAtlComModule@ATL@@QAEJHPBU_GUID@@@Z 1002ad20 f i StructDict.obj
 0001:00029d70       ?RegisterServer@CComModule@ATL@@QAEJHPBU_GUID@@@Z 1002ad70 f i StructDict.obj
 0001:00029e60       ?RegisterSubkeys@CRegParser@ATL@@IAEJPADPAUHKEY__@@HH@Z 1002ae60 f i StructDict.obj
 0001:0002aa40       ?Release@?$CComAggObject@VCComDictionary@@@ATL@@UAGKXZ 1002ba40 f i StructDict.obj
 0001:0002ab20       ?Release@?$CComAggObject@VCComDomen@@@ATL@@UAGKXZ 1002bb20 f i StructDict.obj
 0001:0002ac00       ?Release@?$CComAggObject@VCComField@@@ATL@@UAGKXZ 1002bc00 f i StructDict.obj
 0001:0002ace0       ?Release@?$CComAggObject@VCComSignat@@@ATL@@UAGKXZ 1002bce0 f i StructDict.obj
 0001:0002adc0       ?Release@?$CComAggObject@VCComTempArticle@@@ATL@@UAGKXZ 1002bdc0 f i StructDict.obj
 0001:0002aea0       ?Release@?$CComAggObject@VCComTextField@@@ATL@@UAGKXZ 1002bea0 f i StructDict.obj
 0001:0002af80       ?Release@?$CComContainedObject@VCComDictionary@@@ATL@@UAGKXZ 1002bf80 f i StructDict.obj
 0001:0002afd0       ?Release@?$CComContainedObject@VCComDomen@@@ATL@@UAGKXZ 1002bfd0 f i StructDict.obj
 0001:0002b010       ?Release@?$CComContainedObject@VCComField@@@ATL@@UAGKXZ 1002c010 f i StructDict.obj
 0001:0002b050       ?Release@?$CComContainedObject@VCComSignat@@@ATL@@UAGKXZ 1002c050 f i StructDict.obj
 0001:0002b090       ?Release@?$CComContainedObject@VCComTempArticle@@@ATL@@UAGKXZ 1002c090 f i StructDict.obj
 0001:0002b0d0       ?Release@?$CComContainedObject@VCComTextField@@@ATL@@UAGKXZ 1002c0d0 f i StructDict.obj
 0001:0002b110       ?Release@?$CComObject@VCComDictionary@@@ATL@@UAGKXZ 1002c110 f i StructDict.obj
 0001:0002b1f0       ?Release@?$CComObjectCached@VCComClassFactory@ATL@@@ATL@@UAGKXZ 1002c1f0 f i StructDict.obj
 0001:0002b2b0       ?Release@CRegObject@ATL@@UAGKXZ 1002c2b0 f i StructDict.obj
 0001:0002b320       ?RemoveAll@?$CSimpleMap@PADPA_WVCExpansionVectorEqualHelper@ATL@@@ATL@@QAEXXZ 1002c320 f i StructDict.obj
 0001:0002b3e0       ?ResourceRegister@CRegObject@ATL@@QAGJPB_WI0@Z 1002c3e0 f i StructDict.obj
 0001:0002b650       ?ResourceRegisterSz@CRegObject@ATL@@QAGJPB_W00@Z 1002c650 f i StructDict.obj
 0001:0002b9f0       ?ResourceUnregister@CRegObject@ATL@@QAGJPB_WI0@Z 1002c9f0 f i StructDict.obj
 0001:0002bc60       ?ResourceUnregisterSz@CRegObject@ATL@@QAGJPB_W00@Z 1002cc60 f i StructDict.obj
 0001:0002c000       ?SetDWORDValue@CRegKey@ATL@@QAEJPBDK@Z 1002d000 f i StructDict.obj
 0001:0002c0a0       ?SetMultiStringValue@CRegKey@ATL@@QAEJPBD0@Z 1002d0a0 f i StructDict.obj
 0001:0002c1f0       ?SetStringValue@CRegKey@ATL@@QAEJPBD0K@Z 1002d1f0 f i StructDict.obj
 0001:0002c350       ?SetVoid@CComClassFactory@ATL@@QAEXPAX@Z 1002d350 f i StructDict.obj
 0001:0002c390       ?SetVoid@CComObjectRootBase@ATL@@QAEXPAX@Z 1002d390 f i StructDict.obj
 0001:0002c3c0       ?SkipAssignment@CRegParser@ATL@@IAEJPAD@Z 1002d3c0 f i StructDict.obj
 0001:0002c4b0       ?SkipWhiteSpace@CRegParser@ATL@@IAEXXZ 1002d4b0 f i StructDict.obj
 0001:0002c520       ?StrChrA@CRegParser@ATL@@KAPADPADD@Z 1002d520 f i StructDict.obj
 0001:0002c5a0       ?StrFromMap@CRegObject@ATL@@QAEPB_WPAD@Z 1002d5a0 f i StructDict.obj
 0001:0002c640       ?Term@CAtlModule@ATL@@QAEXXZ 1002d640 f i StructDict.obj
 0001:0002c700       ?Term@CComModule@ATL@@QAEXXZ 1002d700 f i StructDict.obj
 0001:0002c7f0       ?Unlock@CAtlModule@ATL@@UAEJXZ 1002d7f0 f i StructDict.obj
 0001:0002c840       ?Unlock@CComFakeCriticalSection@ATL@@QAEJXZ 1002d840 f i StructDict.obj
 0001:0002c870       ?UnregisterServer@?$CAtlModuleT@VCComModule@ATL@@@ATL@@QAEJHPBU_GUID@@@Z 1002d870 f i StructDict.obj
 0001:0002c8f0       ?UnregisterServer@CAtlComModule@ATL@@QAEJHPBU_GUID@@@Z 1002d8f0 f i StructDict.obj
 0001:0002c940       ?UnregisterServer@CComModule@ATL@@QAEJHPBU_GUID@@@Z 1002d940 f i StructDict.obj
 0001:0002ca30       ?UpdateRegistryFromResource@CAtlModule@ATL@@QAGJIHPAU_ATL_REGMAP_ENTRY@2@@Z 1002da30 f i StructDict.obj
 0001:0002d060       ?UpdateRegistryFromResource@CAtlModule@ATL@@QAGJPBDHPAU_ATL_REGMAP_ENTRY@2@@Z 1002e060 f i StructDict.obj
 0001:0002d7c0       ?UpdateRegistryFromResource@CComModule@ATL@@UAGJIHPAU_ATL_REGMAP_ENTRY@2@@Z 1002e7c0 f i StructDict.obj
 0001:0002d810       ?UpdateRegistryFromResource@CComModule@ATL@@UAGJPBDHPAU_ATL_REGMAP_ENTRY@2@@Z 1002e810 f i StructDict.obj
 0001:0002d860       ?UpdateRegistryFromResourceD@CComModule@ATL@@UAGJIHPAU_ATL_REGMAP_ENTRY@2@@Z 1002e860 f i StructDict.obj
 0001:0002d890       ?UpdateRegistryFromResourceD@CComModule@ATL@@UAGJPBDHPAU_ATL_REGMAP_ENTRY@2@@Z 1002e890 f i StructDict.obj
 0001:0002d8c0       ?VTFromRegType@CRegParser@ATL@@KAHPBDAAG@Z 1002e8c0 f i StructDict.obj
 0001:0002d9c0       ?_AtlFinalConstruct@CComObjectRootBase@ATL@@QAEJXZ 1002e9c0 f i StructDict.obj
 0001:0002d9f0       ?_AtlInitialConstruct@?$CComAggObject@VCComDictionary@@@ATL@@QAEJXZ 1002e9f0 f i StructDict.obj
 0001:0002da50       ?_AtlInitialConstruct@?$CComAggObject@VCComDomen@@@ATL@@QAEJXZ 1002ea50 f i StructDict.obj
 0001:0002dab0       ?_AtlInitialConstruct@?$CComAggObject@VCComField@@@ATL@@QAEJXZ 1002eab0 f i StructDict.obj
 0001:0002db10       ?_AtlInitialConstruct@?$CComAggObject@VCComSignat@@@ATL@@QAEJXZ 1002eb10 f i StructDict.obj
 0001:0002db70       ?_AtlInitialConstruct@?$CComAggObject@VCComTempArticle@@@ATL@@QAEJXZ 1002eb70 f i StructDict.obj
 0001:0002dbd0       ?_AtlInitialConstruct@?$CComAggObject@VCComTextField@@@ATL@@QAEJXZ 1002ebd0 f i StructDict.obj
 0001:0002dc30       ?_AtlInitialConstruct@?$CComObjectRootEx@VCComMultiThreadModel@ATL@@@ATL@@QAEJXZ 1002ec30 f i StructDict.obj
 0001:0002dc80       ?_AtlInitialConstruct@?$CComObjectRootEx@VCComSingleThreadModel@ATL@@@ATL@@QAEJXZ 1002ec80 f i StructDict.obj
 0001:0002dcb0       ?_GetEntries@CComClassFactory@ATL@@SGPBU_ATL_INTMAP_ENTRY@2@XZ 1002ecb0 f i StructDict.obj
 0001:0002dcf0       ?_GetEntries@CComDictionary@@SGPBU_ATL_INTMAP_ENTRY@ATL@@XZ 1002ecf0 f i StructDict.obj
 0001:0002dd30       ?_InternalQueryInterface@CComClassFactory@ATL@@QAEJABU_GUID@@PAPAX@Z 1002ed30 f i StructDict.obj
 0001:0002dd80       ?_InternalQueryInterface@CComDictionary@@QAEJABU_GUID@@PAPAX@Z 1002ed80 f i StructDict.obj
 0001:0002ddd0       ?_tcsstr@@YAPADPADPBD@Z    1002edd0 f i StructDict.obj
 0001:0002de20       ?memcpy_s@Checked@ATL@@YAXPAXIPBXI@Z 1002ee20 f i StructDict.obj
 0001:0002de80       ?ocscpy_s@@YA_NPA_WIPB_W@Z 1002ee80 f i StructDict.obj
 0001:0002df10       ?strcat_s@Checked@ATL@@YAXPADIPBD@Z 1002ef10 f i StructDict.obj
 0001:0002df70       ?strcpy_s@Checked@ATL@@YAXPADIPBD@Z 1002ef70 f i StructDict.obj
 0001:0002dfd0       ?tcsncpy_s@Checked@ATL@@YAHPADIPBDI@Z 1002efd0 f i StructDict.obj
 0001:0002e030       ?wcsncpy_s@Checked@ATL@@YAHPA_WIPB_WI@Z 1002f030 f i StructDict.obj
 0001:0002e090       _DllCanUnloadNow@0         1002f090 f   StructDict.obj
 0001:0002e0f0       _DllGetClassObject@12      1002f0f0 f   StructDict.obj
 0001:0002e140       _DllMain@12                1002f140 f   StructDict.obj
 0001:0002e210       _DllRegisterServer@0       1002f210 f   StructDict.obj
 0001:0002e250       _DllUnregisterServer@0     1002f250 f   StructDict.obj
 0001:0002e290       _IsEqualGUID               1002f290 f i StructDict.obj
 0001:0002e300       __tcsncpy_s                1002f300 f i StructDict.obj
 0001:0002e360       __tcsstr                   1002f360 f i StructDict.obj
 0001:0002e400       ??$?0AAV?$_Tree_iterator@V?$_Tree_val@U?$_Tree_simple_types@U?$pair@$$CBHV?$_Tree_const_iterator@V?$_Tree_val@U?$_Tree_simple_types@U?$pair@$$CBV?$basic_string@DU?$char_traits@D@std@@V?$allocator@D@2@@std@@UCMyTimeSpan@@@std@@@std@@@std@@@std@@@std@@@std@@@std@@@std@@_NX@?$pair@V?$_Tree_iterator@V?$_Tree_val@U?$_Tree_simple_types@U?$pair@$$CBHV?$_Tree_const_iterator@V?$_Tree_val@U?$_Tree_simple_types@U?$pair@$$CBV?$basic_string@DU?$char_traits@D@std@@V?$allocator@D@2@@std@@UCMyTimeSpan@@@std@@@std@@@std@@@std@@@std@@@std@@@std@@@std@@_N@std@@QAE@AAV?$_Tree_iterator@V?$_Tree_val@U?$_Tree_simple_types@U?$pair@$$CBHV?$_Tree_const_iterator@V?$_Tree_val@U?$_Tree_simple_types@U?$pair@$$CBV?$basic_string@DU?$char_traits@D@std@@V?$allocator@D@2@@std@@UCMyTimeSpan@@@std@@@std@@@std@@@std@@@std@@@std@@@std@@@1@$$QA_N@Z 1002f400 f i utilit.obj
 0001:0002e4a0       ??$?0AAV?$_Tree_iterator@V?$_Tree_val@U?$_Tree_simple_types@U?$pair@$$CBV?$basic_string@DU?$char_traits@D@std@@V?$allocator@D@2@@std@@UCMyTimeSpan@@@std@@@std@@@std@@@std@@_NX@?$pair@V?$_Tree_iterator@V?$_Tree_val@U?$_Tree_simple_types@U?$pair@$$CBV?$basic_string@DU?$char_traits@D@std@@V?$allocator@D@2@@std@@UCMyTimeSpan@@@std@@@std@@@std@@@std@@_N@std@@QAE@AAV?$_Tree_iterator@V?$_Tree_val@U?$_Tree_simple_types@U?$pair@$$CBV?$basic_string@DU?$char_traits@D@std@@V?$allocator@D@2@@std@@UCMyTimeSpan@@@std@@@std@@@std@@@1@$$QA_N@Z 1002f4a0 f i utilit.obj
 0001:0002e540       ??$?0ABH$$$V@?$pair@$$CBHV?$_Tree_const_iterator@V?$_Tree_val@U?$_Tree_simple_types@U?$pair@$$CBV?$basic_string@DU?$char_traits@D@std@@V?$allocator@D@2@@std@@UCMyTimeSpan@@@std@@@std@@@std@@@std@@@std@@QAE@Upiecewise_construct_t@1@V?$tuple@ABH@1@V?$tuple@$$$V@1@@Z 1002f540 f i utilit.obj
 0001:0002e5b0       ??$?0ABH@?$_Tuple_val@ABH@std@@QAE@ABH@Z 1002f5b0 f i utilit.obj
 0001:0002e600       ??$?0ABHPAPAX@?$tuple@ABH@std@@QAE@$$QAV01@@Z 1002f600 f i utilit.obj
 0001:0002e670       ??$?0ABV?$basic_string@DU?$char_traits@D@std@@V?$allocator@D@2@@std@@AAUCMyTimeSpan@@X@?$pair@V?$basic_string@DU?$char_traits@D@std@@V?$allocator@D@2@@std@@UCMyTimeSpan@@@std@@QAE@ABV?$basic_string@DU?$char_traits@D@std@@V?$allocator@D@2@@1@AAUCMyTimeSpan@@@Z 1002f670 f i utilit.obj
 0001:0002e720       ??$?0U?$_Tree_node@U?$pair@$$CBHV?$_Tree_const_iterator@V?$_Tree_val@U?$_Tree_simple_types@U?$pair@$$CBV?$basic_string@DU?$char_traits@D@std@@V?$allocator@D@2@@std@@UCMyTimeSpan@@@std@@@std@@@std@@@std@@@std@@PAX@std@@@?$allocator@U_Container_proxy@std@@@std@@QAE@ABV?$allocator@U?$_Tree_node@U?$pair@$$CBHV?$_Tree_const_iterator@V?$_Tree_val@U?$_Tree_simple_types@U?$pair@$$CBV?$basic_string@DU?$char_traits@D@std@@V?$allocator@D@2@@std@@UCMyTimeSpan@@@std@@@std@@@std@@@std@@@std@@PAX@std@@@1@@Z 1002f720 f i utilit.obj
 0001:0002e750       ??$?0U?$_Tree_node@U?$pair@$$CBV?$basic_string@DU?$char_traits@D@std@@V?$allocator@D@2@@std@@UCMyTimeSpan@@@std@@PAX@std@@@?$allocator@U_Container_proxy@std@@@std@@QAE@ABV?$allocator@U?$_Tree_node@U?$pair@$$CBV?$basic_string@DU?$char_traits@D@std@@V?$allocator@D@2@@std@@UCMyTimeSpan@@@std@@PAX@std@@@1@@Z 1002f750 f i utilit.obj
 0001:0002e780       ??$?0U?$_Wrap_alloc@V?$allocator@U?$_Tree_node@U?$pair@$$CBHV?$_Tree_const_iterator@V?$_Tree_val@U?$_Tree_simple_types@U?$pair@$$CBV?$basic_string@DU?$char_traits@D@std@@V?$allocator@D@2@@std@@UCMyTimeSpan@@@std@@@std@@@std@@@std@@@std@@PAX@std@@@std@@@std@@@?$_Wrap_alloc@V?$allocator@U_Container_proxy@std@@@std@@@std@@QAE@ABU?$_Wrap_alloc@V?$allocator@U?$_Tree_node@U?$pair@$$CBHV?$_Tree_const_iterator@V?$_Tree_val@U?$_Tree_simple_types@U?$pair@$$CBV?$basic_string@DU?$char_traits@D@std@@V?$allocator@D@2@@std@@UCMyTimeSpan@@@std@@@std@@@std@@@std@@@std@@PAX@std@@@std@@@1@@Z 1002f780 f i utilit.obj
 0001:0002e7d0       ??$?0U?$_Wrap_alloc@V?$allocator@U?$_Tree_node@U?$pair@$$CBV?$basic_string@DU?$char_traits@D@std@@V?$allocator@D@2@@std@@UCMyTimeSpan@@@std@@PAX@std@@@std@@@std@@@?$_Wrap_alloc@V?$allocator@U_Container_proxy@std@@@std@@@std@@QAE@ABU?$_Wrap_alloc@V?$allocator@U?$_Tree_node@U?$pair@$$CBV?$basic_string@DU?$char_traits@D@std@@V?$allocator@D@2@@std@@UCMyTimeSpan@@@std@@PAX@std@@@std@@@1@@Z 1002f7d0 f i utilit.obj
 0001:0002e820       ??$?0V?$_Tree_iterator@V?$_Tree_val@U?$_Tree_simple_types@U?$pair@$$CBHV?$_Tree_const_iterator@V?$_Tree_val@U?$_Tree_simple_types@U?$pair@$$CBV?$basic_string@DU?$char_traits@D@std@@V?$allocator@D@2@@std@@UCMyTimeSpan@@@std@@@std@@@std@@@std@@@std@@@std@@@std@@@std@@_NX@?$pair@V?$_Tree_iterator@V?$_Tree_val@U?$_Tree_simple_types@U?$pair@$$CBHV?$_Tree_const_iterator@V?$_Tree_val@U?$_Tree_simple_types@U?$pair@$$CBV?$basic_string@DU?$char_traits@D@std@@V?$allocator@D@2@@std@@UCMyTimeSpan@@@std@@@std@@@std@@@std@@@std@@@std@@@std@@@std@@_N@std@@QAE@$$QAV?$_Tree_iterator@V?$_Tree_val@U?$_Tree_simple_types@U?$pair@$$CBHV?$_Tree_const_iterator@V?$_Tree_val@U?$_Tree_simple_types@U?$pair@$$CBV?$basic_string@DU?$char_traits@D@std@@V?$allocator@D@2@@std@@UCMyTimeSpan@@@std@@@std@@@std@@@std@@@std@@@std@@@std@@@1@$$QA_N@Z 1002f820 f i utilit.obj
 0001:0002e8c0       ??$?0V?$_Tree_iterator@V?$_Tree_val@U?$_Tree_simple_types@U?$pair@$$CBV?$basic_string@DU?$char_traits@D@std@@V?$allocator@D@2@@std@@UCMyTimeSpan@@@std@@@std@@@std@@@std@@_NX@?$pair@V?$_Tree_iterator@V?$_Tree_val@U?$_Tree_simple_types@U?$pair@$$CBV?$basic_string@DU?$char_traits@D@std@@V?$allocator@D@2@@std@@UCMyTimeSpan@@@std@@@std@@@std@@@std@@_N@std@@QAE@$$QAV?$_Tree_iterator@V?$_Tree_val@U?$_Tree_simple_types@U?$pair@$$CBV?$basic_string@DU?$char_traits@D@std@@V?$allocator@D@2@@std@@UCMyTimeSpan@@@std@@@std@@@std@@@1@$$QA_N@Z 1002f8c0 f i utilit.obj
 0001:0002e960       ??$?0V?$_Vector_iterator@V?$_Vector_val@U?$_Simple_types@D@std@@@std@@@std@@X@?$basic_string@DU?$char_traits@D@std@@V?$allocator@D@2@@std@@QAE@V?$_Vector_iterator@V?$_Vector_val@U?$_Simple_types@D@std@@@std@@@1@0@Z 1002f960 f i utilit.obj
 0001:0002ea80       ??$?0V?$basic_string@DU?$char_traits@D@std@@V?$allocator@D@2@@std@@UCMyTimeSpan@@X@?$pair@$$CBV?$basic_string@DU?$char_traits@D@std@@V?$allocator@D@2@@std@@UCMyTimeSpan@@@std@@QAE@$$QAU?$pair@V?$basic_string@DU?$char_traits@D@std@@V?$allocator@D@2@@std@@UCMyTimeSpan@@@1@@Z 1002fa80 f i utilit.obj
 0001:0002eb30       ??$?0V?$tuple@ABH@std@@V?$tuple@$$$V@1@$0A@$S@?$pair@$$CBHV?$_Tree_const_iterator@V?$_Tree_val@U?$_Tree_simple_types@U?$pair@$$CBV?$basic_string@DU?$char_traits@D@std@@V?$allocator@D@2@@std@@UCMyTimeSpan@@@std@@@std@@@std@@@std@@@std@@QAE@AAV?$tuple@ABH@1@AAV?$tuple@$$$V@1@U?$_Arg_idx@$0A@@1@U?$_Arg_idx@$S@1@@Z 1002fb30 f i utilit.obj
 0001:0002eba0       ??$?8DD@std@@YA_NABV?$allocator@D@0@0@Z 1002fba0 f i utilit.obj
 0001:0002ebd0       ??$?8DU?$char_traits@D@std@@V?$allocator@D@1@@std@@YA_NABV?$basic_string@DU?$char_traits@D@std@@V?$allocator@D@2@@0@0@Z 1002fbd0 f i utilit.obj
 0001:0002ec30       ??$?8DU?$char_traits@D@std@@V?$allocator@D@1@@std@@YA_NABV?$basic_string@DU?$char_traits@D@std@@V?$allocator@D@2@@0@PBD@Z 1002fc30 f i utilit.obj
 0001:0002ec90       ??$?8V?$allocator@D@std@@V01@@std@@YA_NABU?$_Wrap_alloc@V?$allocator@D@std@@@0@0@Z 1002fc90 f i utilit.obj
 0001:0002ecf0       ??$?9DU?$char_traits@D@std@@V?$allocator@D@1@@std@@YA_NABV?$basic_string@DU?$char_traits@D@std@@V?$allocator@D@2@@0@0@Z 1002fcf0 f i utilit.obj
 0001:0002ed60       ??$?9DU?$char_traits@D@std@@V?$allocator@D@1@@std@@YA_NABV?$basic_string@DU?$char_traits@D@std@@V?$allocator@D@2@@0@PBD@Z 1002fd60 f i utilit.obj
 0001:0002edd0       ??$?9V?$allocator@D@std@@V01@@std@@YA_NABU?$_Wrap_alloc@V?$allocator@D@std@@@0@0@Z 1002fdd0 f i utilit.obj
 0001:0002ee40       ??$?HDU?$char_traits@D@std@@V?$allocator@D@1@@std@@YA?AV?$basic_string@DU?$char_traits@D@std@@V?$allocator@D@2@@0@$$QAV10@ABV10@@Z 1002fe40 f i utilit.obj
 0001:0002eeb0       ??$?HDU?$char_traits@D@std@@V?$allocator@D@1@@std@@YA?AV?$basic_string@DU?$char_traits@D@std@@V?$allocator@D@2@@0@$$QAV10@PBD@Z 1002feb0 f i utilit.obj
 0001:0002ef20       ??$?HDU?$char_traits@D@std@@V?$allocator@D@1@@std@@YA?AV?$basic_string@DU?$char_traits@D@std@@V?$allocator@D@2@@0@ABV10@0@Z 1002ff20 f i utilit.obj
 0001:0002f040       ??$?HDU?$char_traits@D@std@@V?$allocator@D@1@@std@@YA?AV?$basic_string@DU?$char_traits@D@std@@V?$allocator@D@2@@0@ABV10@PBD@Z 10030040 f i utilit.obj
 0001:0002f160       ??$?HDU?$char_traits@D@std@@V?$allocator@D@1@@std@@YA?AV?$basic_string@DU?$char_traits@D@std@@V?$allocator@D@2@@0@PBDABV10@@Z 10030160 f i utilit.obj
 0001:0002f280       ??$?MDU?$char_traits@D@std@@V?$allocator@D@1@@std@@YA_NABV?$basic_string@DU?$char_traits@D@std@@V?$allocator@D@2@@0@0@Z 10030280 f i utilit.obj
 0001:0002f2e0       ??$CheckLanguage@PBD@@YA_NABQBDIW4MorphLanguageEnum@@@Z 100302e0 f i utilit.obj
 0001:0002f3f0       ??$CheckLanguage@V?$basic_string@DU?$char_traits@D@std@@V?$allocator@D@2@@std@@@@YA_NABV?$basic_string@DU?$char_traits@D@std@@V?$allocator@D@2@@std@@IW4MorphLanguageEnum@@@Z 100303f0 f i utilit.obj
 0001:0002f500       ??$ConvertJO2JeTemplate@PAD@@YAXAAPADI@Z 10030500 f i utilit.obj
 0001:0002f590       ??$ConvertJO2JeTemplate@V?$basic_string@DU?$char_traits@D@std@@V?$allocator@D@2@@std@@@@YAXAAV?$basic_string@DU?$char_traits@D@std@@V?$allocator@D@2@@std@@I@Z 10030590 f i utilit.obj
 0001:0002f630       ??$CreateFromSequence@V?$_Tree_const_iterator@V?$_Tree_val@U?$_Tree_simple_types@V?$basic_string@DU?$char_traits@D@std@@V?$allocator@D@2@@std@@@std@@@std@@@std@@@CShortStringHolder@@AAE_NV?$_Tree_const_iterator@V?$_Tree_val@U?$_Tree_simple_types@V?$basic_string@DU?$char_traits@D@std@@V?$allocator@D@2@@std@@@std@@@std@@@std@@0@Z 10030630 f i utilit.obj
 0001:0002f9f0       ??$CreateFromSequence@V?$_Vector_const_iterator@V?$_Vector_val@U?$_Simple_types@V?$basic_string@DU?$char_traits@D@std@@V?$allocator@D@2@@std@@@std@@@std@@@std@@@CShortStringHolder@@AAE_NV?$_Vector_const_iterator@V?$_Vector_val@U?$_Simple_types@V?$basic_string@DU?$char_traits@D@std@@V?$allocator@D@2@@std@@@std@@@std@@@std@@0@Z 100309f0 f i utilit.obj
 0001:0002fdb0       ??$GerEngRusMakeUpperTemplate@PAD@@YAAAPADAAPADW4MorphLanguageEnum@@I@Z 10030db0 f i utilit.obj
 0001:0002fec0       ??$GerEngRusMakeUpperTemplate@V?$basic_string@DU?$char_traits@D@std@@V?$allocator@D@2@@std@@@@YAAAV?$basic_string@DU?$char_traits@D@std@@V?$allocator@D@2@@std@@AAV01@W4MorphLanguageEnum@@I@Z 10030ec0 f i utilit.obj
 0001:0002fff0       ??$ReadVector@D@@YAXABV?$basic_string@DU?$char_traits@D@std@@V?$allocator@D@2@@std@@AAV?$vector@DV?$allocator@D@std@@@1@@Z 10030ff0 f i utilit.obj
 0001:00030160       ??$ReadVectorInner@D@@YAXPAU_iobuf@@AAV?$vector@DV?$allocator@D@std@@@std@@I@Z 10031160 f i utilit.obj
 0001:00030550       ??$RegisterConverter@PADP6A_NE@ZP6AEE@Z@@YAAAPADAAPADIP6A_NE@ZP6AEE@Z@Z 10031550 f i utilit.obj
 0001:000305f0       ??$RegisterConverter@V?$basic_string@DU?$char_traits@D@std@@V?$allocator@D@2@@std@@P6A_NE@ZP6AEE@Z@@YAAAV?$basic_string@DU?$char_traits@D@std@@V?$allocator@D@2@@std@@AAV01@IP6A_NE@ZP6AEE@Z@Z 100315f0 f i utilit.obj
 0001:000306a0       ??$WriteVectorInner@D@@YA_NPAU_iobuf@@ABV?$vector@DV?$allocator@D@std@@@std@@@Z 100316a0 f i utilit.obj
 0001:000308b0       ??$_Advance@PADH@std@@YAXAAPADHUrandom_access_iterator_tag@0@@Z 100318b0 f i utilit.obj
 0001:000308f0       ??$_Allocate@U?$_Tree_node@U?$pair@$$CBHV?$_Tree_const_iterator@V?$_Tree_val@U?$_Tree_simple_types@U?$pair@$$CBV?$basic_string@DU?$char_traits@D@std@@V?$allocator@D@2@@std@@UCMyTimeSpan@@@std@@@std@@@std@@@std@@@std@@PAX@std@@@std@@YAPAU?$_Tree_node@U?$pair@$$CBHV?$_Tree_const_iterator@V?$_Tree_val@U?$_Tree_simple_types@U?$pair@$$CBV?$basic_string@DU?$char_traits@D@std@@V?$allocator@D@2@@std@@UCMyTimeSpan@@@std@@@std@@@std@@@std@@@std@@PAX@0@IPAU10@@Z 100318f0 f i utilit.obj
 0001:00030970       ??$_Allocate@U?$_Tree_node@U?$pair@$$CBV?$basic_string@DU?$char_traits@D@std@@V?$allocator@D@2@@std@@UCMyTimeSpan@@@std@@PAX@std@@@std@@YAPAU?$_Tree_node@U?$pair@$$CBV?$basic_string@DU?$char_traits@D@std@@V?$allocator@D@2@@std@@UCMyTimeSpan@@@std@@PAX@0@IPAU10@@Z 10031970 f i utilit.obj
 0001:000309f0       ??$_Allocate@VCShortString@@@std@@YAPAVCShortString@@IPAV1@@Z 100319f0 f i utilit.obj
 0001:00030a70       ??$_Buynode@ABUpiecewise_construct_t@std@@V?$tuple@ABH@2@V?$tuple@$$$V@2@@?$_Tree_buy@U?$pair@$$CBHV?$_Tree_const_iterator@V?$_Tree_val@U?$_Tree_simple_types@U?$pair@$$CBV?$basic_string@DU?$char_traits@D@std@@V?$allocator@D@2@@std@@UCMyTimeSpan@@@std@@@std@@@std@@@std@@@std@@V?$allocator@U?$pair@$$CBHV?$_Tree_const_iterator@V?$_Tree_val@U?$_Tree_simple_types@U?$pair@$$CBV?$basic_string@DU?$char_traits@D@std@@V?$allocator@D@2@@std@@UCMyTimeSpan@@@std@@@std@@@std@@@std@@@std@@@2@@std@@QAEPAU?$_Tree_node@U?$pair@$$CBHV?$_Tree_const_iterator@V?$_Tree_val@U?$_Tree_simple_types@U?$pair@$$CBV?$basic_string@DU?$char_traits@D@std@@V?$allocator@D@2@@std@@UCMyTimeSpan@@@std@@@std@@@std@@@std@@@std@@PAX@1@ABUpiecewise_construct_t@1@$$QAV?$tuple@ABH@1@$$QAV?$tuple@$$$V@1@@Z 10031a70 f i utilit.obj
 0001:00030bd0       ??$_Buynode@U?$pair@V?$basic_string@DU?$char_traits@D@std@@V?$allocator@D@2@@std@@UCMyTimeSpan@@@std@@@?$_Tree_buy@U?$pair@$$CBV?$basic_string@DU?$char_traits@D@std@@V?$allocator@D@2@@std@@UCMyTimeSpan@@@std@@V?$allocator@U?$pair@$$CBV?$basic_string@DU?$char_traits@D@std@@V?$allocator@D@2@@std@@UCMyTimeSpan@@@std@@@2@@std@@QAEPAU?$_Tree_node@U?$pair@$$CBV?$basic_string@DU?$char_traits@D@std@@V?$allocator@D@2@@std@@UCMyTimeSpan@@@std@@PAX@1@$$QAU?$pair@V?$basic_string@DU?$char_traits@D@std@@V?$allocator@D@2@@std@@UCMyTimeSpan@@@1@@Z 10031bd0 f i utilit.obj
 0001:00030d00       ??$_Buynode_if_nil@AAU?$pair@$$CBHV?$_Tree_const_iterator@V?$_Tree_val@U?$_Tree_simple_types@U?$pair@$$CBV?$basic_string@DU?$char_traits@D@std@@V?$allocator@D@2@@std@@UCMyTimeSpan@@@std@@@std@@@std@@@std@@@std@@@?$_Tree@V?$_Tmap_traits@HV?$_Tree_const_iterator@V?$_Tree_val@U?$_Tree_simple_types@U?$pair@$$CBV?$basic_string@DU?$char_traits@D@std@@V?$allocator@D@2@@std@@UCMyTimeSpan@@@std@@@std@@@std@@@std@@U?$less@H@2@V?$allocator@U?$pair@$$CBHV?$_Tree_const_iterator@V?$_Tree_val@U?$_Tree_simple_types@U?$pair@$$CBV?$basic_string@DU?$char_traits@D@std@@V?$allocator@D@2@@std@@UCMyTimeSpan@@@std@@@std@@@std@@@std@@@std@@@2@$0A@@std@@@std@@IAEPAU?$_Tree_node@U?$pair@$$CBHV?$_Tree_const_iterator@V?$_Tree_val@U?$_Tree_simple_types@U?$pair@$$CBV?$basic_string@DU?$char_traits@D@std@@V?$allocator@D@2@@std@@UCMyTimeSpan@@@std@@@std@@@std@@@std@@@std@@PAX@1@PAU21@AAU?$pair@$$CBHV?$_Tree_const_iterator@V?$_Tree_val@U?$_Tree_simple_types@U?$pair@$$CBV?$basic_string@DU?$char_traits@D@std@@V?$allocator@D@2@@std@@UCMyTimeSpan@@@std@@@std@@@std@@@std@@@1@@Z 10031d00 f i utilit.obj
 0001:00030d30       ??$_Buynode_if_nil@AAU?$pair@$$CBV?$basic_string@DU?$char_traits@D@std@@V?$allocator@D@2@@std@@UCMyTimeSpan@@@std@@@?$_Tree@V?$_Tmap_traits@V?$basic_string@DU?$char_traits@D@std@@V?$allocator@D@2@@std@@UCMyTimeSpan@@U?$less@V?$basic_string@DU?$char_traits@D@std@@V?$allocator@D@2@@std@@@2@V?$allocator@U?$pair@$$CBV?$basic_string@DU?$char_traits@D@std@@V?$allocator@D@2@@std@@UCMyTimeSpan@@@std@@@2@$0A@@std@@@std@@IAEPAU?$_Tree_node@U?$pair@$$CBV?$basic_string@DU?$char_traits@D@std@@V?$allocator@D@2@@std@@UCMyTimeSpan@@@std@@PAX@1@PAU21@AAU?$pair@$$CBV?$basic_string@DU?$char_traits@D@std@@V?$allocator@D@2@@std@@UCMyTimeSpan@@@1@@Z 10031d30 f i utilit.obj
 0001:00030d60       ??$_Construct@V?$_Vector_iterator@V?$_Vector_val@U?$_Simple_types@D@std@@@std@@@std@@@?$basic_string@DU?$char_traits@D@std@@V?$allocator@D@2@@std@@QAEXV?$_Vector_iterator@V?$_Vector_val@U?$_Simple_types@D@std@@@std@@@1@0Uforward_iterator_tag@1@@Z 10031d60 f i utilit.obj
 0001:00030f60       ??$_Debug_lt_pred@U?$less@H@std@@ABHABH@std@@YA_NU?$less@H@0@ABH1PB_WI@Z 10031f60 f i utilit.obj
 0001:00031010       ??$_Debug_lt_pred@U?$less@V?$basic_string@DU?$char_traits@D@std@@V?$allocator@D@2@@std@@@std@@ABV?$basic_string@DU?$char_traits@D@std@@V?$allocator@D@2@@2@ABV32@@std@@YA_NU?$less@V?$basic_string@DU?$char_traits@D@std@@V?$allocator@D@2@@std@@@0@ABV?$basic_string@DU?$char_traits@D@std@@V?$allocator@D@2@@0@1PB_WI@Z 10032010 f i utilit.obj
 0001:000310c0       ??$_Debug_pointer@D@std@@YAXPADPB_WI@Z 100320c0 f i utilit.obj
 0001:00031120       ??$_Debug_pointer@V?$_Vector_iterator@V?$_Vector_val@U?$_Simple_types@D@std@@@std@@@std@@@std@@YAXAAV?$_Vector_iterator@V?$_Vector_val@U?$_Simple_types@D@std@@@std@@@0@PB_WI@Z 10032120 f i utilit.obj
 0001:00031150       ??$_Debug_pointer@VCShortString@@@std@@YAXPAVCShortString@@PB_WI@Z 10032150 f i utilit.obj
 0001:000311b0       ??$_Debug_range2@PAD@std@@YAXPAD0PB_WIUrandom_access_iterator_tag@0@@Z 100321b0 f i utilit.obj
 0001:00031240       ??$_Debug_range2@PAVCShortString@@@std@@YAXPAVCShortString@@0PB_WIUrandom_access_iterator_tag@0@@Z 10032240 f i utilit.obj
 0001:000312d0       ??$_Debug_range2@PBD@std@@YAXPBD0PB_WIUrandom_access_iterator_tag@0@@Z 100322d0 f i utilit.obj
 0001:00031360       ??$_Debug_range2@V?$_Vector_iterator@V?$_Vector_val@U?$_Simple_types@D@std@@@std@@@std@@@std@@YAXV?$_Vector_iterator@V?$_Vector_val@U?$_Simple_types@D@std@@@std@@@0@0PB_WIUrandom_access_iterator_tag@0@@Z 10032360 f i utilit.obj
 0001:00031450       ??$_Debug_range@PAD@std@@YAXPAD0PB_WI@Z 10032450 f i utilit.obj
 0001:000314c0       ??$_Debug_range@PAVCShortString@@@std@@YAXPAVCShortString@@0PB_WI@Z 100324c0 f i utilit.obj
 0001:00031530       ??$_Debug_range@PBD@std@@YAXPBD0PB_WI@Z 10032530 f i utilit.obj
 0001:000315a0       ??$_Debug_range@V?$_Vector_iterator@V?$_Vector_val@U?$_Simple_types@D@std@@@std@@@std@@@std@@YAXV?$_Vector_iterator@V?$_Vector_val@U?$_Simple_types@D@std@@@std@@@0@0PB_WI@Z 100325a0 f i utilit.obj
 0001:00031690       ??$_Destroy_range@U?$_Wrap_alloc@V?$allocator@D@std@@@std@@@std@@YAXPAD0AAU?$_Wrap_alloc@V?$allocator@D@std@@@0@@Z 10032690 f i utilit.obj
 0001:00031700       ??$_Destroy_range@U?$_Wrap_alloc@V?$allocator@D@std@@@std@@@std@@YAXPAD0AAU?$_Wrap_alloc@V?$allocator@D@std@@@0@U_Scalar_ptr_iterator_tag@0@@Z 10032700 f i utilit.obj
 0001:00031730       ??$_Destroy_range@U?$_Wrap_alloc@V?$allocator@VCShortString@@@std@@@std@@@std@@YAXPAVCShortString@@0AAU?$_Wrap_alloc@V?$allocator@VCShortString@@@std@@@0@@Z 10032730 f i utilit.obj
 0001:000317a0       ??$_Destroy_range@U?$_Wrap_alloc@V?$allocator@VCShortString@@@std@@@std@@@std@@YAXPAVCShortString@@0AAU?$_Wrap_alloc@V?$allocator@VCShortString@@@std@@@0@U_Nonscalar_ptr_iterator_tag@0@@Z 100327a0 f i utilit.obj
 0001:00031800       ??$_Dist_type@PAD@std@@YAPAHPAD@Z 10032800 f i utilit.obj
 0001:00031830       ??$_Distance2@PADH@std@@YAXPAD0AAHUrandom_access_iterator_tag@0@@Z 10032830 f i utilit.obj
 0001:000318b0       ??$_Distance2@PBDI@std@@YAXPBD0AAIUrandom_access_iterator_tag@0@@Z 100328b0 f i utilit.obj
 0001:00031930       ??$_Distance2@V?$_Vector_iterator@V?$_Vector_val@U?$_Simple_types@D@std@@@std@@@std@@I@std@@YAXV?$_Vector_iterator@V?$_Vector_val@U?$_Simple_types@D@std@@@std@@@0@0AAIUrandom_access_iterator_tag@0@@Z 10032930 f i utilit.obj
 0001:00031a10       ??$_Distance@PBDI@std@@YAXPBD0AAI@Z 10032a10 f i utilit.obj
 0001:00031a70       ??$_Distance@V?$_Vector_iterator@V?$_Vector_val@U?$_Simple_types@D@std@@@std@@@std@@I@std@@YAXV?$_Vector_iterator@V?$_Vector_val@U?$_Simple_types@D@std@@@std@@@0@0AAI@Z 10032a70 f i utilit.obj
 0001:00031b60       ??$_Insert@PBD@?$vector@DV?$allocator@D@std@@@std@@QAEXV?$_Vector_const_iterator@V?$_Vector_val@U?$_Simple_types@D@std@@@std@@@1@PBD1Uforward_iterator_tag@1@@Z 10032b60 f i utilit.obj
 0001:00031e90       ??$_Insert_at@AAU?$pair@$$CBHV?$_Tree_const_iterator@V?$_Tree_val@U?$_Tree_simple_types@U?$pair@$$CBV?$basic_string@DU?$char_traits@D@std@@V?$allocator@D@2@@std@@UCMyTimeSpan@@@std@@@std@@@std@@@std@@@std@@PAU?$_Tree_node@U?$pair@$$CBHV?$_Tree_const_iterator@V?$_Tree_val@U?$_Tree_simple_types@U?$pair@$$CBV?$basic_string@DU?$char_traits@D@std@@V?$allocator@D@2@@std@@UCMyTimeSpan@@@std@@@std@@@std@@@std@@@std@@PAX@2@@?$_Tree@V?$_Tmap_traits@HV?$_Tree_const_iterator@V?$_Tree_val@U?$_Tree_simple_types@U?$pair@$$CBV?$basic_string@DU?$char_traits@D@std@@V?$allocator@D@2@@std@@UCMyTimeSpan@@@std@@@std@@@std@@@std@@U?$less@H@2@V?$allocator@U?$pair@$$CBHV?$_Tree_const_iterator@V?$_Tree_val@U?$_Tree_simple_types@U?$pair@$$CBV?$basic_string@DU?$char_traits@D@std@@V?$allocator@D@2@@std@@UCMyTimeSpan@@@std@@@std@@@std@@@std@@@std@@@2@$0A@@std@@@std@@IAE?AV?$_Tree_iterator@V?$_Tree_val@U?$_Tree_simple_types@U?$pair@$$CBHV?$_Tree_const_iterator@V?$_Tree_val@U?$_Tree_simple_types@U?$pair@$$CBV?$basic_string@DU?$char_traits@D@std@@V?$allocator@D@2@@std@@UCMyTimeSpan@@@std@@@std@@@std@@@std@@@std@@@std@@@std@@@1@_NPAU?$_Tree_node@U?$pair@$$CBHV?$_Tree_const_iterator@V?$_Tree_val@U?$_Tree_simple_types@U?$pair@$$CBV?$basic_string@DU?$char_traits@D@std@@V?$allocator@D@2@@std@@UCMyTimeSpan@@@std@@@std@@@std@@@std@@@std@@PAX@1@AAU?$pair@$$CBHV?$_Tree_const_iterator@V?$_Tree_val@U?$_Tree_simple_types@U?$pair@$$CBV?$basic_string@DU?$char_traits@D@std@@V?$allocator@D@2@@std@@UCMyTimeSpan@@@std@@@std@@@std@@@std@@@1@1@Z 10032e90 f i utilit.obj
 0001:00032300       ??$_Insert_at@AAU?$pair@$$CBV?$basic_string@DU?$char_traits@D@std@@V?$allocator@D@2@@std@@UCMyTimeSpan@@@std@@PAU?$_Tree_node@U?$pair@$$CBV?$basic_string@DU?$char_traits@D@std@@V?$allocator@D@2@@std@@UCMyTimeSpan@@@std@@PAX@2@@?$_Tree@V?$_Tmap_traits@V?$basic_string@DU?$char_traits@D@std@@V?$allocator@D@2@@std@@UCMyTimeSpan@@U?$less@V?$basic_string@DU?$char_traits@D@std@@V?$allocator@D@2@@std@@@2@V?$allocator@U?$pair@$$CBV?$basic_string@DU?$char_traits@D@std@@V?$allocator@D@2@@std@@UCMyTimeSpan@@@std@@@2@$0A@@std@@@std@@IAE?AV?$_Tree_iterator@V?$_Tree_val@U?$_Tree_simple_types@U?$pair@$$CBV?$basic_string@DU?$char_traits@D@std@@V?$allocator@D@2@@std@@UCMyTimeSpan@@@std@@@std@@@std@@@1@_NPAU?$_Tree_node@U?$pair@$$CBV?$basic_string@DU?$char_traits@D@std@@V?$allocator@D@2@@std@@UCMyTimeSpan@@@std@@PAX@1@AAU?$pair@$$CBV?$basic_string@DU?$char_traits@D@std@@V?$allocator@D@2@@std@@UCMyTimeSpan@@@1@1@Z 10033300 f i utilit.obj
 0001:00032770       ??$_Insert_hint@AAU?$pair@$$CBHV?$_Tree_const_iterator@V?$_Tree_val@U?$_Tree_simple_types@U?$pair@$$CBV?$basic_string@DU?$char_traits@D@std@@V?$allocator@D@2@@std@@UCMyTimeSpan@@@std@@@std@@@std@@@std@@@std@@PAU?$_Tree_node@U?$pair@$$CBHV?$_Tree_const_iterator@V?$_Tree_val@U?$_Tree_simple_types@U?$pair@$$CBV?$basic_string@DU?$char_traits@D@std@@V?$allocator@D@2@@std@@UCMyTimeSpan@@@std@@@std@@@std@@@std@@@std@@PAX@2@@?$_Tree@V?$_Tmap_traits@HV?$_Tree_const_iterator@V?$_Tree_val@U?$_Tree_simple_types@U?$pair@$$CBV?$basic_string@DU?$char_traits@D@std@@V?$allocator@D@2@@std@@UCMyTimeSpan@@@std@@@std@@@std@@@std@@U?$less@H@2@V?$allocator@U?$pair@$$CBHV?$_Tree_const_iterator@V?$_Tree_val@U?$_Tree_simple_types@U?$pair@$$CBV?$basic_string@DU?$char_traits@D@std@@V?$allocator@D@2@@std@@UCMyTimeSpan@@@std@@@std@@@std@@@std@@@std@@@2@$0A@@std@@@std@@IAE?AV?$_Tree_iterator@V?$_Tree_val@U?$_Tree_simple_types@U?$pair@$$CBHV?$_Tree_const_iterator@V?$_Tree_val@U?$_Tree_simple_types@U?$pair@$$CBV?$basic_string@DU?$char_traits@D@std@@V?$allocator@D@2@@std@@UCMyTimeSpan@@@std@@@std@@@std@@@std@@@std@@@std@@@std@@@1@V?$_Tree_const_iterator@V?$_Tree_val@U?$_Tree_simple_types@U?$pair@$$CBHV?$_Tree_const_iterator@V?$_Tree_val@U?$_Tree_simple_types@U?$pair@$$CBV?$basic_string@DU?$char_traits@D@std@@V?$allocator@D@2@@std@@UCMyTimeSpan@@@std@@@std@@@std@@@std@@@std@@@std@@@std@@@1@AAU?$pair@$$CBHV?$_Tree_const_iterator@V?$_Tree_val@U?$_Tree_simple_types@U?$pair@$$CBV?$basic_string@DU?$char_traits@D@std@@V?$allocator@D@2@@std@@UCMyTimeSpan@@@std@@@std@@@std@@@std@@@1@PAU?$_Tree_node@U?$pair@$$CBHV?$_Tree_const_iterator@V?$_Tree_val@U?$_Tree_simple_types@U?$pair@$$CBV?$basic_string@DU?$char_traits@D@std@@V?$allocator@D@2@@std@@UCMyTimeSpan@@@std@@@std@@@std@@@std@@@std@@PAX@1@@Z 10033770 f i utilit.obj
 0001:00033a20       ??$_Insert_nohint@AAU?$pair@$$CBHV?$_Tree_const_iterator@V?$_Tree_val@U?$_Tree_simple_types@U?$pair@$$CBV?$basic_string@DU?$char_traits@D@std@@V?$allocator@D@2@@std@@UCMyTimeSpan@@@std@@@std@@@std@@@std@@@std@@PAU?$_Tree_node@U?$pair@$$CBHV?$_Tree_const_iterator@V?$_Tree_val@U?$_Tree_simple_types@U?$pair@$$CBV?$basic_string@DU?$char_traits@D@std@@V?$allocator@D@2@@std@@UCMyTimeSpan@@@std@@@std@@@std@@@std@@@std@@PAX@2@@?$_Tree@V?$_Tmap_traits@HV?$_Tree_const_iterator@V?$_Tree_val@U?$_Tree_simple_types@U?$pair@$$CBV?$basic_string@DU?$char_traits@D@std@@V?$allocator@D@2@@std@@UCMyTimeSpan@@@std@@@std@@@std@@@std@@U?$less@H@2@V?$allocator@U?$pair@$$CBHV?$_Tree_const_iterator@V?$_Tree_val@U?$_Tree_simple_types@U?$pair@$$CBV?$basic_string@DU?$char_traits@D@std@@V?$allocator@D@2@@std@@UCMyTimeSpan@@@std@@@std@@@std@@@std@@@std@@@2@$0A@@std@@@std@@IAE?AU?$pair@V?$_Tree_iterator@V?$_Tree_val@U?$_Tree_simple_types@U?$pair@$$CBHV?$_Tree_const_iterator@V?$_Tree_val@U?$_Tree_simple_types@U?$pair@$$CBV?$basic_string@DU?$char_traits@D@std@@V?$allocator@D@2@@std@@UCMyTimeSpan@@@std@@@std@@@std@@@std@@@std@@@std@@@std@@@std@@_N@1@_NAAU?$pair@$$CBHV?$_Tree_const_iterator@V?$_Tree_val@U?$_Tree_simple_types@U?$pair@$$CBV?$basic_string@DU?$char_traits@D@std@@V?$allocator@D@2@@std@@UCMyTimeSpan@@@std@@@std@@@std@@@std@@@1@PAU?$_Tree_node@U?$pair@$$CBHV?$_Tree_const_iterator@V?$_Tree_val@U?$_Tree_simple_types@U?$pair@$$CBV?$basic_string@DU?$char_traits@D@std@@V?$allocator@D@2@@std@@UCMyTimeSpan@@@std@@@std@@@std@@@std@@@std@@PAX@1@@Z 10034a20 f i utilit.obj
 0001:00033ff0       ??$_Insert_nohint@AAU?$pair@$$CBV?$basic_string@DU?$char_traits@D@std@@V?$allocator@D@2@@std@@UCMyTimeSpan@@@std@@PAU?$_Tree_node@U?$pair@$$CBV?$basic_string@DU?$char_traits@D@std@@V?$allocator@D@2@@std@@UCMyTimeSpan@@@std@@PAX@2@@?$_Tree@V?$_Tmap_traits@V?$basic_string@DU?$char_traits@D@std@@V?$allocator@D@2@@std@@UCMyTimeSpan@@U?$less@V?$basic_string@DU?$char_traits@D@std@@V?$allocator@D@2@@std@@@2@V?$allocator@U?$pair@$$CBV?$basic_string@DU?$char_traits@D@std@@V?$allocator@D@2@@std@@UCMyTimeSpan@@@std@@@2@$0A@@std@@@std@@IAE?AU?$pair@V?$_Tree_iterator@V?$_Tree_val@U?$_Tree_simple_types@U?$pair@$$CBV?$basic_string@DU?$char_traits@D@std@@V?$allocator@D@2@@std@@UCMyTimeSpan@@@std@@@std@@@std@@@std@@_N@1@_NAAU?$pair@$$CBV?$basic_string@DU?$char_traits@D@std@@V?$allocator@D@2@@std@@UCMyTimeSpan@@@1@PAU?$_Tree_node@U?$pair@$$CBV?$basic_string@DU?$char_traits@D@std@@V?$allocator@D@2@@std@@UCMyTimeSpan@@@std@@PAX@1@@Z 10034ff0 f i utilit.obj
 0001:000345c0       ??$_Iter_cat@PAD@std@@YA?AUrandom_access_iterator_tag@0@ABQAD@Z 100355c0 f i utilit.obj
 0001:00034620       ??$_Iter_cat@PAVCShortString@@@std@@YA?AUrandom_access_iterator_tag@0@ABQAVCShortString@@@Z 10035620 f i utilit.obj
 0001:00034680       ??$_Iter_cat@PBD@std@@YA?AUrandom_access_iterator_tag@0@ABQBD@Z 10035680 f i utilit.obj
 0001:000346e0       ??$_Iter_cat@V?$_Vector_iterator@V?$_Vector_val@U?$_Simple_types@D@std@@@std@@@std@@@std@@YA?AUrandom_access_iterator_tag@0@ABV?$_Vector_iterator@V?$_Vector_val@U?$_Simple_types@D@std@@@std@@@0@@Z 100356e0 f i utilit.obj
 0001:00034740       ??$_Kfn@$$CBHV?$_Tree_const_iterator@V?$_Tree_val@U?$_Tree_simple_types@U?$pair@$$CBV?$basic_string@DU?$char_traits@D@std@@V?$allocator@D@2@@std@@UCMyTimeSpan@@@std@@@std@@@std@@@std@@@?$_Tmap_traits@HV?$_Tree_const_iterator@V?$_Tree_val@U?$_Tree_simple_types@U?$pair@$$CBV?$basic_string@DU?$char_traits@D@std@@V?$allocator@D@2@@std@@UCMyTimeSpan@@@std@@@std@@@std@@@std@@U?$less@H@2@V?$allocator@U?$pair@$$CBHV?$_Tree_const_iterator@V?$_Tree_val@U?$_Tree_simple_types@U?$pair@$$CBV?$basic_string@DU?$char_traits@D@std@@V?$allocator@D@2@@std@@UCMyTimeSpan@@@std@@@std@@@std@@@std@@@std@@@2@$0A@@std@@SAABHABU?$pair@$$CBHV?$_Tree_const_iterator@V?$_Tree_val@U?$_Tree_simple_types@U?$pair@$$CBV?$basic_string@DU?$char_traits@D@std@@V?$allocator@D@2@@std@@UCMyTimeSpan@@@std@@@std@@@std@@@std@@@1@@Z 10035740 f i utilit.obj
 0001:00034770       ??$_Kfn@$$CBV?$basic_string@DU?$char_traits@D@std@@V?$allocator@D@2@@std@@UCMyTimeSpan@@@?$_Tmap_traits@V?$basic_string@DU?$char_traits@D@std@@V?$allocator@D@2@@std@@UCMyTimeSpan@@U?$less@V?$basic_string@DU?$char_traits@D@std@@V?$allocator@D@2@@std@@@2@V?$allocator@U?$pair@$$CBV?$basic_string@DU?$char_traits@D@std@@V?$allocator@D@2@@std@@UCMyTimeSpan@@@std@@@2@$0A@@std@@SAABV?$basic_string@DU?$char_traits@D@std@@V?$allocator@D@2@@1@ABU?$pair@$$CBV?$basic_string@DU?$char_traits@D@std@@V?$allocator@D@2@@std@@UCMyTimeSpan@@@1@@Z 10035770 f i utilit.obj
 0001:000347a0       ??$_Move@AAD@std@@YA$$QADAAD@Z 100357a0 f i utilit.obj
 0001:000347d0       ??$_Ptr_cat@DD@std@@YA?AU_Scalar_ptr_iterator_tag@0@PAD0@Z 100357d0 f i utilit.obj
 0001:00034830       ??$_Ptr_cat@DD@std@@YA?AU_Scalar_ptr_iterator_tag@0@PBDPAD@Z 10035830 f i utilit.obj
 0001:00034890       ??$_Ptr_cat@VCShortString@@V1@@std@@YA?AU_Nonscalar_ptr_iterator_tag@0@PAVCShortString@@0@Z 10035890 f i utilit.obj
 0001:000348f0       ??$_Rechecked@PADPAD@std@@YAAAPADAAPADPAD@Z 100358f0 f i utilit.obj
 0001:00034920       ??$_Rechecked@PAVCShortString@@PAV1@@std@@YAAAPAVCShortString@@AAPAV1@PAV1@@Z 10035920 f i utilit.obj
 0001:00034950       ??$_Rotate@PAD@std@@YAXPAD00Urandom_access_iterator_tag@0@@Z 10035950 f i utilit.obj
 0001:000349b0       ??$_Rotate@PADHD@std@@YAXPAD00PAH0@Z 100359b0 f i utilit.obj
 0001:00034ae0       ??$_Ucopy@PBD@?$vector@DV?$allocator@D@std@@@std@@IAEPADPBD0PAD@Z 10035ae0 f i utilit.obj
 0001:00034b70       ??$_Umove@PAD@?$vector@DV?$allocator@D@std@@@std@@IAEPADPAD00@Z 10035b70 f i utilit.obj
 0001:00034c00       ??$_Umove@PAVCShortString@@@?$vector@VCShortString@@V?$allocator@VCShortString@@@std@@@std@@IAEPAVCShortString@@PAV2@00@Z 10035c00 f i utilit.obj
 0001:00034c90       ??$_Unchecked@PAD@std@@YAPADPAD@Z 10035c90 f i utilit.obj
 0001:00034cc0       ??$_Unchecked@PAVCShortString@@@std@@YAPAVCShortString@@PAV1@@Z 10035cc0 f i utilit.obj
 0001:00034cf0       ??$_Unchecked@PBD@std@@YAPBDPBD@Z 10035cf0 f i utilit.obj
 0001:00034d20       ??$_Uninit_copy@$$CBDD@std@@YAPADPBD0PADAAU?$_Wrap_alloc@V?$allocator@D@std@@@0@U_Scalar_ptr_iterator_tag@0@@Z 10035d20 f i utilit.obj
 0001:00034db0       ??$_Uninit_copy@PBDPADU?$_Wrap_alloc@V?$allocator@D@std@@@std@@@std@@YAPADPBD0PADAAU?$_Wrap_alloc@V?$allocator@D@std@@@0@@Z 10035db0 f i utilit.obj
 0001:00034e20       ??$_Uninit_move@DDD@std@@YAPADPAD00AAU?$_Wrap_alloc@V?$allocator@D@std@@@0@0U_Scalar_ptr_iterator_tag@0@@Z 10035e20 f i utilit.obj
 0001:00034eb0       ??$_Uninit_move@PADPADU?$_Wrap_alloc@V?$allocator@D@std@@@std@@@std@@YAPADPAD00AAU?$_Wrap_alloc@V?$allocator@D@std@@@0@@Z 10035eb0 f i utilit.obj
 0001:00034f30       ??$_Uninit_move@PAVCShortString@@PAV1@U?$_Wrap_alloc@V?$allocator@VCShortString@@@std@@@std@@@std@@YAPAVCShortString@@PAV1@00AAU?$_Wrap_alloc@V?$allocator@VCShortString@@@std@@@0@@Z 10035f30 f i utilit.obj
 0001:00034fb0       ??$_Uninit_move@PAVCShortString@@PAV1@V?$allocator@VCShortString@@@std@@V1@@std@@YAPAVCShortString@@PAV1@00AAU?$_Wrap_alloc@V?$allocator@VCShortString@@@std@@@0@0U_Nonscalar_ptr_iterator_tag@0@@Z 10035fb0 f i utilit.obj
 0001:000350c0       ??$_Uninitialized_copy@PBDPADU?$_Wrap_alloc@V?$allocator@D@std@@@std@@@std@@YAPADPBD0PADAAU?$_Wrap_alloc@V?$allocator@D@std@@@0@@Z 100360c0 f i utilit.obj
 0001:00035140       ??$_Uninitialized_move@PADPADU?$_Wrap_alloc@V?$allocator@D@std@@@std@@@std@@YAPADPAD00AAU?$_Wrap_alloc@V?$allocator@D@std@@@0@@Z 10036140 f i utilit.obj
 0001:000351c0       ??$_Uninitialized_move@PAVCShortString@@PAV1@U?$_Wrap_alloc@V?$allocator@VCShortString@@@std@@@std@@@std@@YAPAVCShortString@@PAV1@00AAU?$_Wrap_alloc@V?$allocator@VCShortString@@@std@@@0@@Z 100361c0 f i utilit.obj
 0001:00035240       ??$_Val_type@PAD@std@@YAPADPAD@Z 10036240 f i utilit.obj
 0001:00035270       ??$_Val_type@PAVCShortString@@@std@@YAPAVCShortString@@PAV1@@Z 10036270 f i utilit.obj
 0001:000352a0       ??$addressof@$$CBD@std@@YAPBDABD@Z 100362a0 f i utilit.obj
 0001:000352d0       ??$addressof@$$CBU?$pair@$$CBHV?$_Tree_const_iterator@V?$_Tree_val@U?$_Tree_simple_types@U?$pair@$$CBV?$basic_string@DU?$char_traits@D@std@@V?$allocator@D@2@@std@@UCMyTimeSpan@@@std@@@std@@@std@@@std@@@std@@@std@@YAPBU?$pair@$$CBHV?$_Tree_const_iterator@V?$_Tree_val@U?$_Tree_simple_types@U?$pair@$$CBV?$basic_string@DU?$char_traits@D@std@@V?$allocator@D@2@@std@@UCMyTimeSpan@@@std@@@std@@@std@@@std@@@0@ABU10@@Z 100362d0 f i utilit.obj
 0001:00035300       ??$addressof@$$CBU?$pair@$$CBV?$basic_string@DU?$char_traits@D@std@@V?$allocator@D@2@@std@@UCMyTimeSpan@@@std@@@std@@YAPBU?$pair@$$CBV?$basic_string@DU?$char_traits@D@std@@V?$allocator@D@2@@std@@UCMyTimeSpan@@@0@ABU10@@Z 10036300 f i utilit.obj
 0001:00035330       ??$addressof@$$CBV?$basic_string@DU?$char_traits@D@std@@V?$allocator@D@2@@std@@@std@@YAPBV?$basic_string@DU?$char_traits@D@std@@V?$allocator@D@2@@0@ABV10@@Z 10036330 f i utilit.obj
 0001:00035360       ??$addressof@$$CBVCShortString@@@std@@YAPBVCShortString@@ABV1@@Z 10036360 f i utilit.obj
 0001:00035390       ??$addressof@PAU?$_Tree_node@U?$pair@$$CBHV?$_Tree_const_iterator@V?$_Tree_val@U?$_Tree_simple_types@U?$pair@$$CBV?$basic_string@DU?$char_traits@D@std@@V?$allocator@D@2@@std@@UCMyTimeSpan@@@std@@@std@@@std@@@std@@@std@@PAX@std@@@std@@YAPAPAU?$_Tree_node@U?$pair@$$CBHV?$_Tree_const_iterator@V?$_Tree_val@U?$_Tree_simple_types@U?$pair@$$CBV?$basic_string@DU?$char_traits@D@std@@V?$allocator@D@2@@std@@UCMyTimeSpan@@@std@@@std@@@std@@@std@@@std@@PAX@0@AAPAU10@@Z 10036390 f i utilit.obj
 0001:000353c0       ??$addressof@PAU?$_Tree_node@U?$pair@$$CBV?$basic_string@DU?$char_traits@D@std@@V?$allocator@D@2@@std@@UCMyTimeSpan@@@std@@PAX@std@@@std@@YAPAPAU?$_Tree_node@U?$pair@$$CBV?$basic_string@DU?$char_traits@D@std@@V?$allocator@D@2@@std@@UCMyTimeSpan@@@std@@PAX@0@AAPAU10@@Z 100363c0 f i utilit.obj
 0001:000353f0       ??$addressof@U?$pair@$$CBHV?$_Tree_const_iterator@V?$_Tree_val@U?$_Tree_simple_types@U?$pair@$$CBV?$basic_string@DU?$char_traits@D@std@@V?$allocator@D@2@@std@@UCMyTimeSpan@@@std@@@std@@@std@@@std@@@std@@@std@@YAPAU?$pair@$$CBHV?$_Tree_const_iterator@V?$_Tree_val@U?$_Tree_simple_types@U?$pair@$$CBV?$basic_string@DU?$char_traits@D@std@@V?$allocator@D@2@@std@@UCMyTimeSpan@@@std@@@std@@@std@@@std@@@0@AAU10@@Z 100363f0 f i utilit.obj
 0001:00035420       ??$addressof@U?$pair@$$CBV?$basic_string@DU?$char_traits@D@std@@V?$allocator@D@2@@std@@UCMyTimeSpan@@@std@@@std@@YAPAU?$pair@$$CBV?$basic_string@DU?$char_traits@D@std@@V?$allocator@D@2@@std@@UCMyTimeSpan@@@0@AAU10@@Z 10036420 f i utilit.obj
 0001:00035450       ??$advance@PADH@std@@YAXAAPADH@Z 10036450 f i utilit.obj
 0001:000354b0       ??$assign@V?$_String_iterator@V?$_String_val@U?$_Simple_types@D@std@@@std@@@std@@@?$basic_string@DU?$char_traits@D@std@@V?$allocator@D@2@@std@@QAEAAV01@V?$_String_iterator@V?$_String_val@U?$_Simple_types@D@std@@@std@@@1@0@Z 100364b0 f i utilit.obj
 0001:00035660       ??$construct@DAAD@?$_Wrap_alloc@V?$allocator@D@std@@@std@@QAEXPADAAD@Z 10036660 f i utilit.obj
 0001:000356c0       ??$construct@DAAD@?$allocator@D@std@@QAEXPADAAD@Z 100366c0 f i utilit.obj
 0001:00035790       ??$construct@DAAD@?$allocator_traits@V?$allocator@D@std@@@std@@SAXAAV?$allocator@D@1@PADAAD@Z 10036790 f i utilit.obj
 0001:000357e0       ??$construct@DABD@?$_Wrap_alloc@V?$allocator@D@std@@@std@@QAEXPADABD@Z 100367e0 f i utilit.obj
 0001:00035840       ??$construct@DABD@?$allocator_traits@V?$allocator@D@std@@@std@@SAXAAV?$allocator@D@1@PADABD@Z 10036840 f i utilit.obj
 0001:00035890       ??$construct@DD@?$_Wrap_alloc@V?$allocator@D@std@@@std@@QAEXPAD$$QAD@Z 10036890 f i utilit.obj
 0001:000358f0       ??$construct@DD@?$allocator@D@std@@QAEXPAD$$QAD@Z 100368f0 f i utilit.obj
 0001:000359c0       ??$construct@DD@?$allocator_traits@V?$allocator@D@std@@@std@@SAXAAV?$allocator@D@1@PAD$$QAD@Z 100369c0 f i utilit.obj
 0001:00035a10       ??$construct@PAU?$_Tree_node@U?$pair@$$CBHV?$_Tree_const_iterator@V?$_Tree_val@U?$_Tree_simple_types@U?$pair@$$CBV?$basic_string@DU?$char_traits@D@std@@V?$allocator@D@2@@std@@UCMyTimeSpan@@@std@@@std@@@std@@@std@@@std@@PAX@std@@AAPAU12@@?$_Wrap_alloc@V?$allocator@U?$_Tree_node@U?$pair@$$CBHV?$_Tree_const_iterator@V?$_Tree_val@U?$_Tree_simple_types@U?$pair@$$CBV?$basic_string@DU?$char_traits@D@std@@V?$allocator@D@2@@std@@UCMyTimeSpan@@@std@@@std@@@std@@@std@@@std@@PAX@std@@@std@@@std@@QAEXPAPAU?$_Tree_node@U?$pair@$$CBHV?$_Tree_const_iterator@V?$_Tree_val@U?$_Tree_simple_types@U?$pair@$$CBV?$basic_string@DU?$char_traits@D@std@@V?$allocator@D@2@@std@@UCMyTimeSpan@@@std@@@std@@@std@@@std@@@std@@PAX@1@AAPAU21@@Z 10036a10 f i utilit.obj
 0001:00035a70       ??$construct@PAU?$_Tree_node@U?$pair@$$CBHV?$_Tree_const_iterator@V?$_Tree_val@U?$_Tree_simple_types@U?$pair@$$CBV?$basic_string@DU?$char_traits@D@std@@V?$allocator@D@2@@std@@UCMyTimeSpan@@@std@@@std@@@std@@@std@@@std@@PAX@std@@AAPAU12@@?$allocator@U?$_Tree_node@U?$pair@$$CBHV?$_Tree_const_iterator@V?$_Tree_val@U?$_Tree_simple_types@U?$pair@$$CBV?$basic_string@DU?$char_traits@D@std@@V?$allocator@D@2@@std@@UCMyTimeSpan@@@std@@@std@@@std@@@std@@@std@@PAX@std@@@std@@QAEXPAPAU?$_Tree_node@U?$pair@$$CBHV?$_Tree_const_iterator@V?$_Tree_val@U?$_Tree_simple_types@U?$pair@$$CBV?$basic_string@DU?$char_traits@D@std@@V?$allocator@D@2@@std@@UCMyTimeSpan@@@std@@@std@@@std@@@std@@@std@@PAX@1@AAPAU21@@Z 10036a70 f i utilit.obj
 0001:00035b40       ??$construct@PAU?$_Tree_node@U?$pair@$$CBHV?$_Tree_const_iterator@V?$_Tree_val@U?$_Tree_simple_types@U?$pair@$$CBV?$basic_string@DU?$char_traits@D@std@@V?$allocator@D@2@@std@@UCMyTimeSpan@@@std@@@std@@@std@@@std@@@std@@PAX@std@@AAPAU12@@?$allocator_traits@V?$allocator@U?$_Tree_node@U?$pair@$$CBHV?$_Tree_const_iterator@V?$_Tree_val@U?$_Tree_simple_types@U?$pair@$$CBV?$basic_string@DU?$char_traits@D@std@@V?$allocator@D@2@@std@@UCMyTimeSpan@@@std@@@std@@@std@@@std@@@std@@PAX@std@@@std@@@std@@SAXAAV?$allocator@U?$_Tree_node@U?$pair@$$CBHV?$_Tree_const_iterator@V?$_Tree_val@U?$_Tree_simple_types@U?$pair@$$CBV?$basic_string@DU?$char_traits@D@std@@V?$allocator@D@2@@std@@UCMyTimeSpan@@@std@@@std@@@std@@@std@@@std@@PAX@std@@@1@PAPAU?$_Tree_node@U?$pair@$$CBHV?$_Tree_const_iterator@V?$_Tree_val@U?$_Tree_simple_types@U?$pair@$$CBV?$basic_string@DU?$char_traits@D@std@@V?$allocator@D@2@@std@@UCMyTimeSpan@@@std@@@std@@@std@@@std@@@std@@PAX@1@AAPAU31@@Z 10036b40 f i utilit.obj
 0001:00035b90       ??$construct@PAU?$_Tree_node@U?$pair@$$CBV?$basic_string@DU?$char_traits@D@std@@V?$allocator@D@2@@std@@UCMyTimeSpan@@@std@@PAX@std@@AAPAU12@@?$_Wrap_alloc@V?$allocator@U?$_Tree_node@U?$pair@$$CBV?$basic_string@DU?$char_traits@D@std@@V?$allocator@D@2@@std@@UCMyTimeSpan@@@std@@PAX@std@@@std@@@std@@QAEXPAPAU?$_Tree_node@U?$pair@$$CBV?$basic_string@DU?$char_traits@D@std@@V?$allocator@D@2@@std@@UCMyTimeSpan@@@std@@PAX@1@AAPAU21@@Z 10036b90 f i utilit.obj
 0001:00035bf0       ??$construct@PAU?$_Tree_node@U?$pair@$$CBV?$basic_string@DU?$char_traits@D@std@@V?$allocator@D@2@@std@@UCMyTimeSpan@@@std@@PAX@std@@AAPAU12@@?$allocator@U?$_Tree_node@U?$pair@$$CBV?$basic_string@DU?$char_traits@D@std@@V?$allocator@D@2@@std@@UCMyTimeSpan@@@std@@PAX@std@@@std@@QAEXPAPAU?$_Tree_node@U?$pair@$$CBV?$basic_string@DU?$char_traits@D@std@@V?$allocator@D@2@@std@@UCMyTimeSpan@@@std@@PAX@1@AAPAU21@@Z 10036bf0 f i utilit.obj
 0001:00035cc0       ??$construct@PAU?$_Tree_node@U?$pair@$$CBV?$basic_string@DU?$char_traits@D@std@@V?$allocator@D@2@@std@@UCMyTimeSpan@@@std@@PAX@std@@AAPAU12@@?$allocator_traits@V?$allocator@U?$_Tree_node@U?$pair@$$CBV?$basic_string@DU?$char_traits@D@std@@V?$allocator@D@2@@std@@UCMyTimeSpan@@@std@@PAX@std@@@std@@@std@@SAXAAV?$allocator@U?$_Tree_node@U?$pair@$$CBV?$basic_string@DU?$char_traits@D@std@@V?$allocator@D@2@@std@@UCMyTimeSpan@@@std@@PAX@std@@@1@PAPAU?$_Tree_node@U?$pair@$$CBV?$basic_string@DU?$char_traits@D@std@@V?$allocator@D@2@@std@@UCMyTimeSpan@@@std@@PAX@1@AAPAU31@@Z 10036cc0 f i utilit.obj
 0001:00035d10       ??$construct@U?$pair@$$CBHV?$_Tree_const_iterator@V?$_Tree_val@U?$_Tree_simple_types@U?$pair@$$CBV?$basic_string@DU?$char_traits@D@std@@V?$allocator@D@2@@std@@UCMyTimeSpan@@@std@@@std@@@std@@@std@@@std@@ABUpiecewise_construct_t@2@V?$tuple@ABH@2@V?$tuple@$$$V@2@@?$_Wrap_alloc@V?$allocator@U?$_Tree_node@U?$pair@$$CBHV?$_Tree_const_iterator@V?$_Tree_val@U?$_Tree_simple_types@U?$pair@$$CBV?$basic_string@DU?$char_traits@D@std@@V?$allocator@D@2@@std@@UCMyTimeSpan@@@std@@@std@@@std@@@std@@@std@@PAX@std@@@std@@@std@@QAEXPAU?$pair@$$CBHV?$_Tree_const_iterator@V?$_Tree_val@U?$_Tree_simple_types@U?$pair@$$CBV?$basic_string@DU?$char_traits@D@std@@V?$allocator@D@2@@std@@UCMyTimeSpan@@@std@@@std@@@std@@@std@@@1@ABUpiecewise_construct_t@1@$$QAV?$tuple@ABH@1@$$QAV?$tuple@$$$V@1@@Z 10036d10 f i utilit.obj
 0001:00035d80       ??$construct@U?$pair@$$CBHV?$_Tree_const_iterator@V?$_Tree_val@U?$_Tree_simple_types@U?$pair@$$CBV?$basic_string@DU?$char_traits@D@std@@V?$allocator@D@2@@std@@UCMyTimeSpan@@@std@@@std@@@std@@@std@@@std@@ABUpiecewise_construct_t@2@V?$tuple@ABH@2@V?$tuple@$$$V@2@@?$allocator@U?$_Tree_node@U?$pair@$$CBHV?$_Tree_const_iterator@V?$_Tree_val@U?$_Tree_simple_types@U?$pair@$$CBV?$basic_string@DU?$char_traits@D@std@@V?$allocator@D@2@@std@@UCMyTimeSpan@@@std@@@std@@@std@@@std@@@std@@PAX@std@@@std@@QAEXPAU?$pair@$$CBHV?$_Tree_const_iterator@V?$_Tree_val@U?$_Tree_simple_types@U?$pair@$$CBV?$basic_string@DU?$char_traits@D@std@@V?$allocator@D@2@@std@@UCMyTimeSpan@@@std@@@std@@@std@@@std@@@1@ABUpiecewise_construct_t@1@$$QAV?$tuple@ABH@1@$$QAV?$tuple@$$$V@1@@Z 10036d80 f i utilit.obj
 0001:00035e80       ??$construct@U?$pair@$$CBHV?$_Tree_const_iterator@V?$_Tree_val@U?$_Tree_simple_types@U?$pair@$$CBV?$basic_string@DU?$char_traits@D@std@@V?$allocator@D@2@@std@@UCMyTimeSpan@@@std@@@std@@@std@@@std@@@std@@ABUpiecewise_construct_t@2@V?$tuple@ABH@2@V?$tuple@$$$V@2@@?$allocator_traits@V?$allocator@U?$_Tree_node@U?$pair@$$CBHV?$_Tree_const_iterator@V?$_Tree_val@U?$_Tree_simple_types@U?$pair@$$CBV?$basic_string@DU?$char_traits@D@std@@V?$allocator@D@2@@std@@UCMyTimeSpan@@@std@@@std@@@std@@@std@@@std@@PAX@std@@@std@@@std@@SAXAAV?$allocator@U?$_Tree_node@U?$pair@$$CBHV?$_Tree_const_iterator@V?$_Tree_val@U?$_Tree_simple_types@U?$pair@$$CBV?$basic_string@DU?$char_traits@D@std@@V?$allocator@D@2@@std@@UCMyTimeSpan@@@std@@@std@@@std@@@std@@@std@@PAX@std@@@1@PAU?$pair@$$CBHV?$_Tree_const_iterator@V?$_Tree_val@U?$_Tree_simple_types@U?$pair@$$CBV?$basic_string@DU?$char_traits@D@std@@V?$allocator@D@2@@std@@UCMyTimeSpan@@@std@@@std@@@std@@@std@@@1@ABUpiecewise_construct_t@1@$$QAV?$tuple@ABH@1@$$QAV?$tuple@$$$V@1@@Z 10036e80 f i utilit.obj
 0001:00035ef0       ??$construct@U?$pair@$$CBV?$basic_string@DU?$char_traits@D@std@@V?$allocator@D@2@@std@@UCMyTimeSpan@@@std@@U?$pair@V?$basic_string@DU?$char_traits@D@std@@V?$allocator@D@2@@std@@UCMyTimeSpan@@@2@@?$_Wrap_alloc@V?$allocator@U?$_Tree_node@U?$pair@$$CBV?$basic_string@DU?$char_traits@D@std@@V?$allocator@D@2@@std@@UCMyTimeSpan@@@std@@PAX@std@@@std@@@std@@QAEXPAU?$pair@$$CBV?$basic_string@DU?$char_traits@D@std@@V?$allocator@D@2@@std@@UCMyTimeSpan@@@1@$$QAU?$pair@V?$basic_string@DU?$char_traits@D@std@@V?$allocator@D@2@@std@@UCMyTimeSpan@@@1@@Z 10036ef0 f i utilit.obj
 0001:00035f50       ??$construct@U?$pair@$$CBV?$basic_string@DU?$char_traits@D@std@@V?$allocator@D@2@@std@@UCMyTimeSpan@@@std@@U?$pair@V?$basic_string@DU?$char_traits@D@std@@V?$allocator@D@2@@std@@UCMyTimeSpan@@@2@@?$allocator@U?$_Tree_node@U?$pair@$$CBV?$basic_string@DU?$char_traits@D@std@@V?$allocator@D@2@@std@@UCMyTimeSpan@@@std@@PAX@std@@@std@@QAEXPAU?$pair@$$CBV?$basic_string@DU?$char_traits@D@std@@V?$allocator@D@2@@std@@UCMyTimeSpan@@@1@$$QAU?$pair@V?$basic_string@DU?$char_traits@D@std@@V?$allocator@D@2@@std@@UCMyTimeSpan@@@1@@Z 10036f50 f i utilit.obj
 0001:00036020       ??$construct@U?$pair@$$CBV?$basic_string@DU?$char_traits@D@std@@V?$allocator@D@2@@std@@UCMyTimeSpan@@@std@@U?$pair@V?$basic_string@DU?$char_traits@D@std@@V?$allocator@D@2@@std@@UCMyTimeSpan@@@2@@?$allocator_traits@V?$allocator@U?$_Tree_node@U?$pair@$$CBV?$basic_string@DU?$char_traits@D@std@@V?$allocator@D@2@@std@@UCMyTimeSpan@@@std@@PAX@std@@@std@@@std@@SAXAAV?$allocator@U?$_Tree_node@U?$pair@$$CBV?$basic_string@DU?$char_traits@D@std@@V?$allocator@D@2@@std@@UCMyTimeSpan@@@std@@PAX@std@@@1@PAU?$pair@$$CBV?$basic_string@DU?$char_traits@D@std@@V?$allocator@D@2@@std@@UCMyTimeSpan@@@1@$$QAU?$pair@V?$basic_string@DU?$char_traits@D@std@@V?$allocator@D@2@@std@@UCMyTimeSpan@@@1@@Z 10037020 f i utilit.obj
 0001:00036070       ??$construct@VCShortString@@AAV1@@?$_Wrap_alloc@V?$allocator@VCShortString@@@std@@@std@@QAEXPAVCShortString@@AAV2@@Z 10037070 f i utilit.obj
 0001:000360d0       ??$construct@VCShortString@@AAV1@@?$allocator@VCShortString@@@std@@QAEXPAVCShortString@@AAV2@@Z 100370d0 f i utilit.obj
 0001:000361a0       ??$construct@VCShortString@@AAV1@@?$allocator_traits@V?$allocator@VCShortString@@@std@@@std@@SAXAAV?$allocator@VCShortString@@@1@PAVCShortString@@AAV3@@Z 100371a0 f i utilit.obj
 0001:000361f0       ??$construct@VCShortString@@ABV1@@?$_Wrap_alloc@V?$allocator@VCShortString@@@std@@@std@@QAEXPAVCShortString@@ABV2@@Z 100371f0 f i utilit.obj
 0001:00036250       ??$construct@VCShortString@@ABV1@@?$allocator_traits@V?$allocator@VCShortString@@@std@@@std@@SAXAAV?$allocator@VCShortString@@@1@PAVCShortString@@ABV3@@Z 10037250 f i utilit.obj
 0001:000362a0       ??$construct@VCShortString@@V1@@?$_Wrap_alloc@V?$allocator@VCShortString@@@std@@@std@@QAEXPAVCShortString@@$$QAV2@@Z 100372a0 f i utilit.obj
 0001:00036300       ??$construct@VCShortString@@V1@@?$allocator@VCShortString@@@std@@QAEXPAVCShortString@@$$QAV2@@Z 10037300 f i utilit.obj
 0001:000363d0       ??$construct@VCShortString@@V1@@?$allocator_traits@V?$allocator@VCShortString@@@std@@@std@@SAXAAV?$allocator@VCShortString@@@1@PAVCShortString@@$$QAV3@@Z 100373d0 f i utilit.obj
 0001:00036420       ??$destroy@PAU?$_Tree_node@U?$pair@$$CBHV?$_Tree_const_iterator@V?$_Tree_val@U?$_Tree_simple_types@U?$pair@$$CBV?$basic_string@DU?$char_traits@D@std@@V?$allocator@D@2@@std@@UCMyTimeSpan@@@std@@@std@@@std@@@std@@@std@@PAX@std@@@?$_Wrap_alloc@V?$allocator@U?$_Tree_node@U?$pair@$$CBHV?$_Tree_const_iterator@V?$_Tree_val@U?$_Tree_simple_types@U?$pair@$$CBV?$basic_string@DU?$char_traits@D@std@@V?$allocator@D@2@@std@@UCMyTimeSpan@@@std@@@std@@@std@@@std@@@std@@PAX@std@@@std@@@std@@QAEXPAPAU?$_Tree_node@U?$pair@$$CBHV?$_Tree_const_iterator@V?$_Tree_val@U?$_Tree_simple_types@U?$pair@$$CBV?$basic_string@DU?$char_traits@D@std@@V?$allocator@D@2@@std@@UCMyTimeSpan@@@std@@@std@@@std@@@std@@@std@@PAX@1@@Z 10037420 f i utilit.obj
 0001:00036470       ??$destroy@PAU?$_Tree_node@U?$pair@$$CBHV?$_Tree_const_iterator@V?$_Tree_val@U?$_Tree_simple_types@U?$pair@$$CBV?$basic_string@DU?$char_traits@D@std@@V?$allocator@D@2@@std@@UCMyTimeSpan@@@std@@@std@@@std@@@std@@@std@@PAX@std@@@?$allocator@U?$_Tree_node@U?$pair@$$CBHV?$_Tree_const_iterator@V?$_Tree_val@U?$_Tree_simple_types@U?$pair@$$CBV?$basic_string@DU?$char_traits@D@std@@V?$allocator@D@2@@std@@UCMyTimeSpan@@@std@@@std@@@std@@@std@@@std@@PAX@std@@@std@@QAEXPAPAU?$_Tree_node@U?$pair@$$CBHV?$_Tree_const_iterator@V?$_Tree_val@U?$_Tree_simple_types@U?$pair@$$CBV?$basic_string@DU?$char_traits@D@std@@V?$allocator@D@2@@std@@UCMyTimeSpan@@@std@@@std@@@std@@@std@@@std@@PAX@1@@Z 10037470 f i utilit.obj
 0001:000364a0       ??$destroy@PAU?$_Tree_node@U?$pair@$$CBHV?$_Tree_const_iterator@V?$_Tree_val@U?$_Tree_simple_types@U?$pair@$$CBV?$basic_string@DU?$char_traits@D@std@@V?$allocator@D@2@@std@@UCMyTimeSpan@@@std@@@std@@@std@@@std@@@std@@PAX@std@@@?$allocator_traits@V?$allocator@U?$_Tree_node@U?$pair@$$CBHV?$_Tree_const_iterator@V?$_Tree_val@U?$_Tree_simple_types@U?$pair@$$CBV?$basic_string@DU?$char_traits@D@std@@V?$allocator@D@2@@std@@UCMyTimeSpan@@@std@@@std@@@std@@@std@@@std@@PAX@std@@@std@@@std@@SAXAAV?$allocator@U?$_Tree_node@U?$pair@$$CBHV?$_Tree_const_iterator@V?$_Tree_val@U?$_Tree_simple_types@U?$pair@$$CBV?$basic_string@DU?$char_traits@D@std@@V?$allocator@D@2@@std@@UCMyTimeSpan@@@std@@@std@@@std@@@std@@@std@@PAX@std@@@1@PAPAU?$_Tree_node@U?$pair@$$CBHV?$_Tree_const_iterator@V?$_Tree_val@U?$_Tree_simple_types@U?$pair@$$CBV?$basic_string@DU?$char_traits@D@std@@V?$allocator@D@2@@std@@UCMyTimeSpan@@@std@@@std@@@std@@@std@@@std@@PAX@1@@Z 100374a0 f i utilit.obj
 0001:000364e0       ??$destroy@PAU?$_Tree_node@U?$pair@$$CBV?$basic_string@DU?$char_traits@D@std@@V?$allocator@D@2@@std@@UCMyTimeSpan@@@std@@PAX@std@@@?$_Wrap_alloc@V?$allocator@U?$_Tree_node@U?$pair@$$CBV?$basic_string@DU?$char_traits@D@std@@V?$allocator@D@2@@std@@UCMyTimeSpan@@@std@@PAX@std@@@std@@@std@@QAEXPAPAU?$_Tree_node@U?$pair@$$CBV?$basic_string@DU?$char_traits@D@std@@V?$allocator@D@2@@std@@UCMyTimeSpan@@@std@@PAX@1@@Z 100374e0 f i utilit.obj
 0001:00036530       ??$destroy@PAU?$_Tree_node@U?$pair@$$CBV?$basic_string@DU?$char_traits@D@std@@V?$allocator@D@2@@std@@UCMyTimeSpan@@@std@@PAX@std@@@?$allocator@U?$_Tree_node@U?$pair@$$CBV?$basic_string@DU?$char_traits@D@std@@V?$allocator@D@2@@std@@UCMyTimeSpan@@@std@@PAX@std@@@std@@QAEXPAPAU?$_Tree_node@U?$pair@$$CBV?$basic_string@DU?$char_traits@D@std@@V?$allocator@D@2@@std@@UCMyTimeSpan@@@std@@PAX@1@@Z 10037530 f i utilit.obj
 0001:00036560       ??$destroy@PAU?$_Tree_node@U?$pair@$$CBV?$basic_string@DU?$char_traits@D@std@@V?$allocator@D@2@@std@@UCMyTimeSpan@@@std@@PAX@std@@@?$allocator_traits@V?$allocator@U?$_Tree_node@U?$pair@$$CBV?$basic_string@DU?$char_traits@D@std@@V?$allocator@D@2@@std@@UCMyTimeSpan@@@std@@PAX@std@@@std@@@std@@SAXAAV?$allocator@U?$_Tree_node@U?$pair@$$CBV?$basic_string@DU?$char_traits@D@std@@V?$allocator@D@2@@std@@UCMyTimeSpan@@@std@@PAX@std@@@1@PAPAU?$_Tree_node@U?$pair@$$CBV?$basic_string@DU?$char_traits@D@std@@V?$allocator@D@2@@std@@UCMyTimeSpan@@@std@@PAX@1@@Z 10037560 f i utilit.obj
 0001:000365a0       ??$destroy@U?$pair@$$CBHV?$_Tree_const_iterator@V?$_Tree_val@U?$_Tree_simple_types@U?$pair@$$CBV?$basic_string@DU?$char_traits@D@std@@V?$allocator@D@2@@std@@UCMyTimeSpan@@@std@@@std@@@std@@@std@@@std@@@?$_Wrap_alloc@V?$allocator@U?$_Tree_node@U?$pair@$$CBHV?$_Tree_const_iterator@V?$_Tree_val@U?$_Tree_simple_types@U?$pair@$$CBV?$basic_string@DU?$char_traits@D@std@@V?$allocator@D@2@@std@@UCMyTimeSpan@@@std@@@std@@@std@@@std@@@std@@PAX@std@@@std@@@std@@QAEXPAU?$pair@$$CBHV?$_Tree_const_iterator@V?$_Tree_val@U?$_Tree_simple_types@U?$pair@$$CBV?$basic_string@DU?$char_traits@D@std@@V?$allocator@D@2@@std@@UCMyTimeSpan@@@std@@@std@@@std@@@std@@@1@@Z 100375a0 f i utilit.obj
 0001:000365f0       ??$destroy@U?$pair@$$CBHV?$_Tree_const_iterator@V?$_Tree_val@U?$_Tree_simple_types@U?$pair@$$CBV?$basic_string@DU?$char_traits@D@std@@V?$allocator@D@2@@std@@UCMyTimeSpan@@@std@@@std@@@std@@@std@@@std@@@?$allocator@U?$_Tree_node@U?$pair@$$CBHV?$_Tree_const_iterator@V?$_Tree_val@U?$_Tree_simple_types@U?$pair@$$CBV?$basic_string@DU?$char_traits@D@std@@V?$allocator@D@2@@std@@UCMyTimeSpan@@@std@@@std@@@std@@@std@@@std@@PAX@std@@@std@@QAEXPAU?$pair@$$CBHV?$_Tree_const_iterator@V?$_Tree_val@U?$_Tree_simple_types@U?$pair@$$CBV?$basic_string@DU?$char_traits@D@std@@V?$allocator@D@2@@std@@UCMyTimeSpan@@@std@@@std@@@std@@@std@@@1@@Z 100375f0 f i utilit.obj
 0001:00036640       ??$destroy@U?$pair@$$CBHV?$_Tree_const_iterator@V?$_Tree_val@U?$_Tree_simple_types@U?$pair@$$CBV?$basic_string@DU?$char_traits@D@std@@V?$allocator@D@2@@std@@UCMyTimeSpan@@@std@@@std@@@std@@@std@@@std@@@?$allocator_traits@V?$allocator@U?$_Tree_node@U?$pair@$$CBHV?$_Tree_const_iterator@V?$_Tree_val@U?$_Tree_simple_types@U?$pair@$$CBV?$basic_string@DU?$char_traits@D@std@@V?$allocator@D@2@@std@@UCMyTimeSpan@@@std@@@std@@@std@@@std@@@std@@PAX@std@@@std@@@std@@SAXAAV?$allocator@U?$_Tree_node@U?$pair@$$CBHV?$_Tree_const_iterator@V?$_Tree_val@U?$_Tree_simple_types@U?$pair@$$CBV?$basic_string@DU?$char_traits@D@std@@V?$allocator@D@2@@std@@UCMyTimeSpan@@@std@@@std@@@std@@@std@@@std@@PAX@std@@@1@PAU?$pair@$$CBHV?$_Tree_const_iterator@V?$_Tree_val@U?$_Tree_simple_types@U?$pair@$$CBV?$basic_string@DU?$char_traits@D@std@@V?$allocator@D@2@@std@@UCMyTimeSpan@@@std@@@std@@@std@@@std@@@1@@Z 10037640 f i utilit.obj
 0001:00036680       ??$destroy@U?$pair@$$CBV?$basic_string@DU?$char_traits@D@std@@V?$allocator@D@2@@std@@UCMyTimeSpan@@@std@@@?$_Wrap_alloc@V?$allocator@U?$_Tree_node@U?$pair@$$CBV?$basic_string@DU?$char_traits@D@std@@V?$allocator@D@2@@std@@UCMyTimeSpan@@@std@@PAX@std@@@std@@@std@@QAEXPAU?$pair@$$CBV?$basic_string@DU?$char_traits@D@std@@V?$allocator@D@2@@std@@UCMyTimeSpan@@@1@@Z 10037680 f i utilit.obj
 0001:000366d0       ??$destroy@U?$pair@$$CBV?$basic_string@DU?$char_traits@D@std@@V?$allocator@D@2@@std@@UCMyTimeSpan@@@std@@@?$allocator@U?$_Tree_node@U?$pair@$$CBV?$basic_string@DU?$char_traits@D@std@@V?$allocator@D@2@@std@@UCMyTimeSpan@@@std@@PAX@std@@@std@@QAEXPAU?$pair@$$CBV?$basic_string@DU?$char_traits@D@std@@V?$allocator@D@2@@std@@UCMyTimeSpan@@@1@@Z 100376d0 f i utilit.obj
 0001:00036720       ??$destroy@U?$pair@$$CBV?$basic_string@DU?$char_traits@D@std@@V?$allocator@D@2@@std@@UCMyTimeSpan@@@std@@@?$allocator_traits@V?$allocator@U?$_Tree_node@U?$pair@$$CBV?$basic_string@DU?$char_traits@D@std@@V?$allocator@D@2@@std@@UCMyTimeSpan@@@std@@PAX@std@@@std@@@std@@SAXAAV?$allocator@U?$_Tree_node@U?$pair@$$CBV?$basic_string@DU?$char_traits@D@std@@V?$allocator@D@2@@std@@UCMyTimeSpan@@@std@@PAX@std@@@1@PAU?$pair@$$CBV?$basic_string@DU?$char_traits@D@std@@V?$allocator@D@2@@std@@UCMyTimeSpan@@@1@@Z 10037720 f i utilit.obj
 0001:00036760       ??$destroy@VCShortString@@@?$_Wrap_alloc@V?$allocator@VCShortString@@@std@@@std@@QAEXPAVCShortString@@@Z 10037760 f i utilit.obj
 0001:000367b0       ??$destroy@VCShortString@@@?$allocator@VCShortString@@@std@@QAEXPAVCShortString@@@Z 100377b0 f i utilit.obj
 0001:00036800       ??$destroy@VCShortString@@@?$allocator_traits@V?$allocator@VCShortString@@@std@@@std@@SAXAAV?$allocator@VCShortString@@@1@PAVCShortString@@@Z 10037800 f i utilit.obj
 0001:00036840       ??$distance@PAD@std@@YAHPAD0@Z 10037840 f i utilit.obj
 0001:000368e0       ??$emplace_hint@ABUpiecewise_construct_t@std@@V?$tuple@ABH@2@V?$tuple@$$$V@2@@?$_Tree@V?$_Tmap_traits@HV?$_Tree_const_iterator@V?$_Tree_val@U?$_Tree_simple_types@U?$pair@$$CBV?$basic_string@DU?$char_traits@D@std@@V?$allocator@D@2@@std@@UCMyTimeSpan@@@std@@@std@@@std@@@std@@U?$less@H@2@V?$allocator@U?$pair@$$CBHV?$_Tree_const_iterator@V?$_Tree_val@U?$_Tree_simple_types@U?$pair@$$CBV?$basic_string@DU?$char_traits@D@std@@V?$allocator@D@2@@std@@UCMyTimeSpan@@@std@@@std@@@std@@@std@@@std@@@2@$0A@@std@@@std@@QAE?AV?$_Tree_iterator@V?$_Tree_val@U?$_Tree_simple_types@U?$pair@$$CBHV?$_Tree_const_iterator@V?$_Tree_val@U?$_Tree_simple_types@U?$pair@$$CBV?$basic_string@DU?$char_traits@D@std@@V?$allocator@D@2@@std@@UCMyTimeSpan@@@std@@@std@@@std@@@std@@@std@@@std@@@std@@@1@V?$_Tree_const_iterator@V?$_Tree_val@U?$_Tree_simple_types@U?$pair@$$CBHV?$_Tree_const_iterator@V?$_Tree_val@U?$_Tree_simple_types@U?$pair@$$CBV?$basic_string@DU?$char_traits@D@std@@V?$allocator@D@2@@std@@UCMyTimeSpan@@@std@@@std@@@std@@@std@@@std@@@std@@@std@@@1@ABUpiecewise_construct_t@1@$$QAV?$tuple@ABH@1@$$QAV?$tuple@$$$V@1@@Z 100378e0 f i utilit.obj
 0001:000369f0       ??$forward@AAD@std@@YAAADAAD@Z 100379f0 f i utilit.obj
 0001:00036a20       ??$forward@AAPAU?$_Tree_node@U?$pair@$$CBHV?$_Tree_const_iterator@V?$_Tree_val@U?$_Tree_simple_types@U?$pair@$$CBV?$basic_string@DU?$char_traits@D@std@@V?$allocator@D@2@@std@@UCMyTimeSpan@@@std@@@std@@@std@@@std@@@std@@PAX@std@@@std@@YAAAPAU?$_Tree_node@U?$pair@$$CBHV?$_Tree_const_iterator@V?$_Tree_val@U?$_Tree_simple_types@U?$pair@$$CBV?$basic_string@DU?$char_traits@D@std@@V?$allocator@D@2@@std@@UCMyTimeSpan@@@std@@@std@@@std@@@std@@@std@@PAX@0@AAPAU10@@Z 10037a20 f i utilit.obj
 0001:00036a50       ??$forward@AAPAU?$_Tree_node@U?$pair@$$CBV?$basic_string@DU?$char_traits@D@std@@V?$allocator@D@2@@std@@UCMyTimeSpan@@@std@@PAX@std@@@std@@YAAAPAU?$_Tree_node@U?$pair@$$CBV?$basic_string@DU?$char_traits@D@std@@V?$allocator@D@2@@std@@UCMyTimeSpan@@@std@@PAX@0@AAPAU10@@Z 10037a50 f i utilit.obj
 0001:00036a80       ??$forward@AAU?$pair@$$CBHV?$_Tree_const_iterator@V?$_Tree_val@U?$_Tree_simple_types@U?$pair@$$CBV?$basic_string@DU?$char_traits@D@std@@V?$allocator@D@2@@std@@UCMyTimeSpan@@@std@@@std@@@std@@@std@@@std@@@std@@YAAAU?$pair@$$CBHV?$_Tree_const_iterator@V?$_Tree_val@U?$_Tree_simple_types@U?$pair@$$CBV?$basic_string@DU?$char_traits@D@std@@V?$allocator@D@2@@std@@UCMyTimeSpan@@@std@@@std@@@std@@@std@@@0@AAU10@@Z 10037a80 f i utilit.obj
 0001:00036ab0       ??$forward@AAU?$pair@$$CBV?$basic_string@DU?$char_traits@D@std@@V?$allocator@D@2@@std@@UCMyTimeSpan@@@std@@@std@@YAAAU?$pair@$$CBV?$basic_string@DU?$char_traits@D@std@@V?$allocator@D@2@@std@@UCMyTimeSpan@@@0@AAU10@@Z 10037ab0 f i utilit.obj
 0001:00036ae0       ??$forward@AAUCMyTimeSpan@@@std@@YAAAUCMyTimeSpan@@AAU1@@Z 10037ae0 f i utilit.obj
 0001:00036b10       ??$forward@AAV?$_Tree_iterator@V?$_Tree_val@U?$_Tree_simple_types@U?$pair@$$CBHV?$_Tree_const_iterator@V?$_Tree_val@U?$_Tree_simple_types@U?$pair@$$CBV?$basic_string@DU?$char_traits@D@std@@V?$allocator@D@2@@std@@UCMyTimeSpan@@@std@@@std@@@std@@@std@@@std@@@std@@@std@@@std@@@std@@YAAAV?$_Tree_iterator@V?$_Tree_val@U?$_Tree_simple_types@U?$pair@$$CBHV?$_Tree_const_iterator@V?$_Tree_val@U?$_Tree_simple_types@U?$pair@$$CBV?$basic_string@DU?$char_traits@D@std@@V?$allocator@D@2@@std@@UCMyTimeSpan@@@std@@@std@@@std@@@std@@@std@@@std@@@std@@@0@AAV10@@Z 10037b10 f i utilit.obj
 0001:00036b40       ??$forward@AAV?$_Tree_iterator@V?$_Tree_val@U?$_Tree_simple_types@U?$pair@$$CBV?$basic_string@DU?$char_traits@D@std@@V?$allocator@D@2@@std@@UCMyTimeSpan@@@std@@@std@@@std@@@std@@@std@@YAAAV?$_Tree_iterator@V?$_Tree_val@U?$_Tree_simple_types@U?$pair@$$CBV?$basic_string@DU?$char_traits@D@std@@V?$allocator@D@2@@std@@UCMyTimeSpan@@@std@@@std@@@std@@@0@AAV10@@Z 10037b40 f i utilit.obj
 0001:00036b70       ??$forward@AAVCShortString@@@std@@YAAAVCShortString@@AAV1@@Z 10037b70 f i utilit.obj
 0001:00036ba0       ??$forward@ABD@std@@YAABDABD@Z 10037ba0 f i utilit.obj
 0001:00036bd0       ??$forward@ABH@std@@YAABHABH@Z 10037bd0 f i utilit.obj
 0001:00036c00       ??$forward@ABUpiecewise_construct_t@std@@@std@@YAABUpiecewise_construct_t@0@ABU10@@Z 10037c00 f i utilit.obj
 0001:00036c30       ??$forward@ABV?$basic_string@DU?$char_traits@D@std@@V?$allocator@D@2@@std@@@std@@YAABV?$basic_string@DU?$char_traits@D@std@@V?$allocator@D@2@@0@ABV10@@Z 10037c30 f i utilit.obj
 0001:00036c60       ??$forward@ABVCShortString@@@std@@YAABVCShortString@@ABV1@@Z 10037c60 f i utilit.obj
 0001:00036c90       ??$forward@D@std@@YA$$QADAAD@Z 10037c90 f i utilit.obj
 0001:00036cc0       ??$forward@U?$pair@V?$basic_string@DU?$char_traits@D@std@@V?$allocator@D@2@@std@@UCMyTimeSpan@@@std@@@std@@YA$$QAU?$pair@V?$basic_string@DU?$char_traits@D@std@@V?$allocator@D@2@@std@@UCMyTimeSpan@@@0@AAU10@@Z 10037cc0 f i utilit.obj
 0001:00036cf0       ??$forward@UCMyTimeSpan@@@std@@YA$$QAUCMyTimeSpan@@AAU1@@Z 10037cf0 f i utilit.obj
 0001:00036d20       ??$forward@V?$_Tree_iterator@V?$_Tree_val@U?$_Tree_simple_types@U?$pair@$$CBHV?$_Tree_const_iterator@V?$_Tree_val@U?$_Tree_simple_types@U?$pair@$$CBV?$basic_string@DU?$char_traits@D@std@@V?$allocator@D@2@@std@@UCMyTimeSpan@@@std@@@std@@@std@@@std@@@std@@@std@@@std@@@std@@@std@@YA$$QAV?$_Tree_iterator@V?$_Tree_val@U?$_Tree_simple_types@U?$pair@$$CBHV?$_Tree_const_iterator@V?$_Tree_val@U?$_Tree_simple_types@U?$pair@$$CBV?$basic_string@DU?$char_traits@D@std@@V?$allocator@D@2@@std@@UCMyTimeSpan@@@std@@@std@@@std@@@std@@@std@@@std@@@std@@@0@AAV10@@Z 10037d20 f i utilit.obj
 0001:00036d50       ??$forward@V?$_Tree_iterator@V?$_Tree_val@U?$_Tree_simple_types@U?$pair@$$CBV?$basic_string@DU?$char_traits@D@std@@V?$allocator@D@2@@std@@UCMyTimeSpan@@@std@@@std@@@std@@@std@@@std@@YA$$QAV?$_Tree_iterator@V?$_Tree_val@U?$_Tree_simple_types@U?$pair@$$CBV?$basic_string@DU?$char_traits@D@std@@V?$allocator@D@2@@std@@UCMyTimeSpan@@@std@@@std@@@std@@@0@AAV10@@Z 10037d50 f i utilit.obj
 0001:00036d80       ??$forward@V?$basic_string@DU?$char_traits@D@std@@V?$allocator@D@2@@std@@@std@@YA$$QAV?$basic_string@DU?$char_traits@D@std@@V?$allocator@D@2@@0@AAV10@@Z 10037d80 f i utilit.obj
 0001:00036db0       ??$forward@V?$tuple@$$$V@std@@@std@@YA$$QAV?$tuple@$$$V@0@AAV10@@Z 10037db0 f i utilit.obj
 0001:00036de0       ??$forward@V?$tuple@ABH@std@@@std@@YA$$QAV?$tuple@ABH@0@AAV10@@Z 10037de0 f i utilit.obj
 0001:00036e10       ??$forward@VCShortString@@@std@@YA$$QAVCShortString@@AAV1@@Z 10037e10 f i utilit.obj
 0001:00036e40       ??$forward@_N@std@@YA$$QA_NAA_N@Z 10037e40 f i utilit.obj
 0001:00036e70       ??$forward_as_tuple@ABH@std@@YA?AV?$tuple@ABH@0@ABH@Z 10037e70 f i utilit.obj
 0001:00036ec0       ??$get@$0A@ABH@std@@YAABH$$QAV?$tuple@ABH@0@@Z 10037ec0 f i utilit.obj
 0001:00036f00       ??$insert@PBD@?$vector@DV?$allocator@D@std@@@std@@QAE?AV?$_Vector_iterator@V?$_Vector_val@U?$_Simple_types@D@std@@@std@@@1@V?$_Vector_const_iterator@V?$_Vector_val@U?$_Simple_types@D@std@@@std@@@1@PBD1@Z 10037f00 f i utilit.obj
 0001:00037040       ??$insert@U?$pair@V?$basic_string@DU?$char_traits@D@std@@V?$allocator@D@2@@std@@UCMyTimeSpan@@@std@@@?$_Tree@V?$_Tmap_traits@V?$basic_string@DU?$char_traits@D@std@@V?$allocator@D@2@@std@@UCMyTimeSpan@@U?$less@V?$basic_string@DU?$char_traits@D@std@@V?$allocator@D@2@@std@@@2@V?$allocator@U?$pair@$$CBV?$basic_string@DU?$char_traits@D@std@@V?$allocator@D@2@@std@@UCMyTimeSpan@@@std@@@2@$0A@@std@@@std@@QAE?AU?$pair@V?$_Tree_iterator@V?$_Tree_val@U?$_Tree_simple_types@U?$pair@$$CBV?$basic_string@DU?$char_traits@D@std@@V?$allocator@D@2@@std@@UCMyTimeSpan@@@std@@@std@@@std@@@std@@_N@1@$$QAU?$pair@V?$basic_string@DU?$char_traits@D@std@@V?$allocator@D@2@@std@@UCMyTimeSpan@@@1@@Z 10038040 f i utilit.obj
 0001:000370d0       ??$iter_swap@PADPAD@std@@YAXPAD0@Z 100380d0 f i utilit.obj
 0001:00037120       ??$move@AAV?$basic_string@DU?$char_traits@D@std@@V?$allocator@D@2@@std@@@std@@YA$$QAV?$basic_string@DU?$char_traits@D@std@@V?$allocator@D@2@@0@AAV10@@Z 10038120 f i utilit.obj
 0001:00037150       ??$move@AAV?$tuple@ABH@std@@@std@@YA$$QAV?$tuple@ABH@0@AAV10@@Z 10038150 f i utilit.obj
 0001:00037180       ??$rotate@PAD@std@@YAPADPAD00@Z 10038180 f i utilit.obj
 0001:00037260       ??$swap@D@std@@YAXAAD0@Z   10038260 f i utilit.obj
 0001:00037300       ??0?$_Iterator012@Ubidirectional_iterator_tag@std@@U?$pair@$$CBHV?$_Tree_const_iterator@V?$_Tree_val@U?$_Tree_simple_types@U?$pair@$$CBV?$basic_string@DU?$char_traits@D@std@@V?$allocator@D@2@@std@@UCMyTimeSpan@@@std@@@std@@@std@@@std@@@2@HPBU32@ABU32@U_Iterator_base12@2@@std@@QAE@ABU01@@Z 10038300 f i utilit.obj
 0001:00037350       ??0?$_Iterator012@Ubidirectional_iterator_tag@std@@U?$pair@$$CBHV?$_Tree_const_iterator@V?$_Tree_val@U?$_Tree_simple_types@U?$pair@$$CBV?$basic_string@DU?$char_traits@D@std@@V?$allocator@D@2@@std@@UCMyTimeSpan@@@std@@@std@@@std@@@std@@@2@HPBU32@ABU32@U_Iterator_base12@2@@std@@QAE@XZ 10038350 f i utilit.obj
 0001:000373a0       ??0?$_Iterator012@Ubidirectional_iterator_tag@std@@U?$pair@$$CBV?$basic_string@DU?$char_traits@D@std@@V?$allocator@D@2@@std@@UCMyTimeSpan@@@2@HPBU32@ABU32@U_Iterator_base12@2@@std@@QAE@ABU01@@Z 100383a0 f i utilit.obj
 0001:000373f0       ??0?$_Iterator012@Ubidirectional_iterator_tag@std@@U?$pair@$$CBV?$basic_string@DU?$char_traits@D@std@@V?$allocator@D@2@@std@@UCMyTimeSpan@@@2@HPBU32@ABU32@U_Iterator_base12@2@@std@@QAE@XZ 100383f0 f i utilit.obj
 0001:00037440       ??0?$_Iterator012@Ubidirectional_iterator_tag@std@@V?$basic_string@DU?$char_traits@D@std@@V?$allocator@D@2@@2@HPBV32@ABV32@U_Iterator_base12@2@@std@@QAE@ABU01@@Z 10038440 f i utilit.obj
 0001:00037490       ??0?$_Iterator012@Ubidirectional_iterator_tag@std@@V?$basic_string@DU?$char_traits@D@std@@V?$allocator@D@2@@2@HPBV32@ABV32@U_Iterator_base12@2@@std@@QAE@XZ 10038490 f i utilit.obj
 0001:000374e0       ??0?$_Iterator012@Urandom_access_iterator_tag@std@@DHPBDABDU_Iterator_base12@2@@std@@QAE@ABU01@@Z 100384e0 f i utilit.obj
 0001:00037530       ??0?$_Iterator012@Urandom_access_iterator_tag@std@@DHPBDABDU_Iterator_base12@2@@std@@QAE@XZ 10038530 f i utilit.obj
 0001:00037580       ??0?$_Iterator012@Urandom_access_iterator_tag@std@@V?$basic_string@DU?$char_traits@D@std@@V?$allocator@D@2@@2@HPBV32@ABV32@U_Iterator_base12@2@@std@@QAE@ABU01@@Z 10038580 f i utilit.obj
 0001:000375d0       ??0?$_Iterator012@Urandom_access_iterator_tag@std@@V?$basic_string@DU?$char_traits@D@std@@V?$allocator@D@2@@2@HPBV32@ABV32@U_Iterator_base12@2@@std@@QAE@XZ 100385d0 f i utilit.obj
 0001:00037620       ??0?$_String_const_iterator@V?$_String_val@U?$_Simple_types@D@std@@@std@@@std@@QAE@ABV01@@Z 10038620 f i utilit.obj
 0001:00037680       ??0?$_String_const_iterator@V?$_String_val@U?$_Simple_types@D@std@@@std@@@std@@QAE@PBDPBU_Container_base12@1@@Z 10038680 f i utilit.obj
 0001:00037720       ??0?$_String_iterator@V?$_String_val@U?$_Simple_types@D@std@@@std@@@std@@QAE@ABV01@@Z 10038720 f i utilit.obj
 0001:00037770       ??0?$_String_iterator@V?$_String_val@U?$_Simple_types@D@std@@@std@@@std@@QAE@PADPBU_Container_base12@1@@Z 10038770 f i utilit.obj
 0001:000377c0       ??0?$_Tree@V?$_Tmap_traits@HV?$_Tree_const_iterator@V?$_Tree_val@U?$_Tree_simple_types@U?$pair@$$CBV?$basic_string@DU?$char_traits@D@std@@V?$allocator@D@2@@std@@UCMyTimeSpan@@@std@@@std@@@std@@@std@@U?$less@H@2@V?$allocator@U?$pair@$$CBHV?$_Tree_const_iterator@V?$_Tree_val@U?$_Tree_simple_types@U?$pair@$$CBV?$basic_string@DU?$char_traits@D@std@@V?$allocator@D@2@@std@@UCMyTimeSpan@@@std@@@std@@@std@@@std@@@std@@@2@$0A@@std@@@std@@QAE@ABU?$less@H@1@ABV?$allocator@U?$pair@$$CBHV?$_Tree_const_iterator@V?$_Tree_val@U?$_Tree_simple_types@U?$pair@$$CBV?$basic_string@DU?$char_traits@D@std@@V?$allocator@D@2@@std@@UCMyTimeSpan@@@std@@@std@@@std@@@std@@@std@@@1@@Z 100387c0 f i utilit.obj
 0001:00037810       ??0?$_Tree@V?$_Tmap_traits@V?$basic_string@DU?$char_traits@D@std@@V?$allocator@D@2@@std@@UCMyTimeSpan@@U?$less@V?$basic_string@DU?$char_traits@D@std@@V?$allocator@D@2@@std@@@2@V?$allocator@U?$pair@$$CBV?$basic_string@DU?$char_traits@D@std@@V?$allocator@D@2@@std@@UCMyTimeSpan@@@std@@@2@$0A@@std@@@std@@QAE@ABU?$less@V?$basic_string@DU?$char_traits@D@std@@V?$allocator@D@2@@std@@@1@ABV?$allocator@U?$pair@$$CBV?$basic_string@DU?$char_traits@D@std@@V?$allocator@D@2@@std@@UCMyTimeSpan@@@std@@@1@@Z 10038810 f i utilit.obj
 0001:00037860       ??0?$_Tree_alloc@$0A@U?$_Tree_base_types@U?$pair@$$CBHV?$_Tree_const_iterator@V?$_Tree_val@U?$_Tree_simple_types@U?$pair@$$CBV?$basic_string@DU?$char_traits@D@std@@V?$allocator@D@2@@std@@UCMyTimeSpan@@@std@@@std@@@std@@@std@@@std@@V?$allocator@U?$pair@$$CBHV?$_Tree_const_iterator@V?$_Tree_val@U?$_Tree_simple_types@U?$pair@$$CBV?$basic_string@DU?$char_traits@D@std@@V?$allocator@D@2@@std@@UCMyTimeSpan@@@std@@@std@@@std@@@std@@@std@@@2@@std@@@std@@QAE@ABV?$allocator@U?$pair@$$CBHV?$_Tree_const_iterator@V?$_Tree_val@U?$_Tree_simple_types@U?$pair@$$CBV?$basic_string@DU?$char_traits@D@std@@V?$allocator@D@2@@std@@UCMyTimeSpan@@@std@@@std@@@std@@@std@@@std@@@1@@Z 10038860 f i utilit.obj
 0001:00037930       ??0?$_Tree_alloc@$0A@U?$_Tree_base_types@U?$pair@$$CBV?$basic_string@DU?$char_traits@D@std@@V?$allocator@D@2@@std@@UCMyTimeSpan@@@std@@V?$allocator@U?$pair@$$CBV?$basic_string@DU?$char_traits@D@std@@V?$allocator@D@2@@std@@UCMyTimeSpan@@@std@@@2@@std@@@std@@QAE@ABV?$allocator@U?$pair@$$CBV?$basic_string@DU?$char_traits@D@std@@V?$allocator@D@2@@std@@UCMyTimeSpan@@@std@@@1@@Z 10038930 f i utilit.obj
 0001:00037a00       ??0?$_Tree_buy@U?$pair@$$CBHV?$_Tree_const_iterator@V?$_Tree_val@U?$_Tree_simple_types@U?$pair@$$CBV?$basic_string@DU?$char_traits@D@std@@V?$allocator@D@2@@std@@UCMyTimeSpan@@@std@@@std@@@std@@@std@@@std@@V?$allocator@U?$pair@$$CBHV?$_Tree_const_iterator@V?$_Tree_val@U?$_Tree_simple_types@U?$pair@$$CBV?$basic_string@DU?$char_traits@D@std@@V?$allocator@D@2@@std@@UCMyTimeSpan@@@std@@@std@@@std@@@std@@@std@@@2@@std@@QAE@ABV?$allocator@U?$pair@$$CBHV?$_Tree_const_iterator@V?$_Tree_val@U?$_Tree_simple_types@U?$pair@$$CBV?$basic_string@DU?$char_traits@D@std@@V?$allocator@D@2@@std@@UCMyTimeSpan@@@std@@@std@@@std@@@std@@@std@@@1@@Z 10038a00 f i utilit.obj
 0001:00037a50       ??0?$_Tree_buy@U?$pair@$$CBV?$basic_string@DU?$char_traits@D@std@@V?$allocator@D@2@@std@@UCMyTimeSpan@@@std@@V?$allocator@U?$pair@$$CBV?$basic_string@DU?$char_traits@D@std@@V?$allocator@D@2@@std@@UCMyTimeSpan@@@std@@@2@@std@@QAE@ABV?$allocator@U?$pair@$$CBV?$basic_string@DU?$char_traits@D@std@@V?$allocator@D@2@@std@@UCMyTimeSpan@@@std@@@1@@Z 10038a50 f i utilit.obj
 0001:00037aa0       ??0?$_Tree_comp@$0A@V?$_Tmap_traits@HV?$_Tree_const_iterator@V?$_Tree_val@U?$_Tree_simple_types@U?$pair@$$CBV?$basic_string@DU?$char_traits@D@std@@V?$allocator@D@2@@std@@UCMyTimeSpan@@@std@@@std@@@std@@@std@@U?$less@H@2@V?$allocator@U?$pair@$$CBHV?$_Tree_const_iterator@V?$_Tree_val@U?$_Tree_simple_types@U?$pair@$$CBV?$basic_string@DU?$char_traits@D@std@@V?$allocator@D@2@@std@@UCMyTimeSpan@@@std@@@std@@@std@@@std@@@std@@@2@$0A@@std@@@std@@QAE@ABU?$less@H@1@ABV?$allocator@U?$pair@$$CBHV?$_Tree_const_iterator@V?$_Tree_val@U?$_Tree_simple_types@U?$pair@$$CBV?$basic_string@DU?$char_traits@D@std@@V?$allocator@D@2@@std@@UCMyTimeSpan@@@std@@@std@@@std@@@std@@@std@@@1@@Z 10038aa0 f i utilit.obj
 0001:00037af0       ??0?$_Tree_comp@$0A@V?$_Tmap_traits@V?$basic_string@DU?$char_traits@D@std@@V?$allocator@D@2@@std@@UCMyTimeSpan@@U?$less@V?$basic_string@DU?$char_traits@D@std@@V?$allocator@D@2@@std@@@2@V?$allocator@U?$pair@$$CBV?$basic_string@DU?$char_traits@D@std@@V?$allocator@D@2@@std@@UCMyTimeSpan@@@std@@@2@$0A@@std@@@std@@QAE@ABU?$less@V?$basic_string@DU?$char_traits@D@std@@V?$allocator@D@2@@std@@@1@ABV?$allocator@U?$pair@$$CBV?$basic_string@DU?$char_traits@D@std@@V?$allocator@D@2@@std@@UCMyTimeSpan@@@std@@@1@@Z 10038af0 f i utilit.obj
 0001:00037b40       ??0?$_Tree_const_iterator@V?$_Tree_val@U?$_Tree_simple_types@U?$pair@$$CBHV?$_Tree_const_iterator@V?$_Tree_val@U?$_Tree_simple_types@U?$pair@$$CBV?$basic_string@DU?$char_traits@D@std@@V?$allocator@D@2@@std@@UCMyTimeSpan@@@std@@@std@@@std@@@std@@@std@@@std@@@std@@@std@@QAE@ABV01@@Z 10038b40 f i utilit.obj
 0001:00037b90       ??0?$_Tree_const_iterator@V?$_Tree_val@U?$_Tree_simple_types@U?$pair@$$CBHV?$_Tree_const_iterator@V?$_Tree_val@U?$_Tree_simple_types@U?$pair@$$CBV?$basic_string@DU?$char_traits@D@std@@V?$allocator@D@2@@std@@UCMyTimeSpan@@@std@@@std@@@std@@@std@@@std@@@std@@@std@@@std@@QAE@PAU?$_Tree_node@U?$pair@$$CBHV?$_Tree_const_iterator@V?$_Tree_val@U?$_Tree_simple_types@U?$pair@$$CBV?$basic_string@DU?$char_traits@D@std@@V?$allocator@D@2@@std@@UCMyTimeSpan@@@std@@@std@@@std@@@std@@@std@@PAX@1@PBV?$_Tree_val@U?$_Tree_simple_types@U?$pair@$$CBHV?$_Tree_const_iterator@V?$_Tree_val@U?$_Tree_simple_types@U?$pair@$$CBV?$basic_string@DU?$char_traits@D@std@@V?$allocator@D@2@@std@@UCMyTimeSpan@@@std@@@std@@@std@@@std@@@std@@@std@@@1@@Z 10038b90 f i utilit.obj
 0001:00037be0       ??0?$_Tree_const_iterator@V?$_Tree_val@U?$_Tree_simple_types@U?$pair@$$CBHV?$_Tree_const_iterator@V?$_Tree_val@U?$_Tree_simple_types@U?$pair@$$CBV?$basic_string@DU?$char_traits@D@std@@V?$allocator@D@2@@std@@UCMyTimeSpan@@@std@@@std@@@std@@@std@@@std@@@std@@@std@@@std@@QAE@XZ 10038be0 f i utilit.obj
 0001:00037c30       ??0?$_Tree_const_iterator@V?$_Tree_val@U?$_Tree_simple_types@U?$pair@$$CBV?$basic_string@DU?$char_traits@D@std@@V?$allocator@D@2@@std@@UCMyTimeSpan@@@std@@@std@@@std@@@std@@QAE@ABV01@@Z 10038c30 f i utilit.obj
 0001:00037c80       ??0?$_Tree_const_iterator@V?$_Tree_val@U?$_Tree_simple_types@U?$pair@$$CBV?$basic_string@DU?$char_traits@D@std@@V?$allocator@D@2@@std@@UCMyTimeSpan@@@std@@@std@@@std@@@std@@QAE@PAU?$_Tree_node@U?$pair@$$CBV?$basic_string@DU?$char_traits@D@std@@V?$allocator@D@2@@std@@UCMyTimeSpan@@@std@@PAX@1@PBV?$_Tree_val@U?$_Tree_simple_types@U?$pair@$$CBV?$basic_string@DU?$char_traits@D@std@@V?$allocator@D@2@@std@@UCMyTimeSpan@@@std@@@std@@@1@@Z 10038c80 f i utilit.obj
 0001:00037cd0       ??0?$_Tree_const_iterator@V?$_Tree_val@U?$_Tree_simple_types@U?$pair@$$CBV?$basic_string@DU?$char_traits@D@std@@V?$allocator@D@2@@std@@UCMyTimeSpan@@@std@@@std@@@std@@@std@@QAE@XZ 10038cd0 f i utilit.obj
 0001:00037d20       ??0?$_Tree_const_iterator@V?$_Tree_val@U?$_Tree_simple_types@V?$basic_string@DU?$char_traits@D@std@@V?$allocator@D@2@@std@@@std@@@std@@@std@@QAE@ABV01@@Z 10038d20 f i utilit.obj
 0001:00037d70       ??0?$_Tree_const_iterator@V?$_Tree_val@U?$_Tree_simple_types@V?$basic_string@DU?$char_traits@D@std@@V?$allocator@D@2@@std@@@std@@@std@@@std@@QAE@PAU?$_Tree_node@V?$basic_string@DU?$char_traits@D@std@@V?$allocator@D@2@@std@@PAX@1@PBV?$_Tree_val@U?$_Tree_simple_types@V?$basic_string@DU?$char_traits@D@std@@V?$allocator@D@2@@std@@@std@@@1@@Z 10038d70 f i utilit.obj
 0001:00037dc0       ??0?$_Tree_iterator@V?$_Tree_val@U?$_Tree_simple_types@U?$pair@$$CBHV?$_Tree_const_iterator@V?$_Tree_val@U?$_Tree_simple_types@U?$pair@$$CBV?$basic_string@DU?$char_traits@D@std@@V?$allocator@D@2@@std@@UCMyTimeSpan@@@std@@@std@@@std@@@std@@@std@@@std@@@std@@@std@@QAE@ABV01@@Z 10038dc0 f i utilit.obj
 0001:00037e10       ??0?$_Tree_iterator@V?$_Tree_val@U?$_Tree_simple_types@U?$pair@$$CBHV?$_Tree_const_iterator@V?$_Tree_val@U?$_Tree_simple_types@U?$pair@$$CBV?$basic_string@DU?$char_traits@D@std@@V?$allocator@D@2@@std@@UCMyTimeSpan@@@std@@@std@@@std@@@std@@@std@@@std@@@std@@@std@@QAE@PAU?$_Tree_node@U?$pair@$$CBHV?$_Tree_const_iterator@V?$_Tree_val@U?$_Tree_simple_types@U?$pair@$$CBV?$basic_string@DU?$char_traits@D@std@@V?$allocator@D@2@@std@@UCMyTimeSpan@@@std@@@std@@@std@@@std@@@std@@PAX@1@PBV?$_Tree_val@U?$_Tree_simple_types@U?$pair@$$CBHV?$_Tree_const_iterator@V?$_Tree_val@U?$_Tree_simple_types@U?$pair@$$CBV?$basic_string@DU?$char_traits@D@std@@V?$allocator@D@2@@std@@UCMyTimeSpan@@@std@@@std@@@std@@@std@@@std@@@std@@@1@@Z 10038e10 f i utilit.obj
 0001:00037e60       ??0?$_Tree_iterator@V?$_Tree_val@U?$_Tree_simple_types@U?$pair@$$CBV?$basic_string@DU?$char_traits@D@std@@V?$allocator@D@2@@std@@UCMyTimeSpan@@@std@@@std@@@std@@@std@@QAE@ABV01@@Z 10038e60 f i utilit.obj
 0001:00037eb0       ??0?$_Tree_iterator@V?$_Tree_val@U?$_Tree_simple_types@U?$pair@$$CBV?$basic_string@DU?$char_traits@D@std@@V?$allocator@D@2@@std@@UCMyTimeSpan@@@std@@@std@@@std@@@std@@QAE@PAU?$_Tree_node@U?$pair@$$CBV?$basic_string@DU?$char_traits@D@std@@V?$allocator@D@2@@std@@UCMyTimeSpan@@@std@@PAX@1@PBV?$_Tree_val@U?$_Tree_simple_types@U?$pair@$$CBV?$basic_string@DU?$char_traits@D@std@@V?$allocator@D@2@@std@@UCMyTimeSpan@@@std@@@std@@@1@@Z 10038eb0 f i utilit.obj
 0001:00037f00       ??0?$_Tree_unchecked_const_iterator@V?$_Tree_val@U?$_Tree_simple_types@U?$pair@$$CBHV?$_Tree_const_iterator@V?$_Tree_val@U?$_Tree_simple_types@U?$pair@$$CBV?$basic_string@DU?$char_traits@D@std@@V?$allocator@D@2@@std@@UCMyTimeSpan@@@std@@@std@@@std@@@std@@@std@@@std@@@std@@U_Iterator_base12@2@@std@@QAE@ABV01@@Z 10038f00 f i utilit.obj
 0001:00037f60       ??0?$_Tree_unchecked_const_iterator@V?$_Tree_val@U?$_Tree_simple_types@U?$pair@$$CBHV?$_Tree_const_iterator@V?$_Tree_val@U?$_Tree_simple_types@U?$pair@$$CBV?$basic_string@DU?$char_traits@D@std@@V?$allocator@D@2@@std@@UCMyTimeSpan@@@std@@@std@@@std@@@std@@@std@@@std@@@std@@U_Iterator_base12@2@@std@@QAE@PAU?$_Tree_node@U?$pair@$$CBHV?$_Tree_const_iterator@V?$_Tree_val@U?$_Tree_simple_types@U?$pair@$$CBV?$basic_string@DU?$char_traits@D@std@@V?$allocator@D@2@@std@@UCMyTimeSpan@@@std@@@std@@@std@@@std@@@std@@PAX@1@PBV?$_Tree_val@U?$_Tree_simple_types@U?$pair@$$CBHV?$_Tree_const_iterator@V?$_Tree_val@U?$_Tree_simple_types@U?$pair@$$CBV?$basic_string@DU?$char_traits@D@std@@V?$allocator@D@2@@std@@UCMyTimeSpan@@@std@@@std@@@std@@@std@@@std@@@std@@@1@@Z 10038f60 f i utilit.obj
 0001:00038000       ??0?$_Tree_unchecked_const_iterator@V?$_Tree_val@U?$_Tree_simple_types@U?$pair@$$CBHV?$_Tree_const_iterator@V?$_Tree_val@U?$_Tree_simple_types@U?$pair@$$CBV?$basic_string@DU?$char_traits@D@std@@V?$allocator@D@2@@std@@UCMyTimeSpan@@@std@@@std@@@std@@@std@@@std@@@std@@@std@@U_Iterator_base12@2@@std@@QAE@XZ 10039000 f i utilit.obj
 0001:00038050       ??0?$_Tree_unchecked_const_iterator@V?$_Tree_val@U?$_Tree_simple_types@U?$pair@$$CBV?$basic_string@DU?$char_traits@D@std@@V?$allocator@D@2@@std@@UCMyTimeSpan@@@std@@@std@@@std@@U_Iterator_base12@2@@std@@QAE@ABV01@@Z 10039050 f i utilit.obj
 0001:000380b0       ??0?$_Tree_unchecked_const_iterator@V?$_Tree_val@U?$_Tree_simple_types@U?$pair@$$CBV?$basic_string@DU?$char_traits@D@std@@V?$allocator@D@2@@std@@UCMyTimeSpan@@@std@@@std@@@std@@U_Iterator_base12@2@@std@@QAE@PAU?$_Tree_node@U?$pair@$$CBV?$basic_string@DU?$char_traits@D@std@@V?$allocator@D@2@@std@@UCMyTimeSpan@@@std@@PAX@1@PBV?$_Tree_val@U?$_Tree_simple_types@U?$pair@$$CBV?$basic_string@DU?$char_traits@D@std@@V?$allocator@D@2@@std@@UCMyTimeSpan@@@std@@@std@@@1@@Z 100390b0 f i utilit.obj
 0001:00038150       ??0?$_Tree_unchecked_const_iterator@V?$_Tree_val@U?$_Tree_simple_types@U?$pair@$$CBV?$basic_string@DU?$char_traits@D@std@@V?$allocator@D@2@@std@@UCMyTimeSpan@@@std@@@std@@@std@@U_Iterator_base12@2@@std@@QAE@XZ 10039150 f i utilit.obj
 0001:000381a0       ??0?$_Tree_unchecked_const_iterator@V?$_Tree_val@U?$_Tree_simple_types@V?$basic_string@DU?$char_traits@D@std@@V?$allocator@D@2@@std@@@std@@@std@@U_Iterator_base12@2@@std@@QAE@ABV01@@Z 100391a0 f i utilit.obj
 0001:00038200       ??0?$_Tree_unchecked_const_iterator@V?$_Tree_val@U?$_Tree_simple_types@V?$basic_string@DU?$char_traits@D@std@@V?$allocator@D@2@@std@@@std@@@std@@U_Iterator_base12@2@@std@@QAE@PAU?$_Tree_node@V?$basic_string@DU?$char_traits@D@std@@V?$allocator@D@2@@std@@PAX@1@PBV?$_Tree_val@U?$_Tree_simple_types@V?$basic_string@DU?$char_traits@D@std@@V?$allocator@D@2@@std@@@std@@@1@@Z 10039200 f i utilit.obj
 0001:000382a0       ??0?$_Tree_val@U?$_Tree_simple_types@U?$pair@$$CBHV?$_Tree_const_iterator@V?$_Tree_val@U?$_Tree_simple_types@U?$pair@$$CBV?$basic_string@DU?$char_traits@D@std@@V?$allocator@D@2@@std@@UCMyTimeSpan@@@std@@@std@@@std@@@std@@@std@@@std@@@std@@QAE@XZ 100392a0 f i utilit.obj
 0001:00038300       ??0?$_Tree_val@U?$_Tree_simple_types@U?$pair@$$CBV?$basic_string@DU?$char_traits@D@std@@V?$allocator@D@2@@std@@UCMyTimeSpan@@@std@@@std@@@std@@QAE@XZ 10039300 f i utilit.obj
 0001:00038360       ??0?$_Vector_alloc@$0A@U?$_Vec_base_types@DV?$allocator@D@std@@@std@@@std@@QAE@ABV?$allocator@D@1@@Z 10039360 f i utilit.obj
 0001:000383f0       ??0?$_Vector_const_iterator@V?$_Vector_val@U?$_Simple_types@D@std@@@std@@@std@@QAE@ABV01@@Z 100393f0 f i utilit.obj
 0001:00038450       ??0?$_Vector_const_iterator@V?$_Vector_val@U?$_Simple_types@D@std@@@std@@@std@@QAE@PADPBU_Container_base12@1@@Z 10039450 f i utilit.obj
 0001:000384f0       ??0?$_Vector_const_iterator@V?$_Vector_val@U?$_Simple_types@D@std@@@std@@@std@@QAE@XZ 100394f0 f i utilit.obj
 0001:00038540       ??0?$_Vector_const_iterator@V?$_Vector_val@U?$_Simple_types@V?$basic_string@DU?$char_traits@D@std@@V?$allocator@D@2@@std@@@std@@@std@@@std@@QAE@ABV01@@Z 10039540 f i utilit.obj
 0001:000385a0       ??0?$_Vector_const_iterator@V?$_Vector_val@U?$_Simple_types@V?$basic_string@DU?$char_traits@D@std@@V?$allocator@D@2@@std@@@std@@@std@@@std@@QAE@PAV?$basic_string@DU?$char_traits@D@std@@V?$allocator@D@2@@1@PBU_Container_base12@1@@Z 100395a0 f i utilit.obj
 0001:00038640       ??0?$_Vector_iterator@V?$_Vector_val@U?$_Simple_types@D@std@@@std@@@std@@QAE@ABV01@@Z 10039640 f i utilit.obj
 0001:00038690       ??0?$_Vector_iterator@V?$_Vector_val@U?$_Simple_types@D@std@@@std@@@std@@QAE@PADPBU_Container_base12@1@@Z 10039690 f i utilit.obj
 0001:000386e0       ??0?$_Vector_val@U?$_Simple_types@D@std@@@std@@QAE@XZ 100396e0 f i utilit.obj
 0001:00038750       ??0?$_Wrap_alloc@V?$allocator@U?$_Tree_node@U?$pair@$$CBHV?$_Tree_const_iterator@V?$_Tree_val@U?$_Tree_simple_types@U?$pair@$$CBV?$basic_string@DU?$char_traits@D@std@@V?$allocator@D@2@@std@@UCMyTimeSpan@@@std@@@std@@@std@@@std@@@std@@PAX@std@@@std@@@std@@QAE@XZ 10039750 f i utilit.obj
 0001:000387a0       ??0?$_Wrap_alloc@V?$allocator@U?$_Tree_node@U?$pair@$$CBV?$basic_string@DU?$char_traits@D@std@@V?$allocator@D@2@@std@@UCMyTimeSpan@@@std@@PAX@std@@@std@@@std@@QAE@XZ 100397a0 f i utilit.obj
 0001:000387f0       ??0?$_Wrap_alloc@V?$allocator@VCShortString@@@std@@@std@@QAE@XZ 100397f0 f i utilit.obj
 0001:00038840       ??0?$allocator@U?$_Tree_node@U?$pair@$$CBHV?$_Tree_const_iterator@V?$_Tree_val@U?$_Tree_simple_types@U?$pair@$$CBV?$basic_string@DU?$char_traits@D@std@@V?$allocator@D@2@@std@@UCMyTimeSpan@@@std@@@std@@@std@@@std@@@std@@PAX@std@@@std@@QAE@XZ 10039840 f i utilit.obj
 0001:00038870       ??0?$allocator@U?$_Tree_node@U?$pair@$$CBV?$basic_string@DU?$char_traits@D@std@@V?$allocator@D@2@@std@@UCMyTimeSpan@@@std@@PAX@std@@@std@@QAE@XZ 10039870 f i utilit.obj
 0001:000388a0       ??0?$allocator@U?$pair@$$CBHV?$_Tree_const_iterator@V?$_Tree_val@U?$_Tree_simple_types@U?$pair@$$CBV?$basic_string@DU?$char_traits@D@std@@V?$allocator@D@2@@std@@UCMyTimeSpan@@@std@@@std@@@std@@@std@@@std@@@std@@QAE@XZ 100398a0 f i utilit.obj
 0001:000388d0       ??0?$allocator@U?$pair@$$CBV?$basic_string@DU?$char_traits@D@std@@V?$allocator@D@2@@std@@UCMyTimeSpan@@@std@@@std@@QAE@XZ 100398d0 f i utilit.obj
 0001:00038900       ??0?$allocator@VCShortString@@@std@@QAE@XZ 10039900 f i utilit.obj
 0001:00038930       ??0?$basic_string@DU?$char_traits@D@std@@V?$allocator@D@2@@std@@QAE@$$QAV01@@Z 10039930 f i utilit.obj
 0001:000389b0       ??0?$basic_string@DU?$char_traits@D@std@@V?$allocator@D@2@@std@@QAE@ABV01@IIABV?$allocator@D@1@@Z 100399b0 f i utilit.obj
 0001:00038a50       ??0?$map@HV?$_Tree_const_iterator@V?$_Tree_val@U?$_Tree_simple_types@U?$pair@$$CBV?$basic_string@DU?$char_traits@D@std@@V?$allocator@D@2@@std@@UCMyTimeSpan@@@std@@@std@@@std@@@std@@U?$less@H@2@V?$allocator@U?$pair@$$CBHV?$_Tree_const_iterator@V?$_Tree_val@U?$_Tree_simple_types@U?$pair@$$CBV?$basic_string@DU?$char_traits@D@std@@V?$allocator@D@2@@std@@UCMyTimeSpan@@@std@@@std@@@std@@@std@@@std@@@2@@std@@QAE@XZ 10039a50 f i utilit.obj
 0001:00038ab0       ??0?$map@V?$basic_string@DU?$char_traits@D@std@@V?$allocator@D@2@@std@@UCMyTimeSpan@@U?$less@V?$basic_string@DU?$char_traits@D@std@@V?$allocator@D@2@@std@@@2@V?$allocator@U?$pair@$$CBV?$basic_string@DU?$char_traits@D@std@@V?$allocator@D@2@@std@@UCMyTimeSpan@@@std@@@2@@std@@QAE@XZ 10039ab0 f i utilit.obj
 0001:00038b10       ??0?$tuple@$$$V@std@@QAE@ABV01@@Z 10039b10 f i utilit.obj
 0001:00038b40       ??0?$tuple@$$$V@std@@QAE@XZ 10039b40 f i utilit.obj
 0001:00038b70       ??0?$tuple@ABH@std@@QAE@ABH@Z 10039b70 f i utilit.obj
 0001:00038bc0       ??0?$vector@DV?$allocator@D@std@@@std@@QAE@XZ 10039bc0 f i utilit.obj
 0001:00038c10       ??0CExpc@@QAA@PBDZZ        10039c10 f   utilit.obj
 0001:00038d20       ??0CExpc@@QAE@ABV0@@Z      10039d20 f   utilit.obj
 0001:00038db0       ??0CExpc@@QAE@ABV?$basic_string@DU?$char_traits@D@std@@V?$allocator@D@2@@std@@@Z 10039db0 f   utilit.obj
 0001:00038e50       ??0CExpc@@QAE@HABV?$basic_string@DU?$char_traits@D@std@@V?$allocator@D@2@@std@@@Z 10039e50 f   utilit.obj
 0001:00038ef0       ??0CMyTimeSpan@@QAE@JJ@Z   10039ef0 f   utilit.obj
 0001:00038f50       ??0CMyTimeSpanHolder@@QAE@XZ 10039f50 f   utilit.obj
 0001:00038fb0       ??0CShortString@@QAE@ABV0@@Z 10039fb0 f i utilit.obj
 0001:00039000       ??0CShortString@@QAE@V?$_Vector_const_iterator@V?$_Vector_val@U?$_Simple_types@D@std@@@std@@@std@@@Z 1003a000 f   utilit.obj
 0001:000390a0       ??0StringTokenizer@@QAE@PBD0@Z 1003a0a0 f   utilit.obj
 0001:00039130       ??1?$_Iterator012@Ubidirectional_iterator_tag@std@@U?$pair@$$CBHV?$_Tree_const_iterator@V?$_Tree_val@U?$_Tree_simple_types@U?$pair@$$CBV?$basic_string@DU?$char_traits@D@std@@V?$allocator@D@2@@std@@UCMyTimeSpan@@@std@@@std@@@std@@@std@@@2@HPBU32@ABU32@U_Iterator_base12@2@@std@@QAE@XZ 1003a130 f i utilit.obj
 0001:00039170       ??1?$_Iterator012@Ubidirectional_iterator_tag@std@@U?$pair@$$CBV?$basic_string@DU?$char_traits@D@std@@V?$allocator@D@2@@std@@UCMyTimeSpan@@@2@HPBU32@ABU32@U_Iterator_base12@2@@std@@QAE@XZ 1003a170 f i utilit.obj
 0001:000391b0       ??1?$_Iterator012@Ubidirectional_iterator_tag@std@@V?$basic_string@DU?$char_traits@D@std@@V?$allocator@D@2@@2@HPBV32@ABV32@U_Iterator_base12@2@@std@@QAE@XZ 1003a1b0 f i utilit.obj
 0001:000391f0       ??1?$_Iterator012@Urandom_access_iterator_tag@std@@DHPBDABDU_Iterator_base12@2@@std@@QAE@XZ 1003a1f0 f i utilit.obj
 0001:00039230       ??1?$_Iterator012@Urandom_access_iterator_tag@std@@V?$basic_string@DU?$char_traits@D@std@@V?$allocator@D@2@@2@HPBV32@ABV32@U_Iterator_base12@2@@std@@QAE@XZ 1003a230 f i utilit.obj
 0001:00039270       ??1?$_String_const_iterator@V?$_String_val@U?$_Simple_types@D@std@@@std@@@std@@QAE@XZ 1003a270 f i utilit.obj
 0001:000392b0       ??1?$_String_iterator@V?$_String_val@U?$_Simple_types@D@std@@@std@@@std@@QAE@XZ 1003a2b0 f i utilit.obj
 0001:000392f0       ??1?$_Tree@V?$_Tmap_traits@HV?$_Tree_const_iterator@V?$_Tree_val@U?$_Tree_simple_types@U?$pair@$$CBV?$basic_string@DU?$char_traits@D@std@@V?$allocator@D@2@@std@@UCMyTimeSpan@@@std@@@std@@@std@@@std@@U?$less@H@2@V?$allocator@U?$pair@$$CBHV?$_Tree_const_iterator@V?$_Tree_val@U?$_Tree_simple_types@U?$pair@$$CBV?$basic_string@DU?$char_traits@D@std@@V?$allocator@D@2@@std@@UCMyTimeSpan@@@std@@@std@@@std@@@std@@@std@@@2@$0A@@std@@@std@@QAE@XZ 1003a2f0 f i utilit.obj
 0001:00039340       ??1?$_Tree_alloc@$0A@U?$_Tree_base_types@U?$pair@$$CBHV?$_Tree_const_iterator@V?$_Tree_val@U?$_Tree_simple_types@U?$pair@$$CBV?$basic_string@DU?$char_traits@D@std@@V?$allocator@D@2@@std@@UCMyTimeSpan@@@std@@@std@@@std@@@std@@@std@@V?$allocator@U?$pair@$$CBHV?$_Tree_const_iterator@V?$_Tree_val@U?$_Tree_simple_types@U?$pair@$$CBV?$basic_string@DU?$char_traits@D@std@@V?$allocator@D@2@@std@@UCMyTimeSpan@@@std@@@std@@@std@@@std@@@std@@@2@@std@@@std@@QAE@XZ 1003a340 f i utilit.obj
 0001:000393a0       ??1?$_Tree_buy@U?$pair@$$CBHV?$_Tree_const_iterator@V?$_Tree_val@U?$_Tree_simple_types@U?$pair@$$CBV?$basic_string@DU?$char_traits@D@std@@V?$allocator@D@2@@std@@UCMyTimeSpan@@@std@@@std@@@std@@@std@@@std@@V?$allocator@U?$pair@$$CBHV?$_Tree_const_iterator@V?$_Tree_val@U?$_Tree_simple_types@U?$pair@$$CBV?$basic_string@DU?$char_traits@D@std@@V?$allocator@D@2@@std@@UCMyTimeSpan@@@std@@@std@@@std@@@std@@@std@@@2@@std@@QAE@XZ 1003a3a0 f i utilit.obj
 0001:000393e0       ??1?$_Tree_comp@$0A@V?$_Tmap_traits@HV?$_Tree_const_iterator@V?$_Tree_val@U?$_Tree_simple_types@U?$pair@$$CBV?$basic_string@DU?$char_traits@D@std@@V?$allocator@D@2@@std@@UCMyTimeSpan@@@std@@@std@@@std@@@std@@U?$less@H@2@V?$allocator@U?$pair@$$CBHV?$_Tree_const_iterator@V?$_Tree_val@U?$_Tree_simple_types@U?$pair@$$CBV?$basic_string@DU?$char_traits@D@std@@V?$allocator@D@2@@std@@UCMyTimeSpan@@@std@@@std@@@std@@@std@@@std@@@2@$0A@@std@@@std@@QAE@XZ 1003a3e0 f i utilit.obj
 0001:00039420       ??1?$_Tree_const_iterator@V?$_Tree_val@U?$_Tree_simple_types@U?$pair@$$CBHV?$_Tree_const_iterator@V?$_Tree_val@U?$_Tree_simple_types@U?$pair@$$CBV?$basic_string@DU?$char_traits@D@std@@V?$allocator@D@2@@std@@UCMyTimeSpan@@@std@@@std@@@std@@@std@@@std@@@std@@@std@@@std@@QAE@XZ 1003a420 f i utilit.obj
 0001:00039460       ??1?$_Tree_const_iterator@V?$_Tree_val@U?$_Tree_simple_types@U?$pair@$$CBV?$basic_string@DU?$char_traits@D@std@@V?$allocator@D@2@@std@@UCMyTimeSpan@@@std@@@std@@@std@@@std@@QAE@XZ 1003a460 f i utilit.obj
 0001:000394a0       ??1?$_Tree_const_iterator@V?$_Tree_val@U?$_Tree_simple_types@V?$basic_string@DU?$char_traits@D@std@@V?$allocator@D@2@@std@@@std@@@std@@@std@@QAE@XZ 1003a4a0 f i utilit.obj
 0001:000394e0       ??1?$_Tree_iterator@V?$_Tree_val@U?$_Tree_simple_types@U?$pair@$$CBHV?$_Tree_const_iterator@V?$_Tree_val@U?$_Tree_simple_types@U?$pair@$$CBV?$basic_string@DU?$char_traits@D@std@@V?$allocator@D@2@@std@@UCMyTimeSpan@@@std@@@std@@@std@@@std@@@std@@@std@@@std@@@std@@QAE@XZ 1003a4e0 f i utilit.obj
 0001:00039520       ??1?$_Tree_iterator@V?$_Tree_val@U?$_Tree_simple_types@U?$pair@$$CBV?$basic_string@DU?$char_traits@D@std@@V?$allocator@D@2@@std@@UCMyTimeSpan@@@std@@@std@@@std@@@std@@QAE@XZ 1003a520 f i utilit.obj
 0001:00039560       ??1?$_Tree_unchecked_const_iterator@V?$_Tree_val@U?$_Tree_simple_types@U?$pair@$$CBHV?$_Tree_const_iterator@V?$_Tree_val@U?$_Tree_simple_types@U?$pair@$$CBV?$basic_string@DU?$char_traits@D@std@@V?$allocator@D@2@@std@@UCMyTimeSpan@@@std@@@std@@@std@@@std@@@std@@@std@@@std@@U_Iterator_base12@2@@std@@QAE@XZ 1003a560 f i utilit.obj
 0001:000395a0       ??1?$_Tree_unchecked_const_iterator@V?$_Tree_val@U?$_Tree_simple_types@U?$pair@$$CBV?$basic_string@DU?$char_traits@D@std@@V?$allocator@D@2@@std@@UCMyTimeSpan@@@std@@@std@@@std@@U_Iterator_base12@2@@std@@QAE@XZ 1003a5a0 f i utilit.obj
 0001:000395e0       ??1?$_Tree_unchecked_const_iterator@V?$_Tree_val@U?$_Tree_simple_types@V?$basic_string@DU?$char_traits@D@std@@V?$allocator@D@2@@std@@@std@@@std@@U_Iterator_base12@2@@std@@QAE@XZ 1003a5e0 f i utilit.obj
 0001:00039620       ??1?$_Tree_val@U?$_Tree_simple_types@U?$pair@$$CBHV?$_Tree_const_iterator@V?$_Tree_val@U?$_Tree_simple_types@U?$pair@$$CBV?$basic_string@DU?$char_traits@D@std@@V?$allocator@D@2@@std@@UCMyTimeSpan@@@std@@@std@@@std@@@std@@@std@@@std@@@std@@QAE@XZ 1003a620 f i utilit.obj
 0001:00039670       ??1?$_Tree_val@U?$_Tree_simple_types@U?$pair@$$CBV?$basic_string@DU?$char_traits@D@std@@V?$allocator@D@2@@std@@UCMyTimeSpan@@@std@@@std@@@std@@QAE@XZ 1003a670 f i utilit.obj
 0001:000396c0       ??1?$_Vector_alloc@$0A@U?$_Vec_base_types@DV?$allocator@D@std@@@std@@@std@@QAE@XZ 1003a6c0 f i utilit.obj
 0001:00039710       ??1?$_Vector_const_iterator@V?$_Vector_val@U?$_Simple_types@D@std@@@std@@@std@@QAE@XZ 1003a710 f i utilit.obj
 0001:00039750       ??1?$_Vector_const_iterator@V?$_Vector_val@U?$_Simple_types@V?$basic_string@DU?$char_traits@D@std@@V?$allocator@D@2@@std@@@std@@@std@@@std@@QAE@XZ 1003a750 f i utilit.obj
 0001:00039790       ??1?$_Vector_iterator@V?$_Vector_val@U?$_Simple_types@D@std@@@std@@@std@@QAE@XZ 1003a790 f i utilit.obj
 0001:000397d0       ??1?$_Vector_val@U?$_Simple_types@D@std@@@std@@QAE@XZ 1003a7d0 f i utilit.obj
 0001:00039820       ??1?$map@HV?$_Tree_const_iterator@V?$_Tree_val@U?$_Tree_simple_types@U?$pair@$$CBV?$basic_string@DU?$char_traits@D@std@@V?$allocator@D@2@@std@@UCMyTimeSpan@@@std@@@std@@@std@@@std@@U?$less@H@2@V?$allocator@U?$pair@$$CBHV?$_Tree_const_iterator@V?$_Tree_val@U?$_Tree_simple_types@U?$pair@$$CBV?$basic_string@DU?$char_traits@D@std@@V?$allocator@D@2@@std@@UCMyTimeSpan@@@std@@@std@@@std@@@std@@@std@@@2@@std@@QAE@XZ 1003a820 f i utilit.obj
 0001:00039860       ??1?$pair@$$CBHV?$_Tree_const_iterator@V?$_Tree_val@U?$_Tree_simple_types@U?$pair@$$CBV?$basic_string@DU?$char_traits@D@std@@V?$allocator@D@2@@std@@UCMyTimeSpan@@@std@@@std@@@std@@@std@@@std@@QAE@XZ 1003a860 f i utilit.obj
 0001:000398b0       ??1?$pair@$$CBV?$basic_string@DU?$char_traits@D@std@@V?$allocator@D@2@@std@@UCMyTimeSpan@@@std@@QAE@XZ 1003a8b0 f i utilit.obj
 0001:000398f0       ??1?$pair@V?$_Tree_iterator@V?$_Tree_val@U?$_Tree_simple_types@U?$pair@$$CBHV?$_Tree_const_iterator@V?$_Tree_val@U?$_Tree_simple_types@U?$pair@$$CBV?$basic_string@DU?$char_traits@D@std@@V?$allocator@D@2@@std@@UCMyTimeSpan@@@std@@@std@@@std@@@std@@@std@@@std@@@std@@@std@@_N@std@@QAE@XZ 1003a8f0 f i utilit.obj
 0001:00039930       ??1?$pair@V?$_Tree_iterator@V?$_Tree_val@U?$_Tree_simple_types@U?$pair@$$CBV?$basic_string@DU?$char_traits@D@std@@V?$allocator@D@2@@std@@UCMyTimeSpan@@@std@@@std@@@std@@@std@@_N@std@@QAE@XZ 1003a930 f i utilit.obj
 0001:00039970       ??1?$pair@V?$basic_string@DU?$char_traits@D@std@@V?$allocator@D@2@@std@@UCMyTimeSpan@@@std@@QAE@XZ 1003a970 f i utilit.obj
 0001:000399b0       ??1?$vector@DV?$allocator@D@std@@@std@@QAE@XZ 1003a9b0 f i utilit.obj
 0001:00039a00       ??1CExpc@@QAE@XZ           1003aa00 f i utilit.obj
 0001:00039a40       ??1CShortString@@QAE@XZ    1003aa40 f i utilit.obj
 0001:00039a80       ??1StringTokenizer@@QAE@XZ 1003aa80 f   utilit.obj
 0001:00039ae0       ??4?$_Iterator012@Ubidirectional_iterator_tag@std@@U?$pair@$$CBHV?$_Tree_const_iterator@V?$_Tree_val@U?$_Tree_simple_types@U?$pair@$$CBV?$basic_string@DU?$char_traits@D@std@@V?$allocator@D@2@@std@@UCMyTimeSpan@@@std@@@std@@@std@@@std@@@2@HPBU32@ABU32@U_Iterator_base12@2@@std@@QAEAAU01@ABU01@@Z 1003aae0 f i utilit.obj
 0001:00039b30       ??4?$_Iterator012@Ubidirectional_iterator_tag@std@@U?$pair@$$CBV?$basic_string@DU?$char_traits@D@std@@V?$allocator@D@2@@std@@UCMyTimeSpan@@@2@HPBU32@ABU32@U_Iterator_base12@2@@std@@QAEAAU01@ABU01@@Z 1003ab30 f i utilit.obj
 0001:00039b80       ??4?$_Iterator012@Urandom_access_iterator_tag@std@@DHPBDABDU_Iterator_base12@2@@std@@QAEAAU01@ABU01@@Z 1003ab80 f i utilit.obj
 0001:00039bd0       ??4?$_Tree_const_iterator@V?$_Tree_val@U?$_Tree_simple_types@U?$pair@$$CBHV?$_Tree_const_iterator@V?$_Tree_val@U?$_Tree_simple_types@U?$pair@$$CBV?$basic_string@DU?$char_traits@D@std@@V?$allocator@D@2@@std@@UCMyTimeSpan@@@std@@@std@@@std@@@std@@@std@@@std@@@std@@@std@@QAEAAV01@ABV01@@Z 1003abd0 f i utilit.obj
 0001:00039c20       ??4?$_Tree_const_iterator@V?$_Tree_val@U?$_Tree_simple_types@U?$pair@$$CBV?$basic_string@DU?$char_traits@D@std@@V?$allocator@D@2@@std@@UCMyTimeSpan@@@std@@@std@@@std@@@std@@QAEAAV01@ABV01@@Z 1003ac20 f i utilit.obj
 0001:00039c70       ??4?$_Tree_iterator@V?$_Tree_val@U?$_Tree_simple_types@U?$pair@$$CBHV?$_Tree_const_iterator@V?$_Tree_val@U?$_Tree_simple_types@U?$pair@$$CBV?$basic_string@DU?$char_traits@D@std@@V?$allocator@D@2@@std@@UCMyTimeSpan@@@std@@@std@@@std@@@std@@@std@@@std@@@std@@@std@@QAEAAV01@ABV01@@Z 1003ac70 f i utilit.obj
 0001:00039cc0       ??4?$_Tree_iterator@V?$_Tree_val@U?$_Tree_simple_types@U?$pair@$$CBV?$basic_string@DU?$char_traits@D@std@@V?$allocator@D@2@@std@@UCMyTimeSpan@@@std@@@std@@@std@@@std@@QAEAAV01@ABV01@@Z 1003acc0 f i utilit.obj
 0001:00039d10       ??4?$_Tree_unchecked_const_iterator@V?$_Tree_val@U?$_Tree_simple_types@U?$pair@$$CBHV?$_Tree_const_iterator@V?$_Tree_val@U?$_Tree_simple_types@U?$pair@$$CBV?$basic_string@DU?$char_traits@D@std@@V?$allocator@D@2@@std@@UCMyTimeSpan@@@std@@@std@@@std@@@std@@@std@@@std@@@std@@U_Iterator_base12@2@@std@@QAEAAV01@ABV01@@Z 1003ad10 f i utilit.obj
 0001:00039d70       ??4?$_Tree_unchecked_const_iterator@V?$_Tree_val@U?$_Tree_simple_types@U?$pair@$$CBV?$basic_string@DU?$char_traits@D@std@@V?$allocator@D@2@@std@@UCMyTimeSpan@@@std@@@std@@@std@@U_Iterator_base12@2@@std@@QAEAAV01@ABV01@@Z 1003ad70 f i utilit.obj
 0001:00039dd0       ??4?$_Vector_const_iterator@V?$_Vector_val@U?$_Simple_types@D@std@@@std@@@std@@QAEAAV01@ABV01@@Z 1003add0 f i utilit.obj
 0001:00039e30       ??4?$basic_string@DU?$char_traits@D@std@@V?$allocator@D@2@@std@@QAEAAV01@$$QAV01@@Z 1003ae30 f i utilit.obj
 0001:00039f20       ??4?$basic_string@DU?$char_traits@D@std@@V?$allocator@D@2@@std@@QAEAAV01@ABV01@@Z 1003af20 f i utilit.obj
 0001:00039fd0       ??4CExpc@@QAEAAV0@ABV0@@Z  1003afd0 f   utilit.obj
 0001:0003a030       ??8?$_String_const_iterator@V?$_String_val@U?$_Simple_types@D@std@@@std@@@std@@QBE_NABV01@@Z 1003b030 f i utilit.obj
 0001:0003a0a0       ??8?$_Tree_const_iterator@V?$_Tree_val@U?$_Tree_simple_types@U?$pair@$$CBHV?$_Tree_const_iterator@V?$_Tree_val@U?$_Tree_simple_types@U?$pair@$$CBV?$basic_string@DU?$char_traits@D@std@@V?$allocator@D@2@@std@@UCMyTimeSpan@@@std@@@std@@@std@@@std@@@std@@@std@@@std@@@std@@QBE_NABV01@@Z 1003b0a0 f i utilit.obj
 0001:0003a1b0       ??8?$_Tree_const_iterator@V?$_Tree_val@U?$_Tree_simple_types@U?$pair@$$CBV?$basic_string@DU?$char_traits@D@std@@V?$allocator@D@2@@std@@UCMyTimeSpan@@@std@@@std@@@std@@@std@@QBE_NABV01@@Z 1003b1b0 f i utilit.obj
 0001:0003a2c0       ??8?$_Tree_const_iterator@V?$_Tree_val@U?$_Tree_simple_types@V?$basic_string@DU?$char_traits@D@std@@V?$allocator@D@2@@std@@@std@@@std@@@std@@QBE_NABV01@@Z 1003b2c0 f i utilit.obj
 0001:0003a3d0       ??8?$_Vector_const_iterator@V?$_Vector_val@U?$_Simple_types@D@std@@@std@@@std@@QBE_NABV01@@Z 1003b3d0 f i utilit.obj
 0001:0003a440       ??8?$_Vector_const_iterator@V?$_Vector_val@U?$_Simple_types@V?$basic_string@DU?$char_traits@D@std@@V?$allocator@D@2@@std@@@std@@@std@@@std@@QBE_NABV01@@Z 1003b440 f i utilit.obj
 0001:0003a4b0       ??9?$_Tree_const_iterator@V?$_Tree_val@U?$_Tree_simple_types@U?$pair@$$CBHV?$_Tree_const_iterator@V?$_Tree_val@U?$_Tree_simple_types@U?$pair@$$CBV?$basic_string@DU?$char_traits@D@std@@V?$allocator@D@2@@std@@UCMyTimeSpan@@@std@@@std@@@std@@@std@@@std@@@std@@@std@@@std@@QBE_NABV01@@Z 1003b4b0 f i utilit.obj
 0001:0003a520       ??9?$_Tree_const_iterator@V?$_Tree_val@U?$_Tree_simple_types@U?$pair@$$CBV?$basic_string@DU?$char_traits@D@std@@V?$allocator@D@2@@std@@UCMyTimeSpan@@@std@@@std@@@std@@@std@@QBE_NABV01@@Z 1003b520 f i utilit.obj
 0001:0003a590       ??9?$_Tree_const_iterator@V?$_Tree_val@U?$_Tree_simple_types@V?$basic_string@DU?$char_traits@D@std@@V?$allocator@D@2@@std@@@std@@@std@@@std@@QBE_NABV01@@Z 1003b590 f i utilit.obj
 0001:0003a600       ??9?$_Vector_const_iterator@V?$_Vector_val@U?$_Simple_types@D@std@@@std@@@std@@QBE_NABV01@@Z 1003b600 f i utilit.obj
 0001:0003a670       ??9?$_Vector_const_iterator@V?$_Vector_val@U?$_Simple_types@V?$basic_string@DU?$char_traits@D@std@@V?$allocator@D@2@@std@@@std@@@std@@@std@@QBE_NABV01@@Z 1003b670 f i utilit.obj
 0001:0003a6e0       ??A?$_Vector_const_iterator@V?$_Vector_val@U?$_Simple_types@D@std@@@std@@@std@@QBEABDH@Z 1003b6e0 f i utilit.obj
 0001:0003a7a0       ??A?$basic_string@DU?$char_traits@D@std@@V?$allocator@D@2@@std@@QAEAADI@Z 1003b7a0 f i utilit.obj
 0001:0003a810       ??A?$basic_string@DU?$char_traits@D@std@@V?$allocator@D@2@@std@@QBEABDI@Z 1003b810 f i utilit.obj
 0001:0003a880       ??A?$map@HV?$_Tree_const_iterator@V?$_Tree_val@U?$_Tree_simple_types@U?$pair@$$CBV?$basic_string@DU?$char_traits@D@std@@V?$allocator@D@2@@std@@UCMyTimeSpan@@@std@@@std@@@std@@@std@@U?$less@H@2@V?$allocator@U?$pair@$$CBHV?$_Tree_const_iterator@V?$_Tree_val@U?$_Tree_simple_types@U?$pair@$$CBV?$basic_string@DU?$char_traits@D@std@@V?$allocator@D@2@@std@@UCMyTimeSpan@@@std@@@std@@@std@@@std@@@std@@@2@@std@@QAEAAV?$_Tree_const_iterator@V?$_Tree_val@U?$_Tree_simple_types@U?$pair@$$CBV?$basic_string@DU?$char_traits@D@std@@V?$allocator@D@2@@std@@UCMyTimeSpan@@@std@@@std@@@std@@@1@ABH@Z 1003b880 f i utilit.obj
 0001:0003aab0       ??A?$vector@DV?$allocator@D@std@@@std@@QBEABDI@Z 1003bab0 f i utilit.obj
 0001:0003ab90       ??C?$_Tree_const_iterator@V?$_Tree_val@U?$_Tree_simple_types@U?$pair@$$CBHV?$_Tree_const_iterator@V?$_Tree_val@U?$_Tree_simple_types@U?$pair@$$CBV?$basic_string@DU?$char_traits@D@std@@V?$allocator@D@2@@std@@UCMyTimeSpan@@@std@@@std@@@std@@@std@@@std@@@std@@@std@@@std@@QBEPBU?$pair@$$CBHV?$_Tree_const_iterator@V?$_Tree_val@U?$_Tree_simple_types@U?$pair@$$CBV?$basic_string@DU?$char_traits@D@std@@V?$allocator@D@2@@std@@UCMyTimeSpan@@@std@@@std@@@std@@@std@@@1@XZ 1003bb90 f i utilit.obj
 0001:0003abe0       ??C?$_Tree_const_iterator@V?$_Tree_val@U?$_Tree_simple_types@U?$pair@$$CBV?$basic_string@DU?$char_traits@D@std@@V?$allocator@D@2@@std@@UCMyTimeSpan@@@std@@@std@@@std@@@std@@QBEPBU?$pair@$$CBV?$basic_string@DU?$char_traits@D@std@@V?$allocator@D@2@@std@@UCMyTimeSpan@@@1@XZ 1003bbe0 f i utilit.obj
 0001:0003ac30       ??C?$_Tree_const_iterator@V?$_Tree_val@U?$_Tree_simple_types@V?$basic_string@DU?$char_traits@D@std@@V?$allocator@D@2@@std@@@std@@@std@@@std@@QBEPBV?$basic_string@DU?$char_traits@D@std@@V?$allocator@D@2@@1@XZ 1003bc30 f i utilit.obj
 0001:0003ac80       ??C?$_Tree_iterator@V?$_Tree_val@U?$_Tree_simple_types@U?$pair@$$CBHV?$_Tree_const_iterator@V?$_Tree_val@U?$_Tree_simple_types@U?$pair@$$CBV?$basic_string@DU?$char_traits@D@std@@V?$allocator@D@2@@std@@UCMyTimeSpan@@@std@@@std@@@std@@@std@@@std@@@std@@@std@@@std@@QBEPAU?$pair@$$CBHV?$_Tree_const_iterator@V?$_Tree_val@U?$_Tree_simple_types@U?$pair@$$CBV?$basic_string@DU?$char_traits@D@std@@V?$allocator@D@2@@std@@UCMyTimeSpan@@@std@@@std@@@std@@@std@@@1@XZ 1003bc80 f i utilit.obj
 0001:0003acd0       ??C?$_Tree_iterator@V?$_Tree_val@U?$_Tree_simple_types@U?$pair@$$CBV?$basic_string@DU?$char_traits@D@std@@V?$allocator@D@2@@std@@UCMyTimeSpan@@@std@@@std@@@std@@@std@@QBEPAU?$pair@$$CBV?$basic_string@DU?$char_traits@D@std@@V?$allocator@D@2@@std@@UCMyTimeSpan@@@1@XZ 1003bcd0 f i utilit.obj
 0001:0003ad20       ??C?$_Vector_const_iterator@V?$_Vector_val@U?$_Simple_types@V?$basic_string@DU?$char_traits@D@std@@V?$allocator@D@2@@std@@@std@@@std@@@std@@QBEPBV?$basic_string@DU?$char_traits@D@std@@V?$allocator@D@2@@1@XZ 1003bd20 f i utilit.obj
 0001:0003ad70       ??D?$_String_const_iterator@V?$_String_val@U?$_Simple_types@D@std@@@std@@@std@@QBEABDXZ 1003bd70 f i utilit.obj
 0001:0003ae80       ??D?$_String_iterator@V?$_String_val@U?$_Simple_types@D@std@@@std@@@std@@QBEAADXZ 1003be80 f i utilit.obj
 0001:0003aec0       ??D?$_Tree_const_iterator@V?$_Tree_val@U?$_Tree_simple_types@U?$pair@$$CBHV?$_Tree_const_iterator@V?$_Tree_val@U?$_Tree_simple_types@U?$pair@$$CBV?$basic_string@DU?$char_traits@D@std@@V?$allocator@D@2@@std@@UCMyTimeSpan@@@std@@@std@@@std@@@std@@@std@@@std@@@std@@@std@@QBEABU?$pair@$$CBHV?$_Tree_const_iterator@V?$_Tree_val@U?$_Tree_simple_types@U?$pair@$$CBV?$basic_string@DU?$char_traits@D@std@@V?$allocator@D@2@@std@@UCMyTimeSpan@@@std@@@std@@@std@@@std@@@1@XZ 1003bec0 f i utilit.obj
 0001:0003afc0       ??D?$_Tree_const_iterator@V?$_Tree_val@U?$_Tree_simple_types@U?$pair@$$CBV?$basic_string@DU?$char_traits@D@std@@V?$allocator@D@2@@std@@UCMyTimeSpan@@@std@@@std@@@std@@@std@@QBEABU?$pair@$$CBV?$basic_string@DU?$char_traits@D@std@@V?$allocator@D@2@@std@@UCMyTimeSpan@@@1@XZ 1003bfc0 f i utilit.obj
 0001:0003b0c0       ??D?$_Tree_const_iterator@V?$_Tree_val@U?$_Tree_simple_types@V?$basic_string@DU?$char_traits@D@std@@V?$allocator@D@2@@std@@@std@@@std@@@std@@QBEABV?$basic_string@DU?$char_traits@D@std@@V?$allocator@D@2@@1@XZ 1003c0c0 f i utilit.obj
 0001:0003b1c0       ??D?$_Tree_iterator@V?$_Tree_val@U?$_Tree_simple_types@U?$pair@$$CBHV?$_Tree_const_iterator@V?$_Tree_val@U?$_Tree_simple_types@U?$pair@$$CBV?$basic_string@DU?$char_traits@D@std@@V?$allocator@D@2@@std@@UCMyTimeSpan@@@std@@@std@@@std@@@std@@@std@@@std@@@std@@@std@@QBEAAU?$pair@$$CBHV?$_Tree_const_iterator@V?$_Tree_val@U?$_Tree_simple_types@U?$pair@$$CBV?$basic_string@DU?$char_traits@D@std@@V?$allocator@D@2@@std@@UCMyTimeSpan@@@std@@@std@@@std@@@std@@@1@XZ 1003c1c0 f i utilit.obj
 0001:0003b200       ??D?$_Tree_iterator@V?$_Tree_val@U?$_Tree_simple_types@U?$pair@$$CBV?$basic_string@DU?$char_traits@D@std@@V?$allocator@D@2@@std@@UCMyTimeSpan@@@std@@@std@@@std@@@std@@QBEAAU?$pair@$$CBV?$basic_string@DU?$char_traits@D@std@@V?$allocator@D@2@@std@@UCMyTimeSpan@@@1@XZ 1003c200 f i utilit.obj
 0001:0003b240       ??D?$_Vector_const_iterator@V?$_Vector_val@U?$_Simple_types@D@std@@@std@@@std@@QBEABDXZ 1003c240 f i utilit.obj
 0001:0003b340       ??D?$_Vector_const_iterator@V?$_Vector_val@U?$_Simple_types@V?$basic_string@DU?$char_traits@D@std@@V?$allocator@D@2@@std@@@std@@@std@@@std@@QBEABV?$basic_string@DU?$char_traits@D@std@@V?$allocator@D@2@@1@XZ 1003c340 f i utilit.obj
 0001:0003b440       ??D?$_Vector_iterator@V?$_Vector_val@U?$_Simple_types@D@std@@@std@@@std@@QBEAADXZ 1003c440 f i utilit.obj
 0001:0003b480       ??E?$_Tree_const_iterator@V?$_Tree_val@U?$_Tree_simple_types@U?$pair@$$CBHV?$_Tree_const_iterator@V?$_Tree_val@U?$_Tree_simple_types@U?$pair@$$CBV?$basic_string@DU?$char_traits@D@std@@V?$allocator@D@2@@std@@UCMyTimeSpan@@@std@@@std@@@std@@@std@@@std@@@std@@@std@@@std@@QAE?AV01@H@Z 1003c480 f i utilit.obj
 0001:0003b570       ??E?$_Tree_const_iterator@V?$_Tree_val@U?$_Tree_simple_types@U?$pair@$$CBHV?$_Tree_const_iterator@V?$_Tree_val@U?$_Tree_simple_types@U?$pair@$$CBV?$basic_string@DU?$char_traits@D@std@@V?$allocator@D@2@@std@@UCMyTimeSpan@@@std@@@std@@@std@@@std@@@std@@@std@@@std@@@std@@QAEAAV01@XZ 1003c570 f i utilit.obj
 0001:0003b670       ??E?$_Tree_const_iterator@V?$_Tree_val@U?$_Tree_simple_types@U?$pair@$$CBV?$basic_string@DU?$char_traits@D@std@@V?$allocator@D@2@@std@@UCMyTimeSpan@@@std@@@std@@@std@@@std@@QAE?AV01@H@Z 1003c670 f i utilit.obj
 0001:0003b760       ??E?$_Tree_const_iterator@V?$_Tree_val@U?$_Tree_simple_types@U?$pair@$$CBV?$basic_string@DU?$char_traits@D@std@@V?$allocator@D@2@@std@@UCMyTimeSpan@@@std@@@std@@@std@@@std@@QAEAAV01@XZ 1003c760 f i utilit.obj
 0001:0003b860       ??E?$_Tree_const_iterator@V?$_Tree_val@U?$_Tree_simple_types@V?$basic_string@DU?$char_traits@D@std@@V?$allocator@D@2@@std@@@std@@@std@@@std@@QAE?AV01@H@Z 1003c860 f i utilit.obj
 0001:0003b950       ??E?$_Tree_const_iterator@V?$_Tree_val@U?$_Tree_simple_types@V?$basic_string@DU?$char_traits@D@std@@V?$allocator@D@2@@std@@@std@@@std@@@std@@QAEAAV01@XZ 1003c950 f i utilit.obj
 0001:0003ba50       ??E?$_Tree_unchecked_const_iterator@V?$_Tree_val@U?$_Tree_simple_types@U?$pair@$$CBHV?$_Tree_const_iterator@V?$_Tree_val@U?$_Tree_simple_types@U?$pair@$$CBV?$basic_string@DU?$char_traits@D@std@@V?$allocator@D@2@@std@@UCMyTimeSpan@@@std@@@std@@@std@@@std@@@std@@@std@@@std@@U_Iterator_base12@2@@std@@QAEAAV01@XZ 1003ca50 f i utilit.obj
 0001:0003bb40       ??E?$_Tree_unchecked_const_iterator@V?$_Tree_val@U?$_Tree_simple_types@U?$pair@$$CBV?$basic_string@DU?$char_traits@D@std@@V?$allocator@D@2@@std@@UCMyTimeSpan@@@std@@@std@@@std@@U_Iterator_base12@2@@std@@QAEAAV01@XZ 1003cb40 f i utilit.obj
 0001:0003bc30       ??E?$_Tree_unchecked_const_iterator@V?$_Tree_val@U?$_Tree_simple_types@V?$basic_string@DU?$char_traits@D@std@@V?$allocator@D@2@@std@@@std@@@std@@U_Iterator_base12@2@@std@@QAEAAV01@XZ 1003cc30 f i utilit.obj
 0001:0003bd20       ??E?$_Vector_const_iterator@V?$_Vector_val@U?$_Simple_types@D@std@@@std@@@std@@QAEAAV01@XZ 1003cd20 f i utilit.obj
 0001:0003be10       ??E?$_Vector_const_iterator@V?$_Vector_val@U?$_Simple_types@V?$basic_string@DU?$char_traits@D@std@@V?$allocator@D@2@@std@@@std@@@std@@@std@@QAE?AV01@H@Z 1003ce10 f i utilit.obj
 0001:0003bf00       ??E?$_Vector_const_iterator@V?$_Vector_val@U?$_Simple_types@V?$basic_string@DU?$char_traits@D@std@@V?$allocator@D@2@@std@@@std@@@std@@@std@@QAEAAV01@XZ 1003cf00 f i utilit.obj
 0001:0003bff0       ??E?$_Vector_iterator@V?$_Vector_val@U?$_Simple_types@D@std@@@std@@@std@@QAEAAV01@XZ 1003cff0 f i utilit.obj
 0001:0003c040       ??F?$_Tree_const_iterator@V?$_Tree_val@U?$_Tree_simple_types@U?$pair@$$CBHV?$_Tree_const_iterator@V?$_Tree_val@U?$_Tree_simple_types@U?$pair@$$CBV?$basic_string@DU?$char_traits@D@std@@V?$allocator@D@2@@std@@UCMyTimeSpan@@@std@@@std@@@std@@@std@@@std@@@std@@@std@@@std@@QAEAAV01@XZ 1003d040 f i utilit.obj
 0001:0003c1c0       ??F?$_Tree_const_iterator@V?$_Tree_val@U?$_Tree_simple_types@U?$pair@$$CBV?$basic_string@DU?$char_traits@D@std@@V?$allocator@D@2@@std@@UCMyTimeSpan@@@std@@@std@@@std@@@std@@QAEAAV01@XZ 1003d1c0 f i utilit.obj
 0001:0003c340       ??F?$_Tree_iterator@V?$_Tree_val@U?$_Tree_simple_types@U?$pair@$$CBHV?$_Tree_const_iterator@V?$_Tree_val@U?$_Tree_simple_types@U?$pair@$$CBV?$basic_string@DU?$char_traits@D@std@@V?$allocator@D@2@@std@@UCMyTimeSpan@@@std@@@std@@@std@@@std@@@std@@@std@@@std@@@std@@QAEAAV01@XZ 1003d340 f i utilit.obj
 0001:0003c390       ??F?$_Tree_iterator@V?$_Tree_val@U?$_Tree_simple_types@U?$pair@$$CBV?$basic_string@DU?$char_traits@D@std@@V?$allocator@D@2@@std@@UCMyTimeSpan@@@std@@@std@@@std@@@std@@QAEAAV01@XZ 1003d390 f i utilit.obj
 0001:0003c3e0       ??F?$_Tree_unchecked_const_iterator@V?$_Tree_val@U?$_Tree_simple_types@U?$pair@$$CBHV?$_Tree_const_iterator@V?$_Tree_val@U?$_Tree_simple_types@U?$pair@$$CBV?$basic_string@DU?$char_traits@D@std@@V?$allocator@D@2@@std@@UCMyTimeSpan@@@std@@@std@@@std@@@std@@@std@@@std@@@std@@U_Iterator_base12@2@@std@@QAEAAV01@XZ 1003d3e0 f i utilit.obj
 0001:0003c500       ??F?$_Tree_unchecked_const_iterator@V?$_Tree_val@U?$_Tree_simple_types@U?$pair@$$CBV?$basic_string@DU?$char_traits@D@std@@V?$allocator@D@2@@std@@UCMyTimeSpan@@@std@@@std@@@std@@U_Iterator_base12@2@@std@@QAEAAV01@XZ 1003d500 f i utilit.obj
 0001:0003c620       ??G?$_String_const_iterator@V?$_String_val@U?$_Simple_types@D@std@@@std@@@std@@QBEHABV01@@Z 1003d620 f i utilit.obj
 0001:0003c680       ??G?$_String_iterator@V?$_String_val@U?$_Simple_types@D@std@@@std@@@std@@QBEHABV?$_String_const_iterator@V?$_String_val@U?$_Simple_types@D@std@@@std@@@1@@Z 1003d680 f i utilit.obj
 0001:0003c740       ??G?$_Vector_const_iterator@V?$_Vector_val@U?$_Simple_types@D@std@@@std@@@std@@QBEHABV01@@Z 1003d740 f i utilit.obj
 0001:0003c7a0       ??G?$_Vector_iterator@V?$_Vector_val@U?$_Simple_types@D@std@@@std@@@std@@QBEHABV?$_Vector_const_iterator@V?$_Vector_val@U?$_Simple_types@D@std@@@std@@@1@@Z 1003d7a0 f i utilit.obj
 0001:0003c7f0       ??H?$_Vector_const_iterator@V?$_Vector_val@U?$_Simple_types@D@std@@@std@@@std@@QBE?AV01@H@Z 1003d7f0 f i utilit.obj
 0001:0003c8e0       ??H?$_Vector_iterator@V?$_Vector_val@U?$_Simple_types@D@std@@@std@@@std@@QBE?AV01@H@Z 1003d8e0 f i utilit.obj
 0001:0003c9d0       ??M?$_Vector_const_iterator@V?$_Vector_val@U?$_Simple_types@D@std@@@std@@@std@@QBE_NABV01@@Z 1003d9d0 f i utilit.obj
 0001:0003ca40       ??R?$less@H@std@@QBE_NABH0@Z 1003da40 f i utilit.obj
 0001:0003caa0       ??R?$less@V?$basic_string@DU?$char_traits@D@std@@V?$allocator@D@2@@std@@@std@@QBE_NABV?$basic_string@DU?$char_traits@D@std@@V?$allocator@D@2@@1@0@Z 1003daa0 f i utilit.obj
 0001:0003caf0       ??RIsLessShortString@@QBE_NABVCShortString@@0@Z 1003daf0 f   utilit.obj
 0001:0003cb70       ??RIsLessShortString@@QBE_NABVCShortString@@PBD@Z 1003db70 f   utilit.obj
 0001:0003cbe0       ??RIsLessShortString@@QBE_NPBDABVCShortString@@@Z 1003dbe0 f   utilit.obj
 0001:0003cc50       ??RStringTokenizer@@QAEPBDXZ 1003dc50 f   utilit.obj
 0001:0003cd90       ??Y?$_Vector_const_iterator@V?$_Vector_val@U?$_Simple_types@D@std@@@std@@@std@@QAEAAV01@H@Z 1003dd90 f i utilit.obj
 0001:0003cea0       ??Y?$_Vector_iterator@V?$_Vector_val@U?$_Simple_types@D@std@@@std@@@std@@QAEAAV01@H@Z 1003dea0 f i utilit.obj
 0001:0003cef0       ??Y?$basic_string@DU?$char_traits@D@std@@V?$allocator@D@2@@std@@QAEAAV01@ABV01@@Z 1003def0 f i utilit.obj
 0001:0003cf40       ??Y?$basic_string@DU?$char_traits@D@std@@V?$allocator@D@2@@std@@QAEAAV01@D@Z 1003df40 f i utilit.obj
 0001:0003cf90       ??Y?$basic_string@DU?$char_traits@D@std@@V?$allocator@D@2@@std@@QAEAAV01@PBD@Z 1003df90 f i utilit.obj
 0001:0003cfe0       ??_G?$pair@$$CBHV?$_Tree_const_iterator@V?$_Tree_val@U?$_Tree_simple_types@U?$pair@$$CBV?$basic_string@DU?$char_traits@D@std@@V?$allocator@D@2@@std@@UCMyTimeSpan@@@std@@@std@@@std@@@std@@@std@@QAEPAXI@Z 1003dfe0 f i utilit.obj
 0001:0003d040       ??_G?$pair@$$CBV?$basic_string@DU?$char_traits@D@std@@V?$allocator@D@2@@std@@UCMyTimeSpan@@@std@@QAEPAXI@Z 1003e040 f i utilit.obj
 0001:0003d0a0       ??_GCShortString@@QAEPAXI@Z 1003e0a0 f i utilit.obj
 0001:0003d100       ?AddFile@@YAXPBD0@Z        1003e100 f   utilit.obj
 0001:0003d1b0       ?BuildRMLPath@@YA?AV?$basic_string@DU?$char_traits@D@std@@V?$allocator@D@2@@std@@PBD@Z 1003e1b0 f   utilit.obj
 0001:0003d300       ?CanGetRegistryString@@YA_NV?$basic_string@DU?$char_traits@D@std@@V?$allocator@D@2@@std@@@Z 1003e300 f   utilit.obj
 0001:0003d450       ?CheckEvaluationTime@@YA_NXZ 1003e450 f   utilit.obj
 0001:0003d560       ?CheckLanguage@@YA_NABV?$basic_string@DU?$char_traits@D@std@@V?$allocator@D@2@@std@@W4MorphLanguageEnum@@@Z 1003e560 f   utilit.obj
 0001:0003d5b0       ?CheckLanguage@@YA_NPBDW4MorphLanguageEnum@@@Z 1003e5b0 f   utilit.obj
 0001:0003d600       ?ClearTimers@CMyTimeSpanHolder@@QAEXXZ 1003e600 f   utilit.obj
 0001:0003d650       ?CompareWithoutRegister@@YAHPBD0IW4MorphLanguageEnum@@@Z 1003e650 f   utilit.obj
 0001:0003d730       ?ConvertASCIIToHtmlSymbols@@YA?AV?$basic_string@DU?$char_traits@D@std@@V?$allocator@D@2@@std@@ABV12@@Z 1003e730 f   utilit.obj
 0001:0003d980       ?ConvertJO2Je@@YAXAAV?$basic_string@DU?$char_traits@D@std@@V?$allocator@D@2@@std@@@Z 1003e980 f   utilit.obj
 0001:0003d9d0       ?ConvertJO2Je@@YAXPAD@Z    1003e9d0 f   utilit.obj
 0001:0003da20       ?ConvertJO2Je@@YAXPADI@Z   1003ea20 f   utilit.obj
 0001:0003da70       ?CountBits@@YAH_J@Z        1003ea70 f   utilit.obj
 0001:0003daf0       ?CreateFromSet@CShortStringHolder@@QAE_NABV?$set@V?$basic_string@DU?$char_traits@D@std@@V?$allocator@D@2@@std@@U?$less@V?$basic_string@DU?$char_traits@D@std@@V?$allocator@D@2@@std@@@2@V?$allocator@V?$basic_string@DU?$char_traits@D@std@@V?$allocator@D@2@@std@@@2@@std@@@Z 1003eaf0 f   utilit.obj
 0001:0003db80       ?CreateFromVector@CShortStringHolder@@QAE_NABV?$vector@V?$basic_string@DU?$char_traits@D@std@@V?$allocator@D@2@@std@@V?$allocator@V?$basic_string@DU?$char_traits@D@std@@V?$allocator@D@2@@std@@@2@@std@@@Z 1003eb80 f   utilit.obj
 0001:0003dc10       ?CreateTempFileName@@YA?AV?$basic_string@DU?$char_traits@D@std@@V?$allocator@D@2@@std@@XZ 1003ec10 f   utilit.obj
 0001:0003dd40       ?EndTimer@CMyTimeSpanHolder@@QAENABV?$basic_string@DU?$char_traits@D@std@@V?$allocator@D@2@@std@@@Z 1003ed40 f   utilit.obj
 0001:0003df40       ?EngMakeLower@@YAAAV?$basic_string@DU?$char_traits@D@std@@V?$allocator@D@2@@std@@AAV12@@Z 1003ef40 f   utilit.obj
 0001:0003dfa0       ?EngMakeUpper@@YAAAV?$basic_string@DU?$char_traits@D@std@@V?$allocator@D@2@@std@@AAV12@@Z 1003efa0 f   utilit.obj
 0001:0003e000       ?EngMakeUpper@@YAPADPAD@Z  1003f000 f   utilit.obj
 0001:0003e060       ?EngRusMakeLower@@YAAAV?$basic_string@DU?$char_traits@D@std@@V?$allocator@D@2@@std@@AAV12@@Z 1003f060 f   utilit.obj
 0001:0003e140       ?EngRusMakeLower@@YAPADPAD@Z 1003f140 f   utilit.obj
 0001:0003e200       ?EngRusMakeUpper@@YAAAV?$basic_string@DU?$char_traits@D@std@@V?$allocator@D@2@@std@@AAV12@@Z 1003f200 f   utilit.obj
 0001:0003e2e0       ?EngRusMakeUpper@@YAPADPAD@Z 1003f2e0 f   utilit.obj
 0001:0003e3c0       ?ErrorMessage@@YAXABV?$basic_string@DU?$char_traits@D@std@@V?$allocator@D@2@@std@@0@Z 1003f3c0 f   utilit.obj
 0001:0003e5f0       ?ErrorMessage@@YAXABV?$basic_string@DU?$char_traits@D@std@@V?$allocator@D@2@@std@@@Z 1003f5f0 f   utilit.obj
 0001:0003e6a0       ?FSeek@@YA_NPAU_iobuf@@_JH@Z 1003f6a0 f   utilit.obj
 0001:0003e710       ?FTell@@YA_JPAU_iobuf@@@Z  1003f710 f   utilit.obj
 0001:0003e760       ?FileExists@@YA_NPBD@Z     1003f760 f   utilit.obj
 0001:0003e7d0       ?FileSize@@YA_JPBD@Z       1003f7d0 f   utilit.obj
 0001:0003e8b0       ?FindFloatingPoint@@YAIPBD@Z 1003f8b0 f   utilit.obj
 0001:0003e9e0       ?Format@@YA?AV?$basic_string@DU?$char_traits@D@std@@V?$allocator@D@2@@std@@PBDZZ 1003f9e0 f   utilit.obj
 0001:0003ec20       ?GerMakeUpper@@YAAAV?$basic_string@DU?$char_traits@D@std@@V?$allocator@D@2@@std@@AAV12@@Z 1003fc20 f   utilit.obj
 0001:0003ec80       ?GerMakeUpper@@YAPADPAD@Z  1003fc80 f   utilit.obj
 0001:0003ece0       ?GetData@CShortString@@QBE?AV?$_Vector_const_iterator@V?$_Vector_val@U?$_Simple_types@D@std@@@std@@@std@@XZ 1003fce0 f   utilit.obj
 0001:0003ed50       ?GetIniFilePath@@YA?AV?$basic_string@DU?$char_traits@D@std@@V?$allocator@D@2@@std@@XZ 1003fd50 f   utilit.obj
 0001:0003ee30       ?GetLanguageByString@@YA_NV?$basic_string@DU?$char_traits@D@std@@V?$allocator@D@2@@std@@AAW4MorphLanguageEnum@@@Z 1003fe30 f   utilit.obj
 0001:0003f030       ?GetLength@CShortString@@QBEEXZ 10040030 f   utilit.obj
 0001:0003f080       ?GetPathByFile@@YA?AV?$basic_string@DU?$char_traits@D@std@@V?$allocator@D@2@@std@@V12@@Z 10040080 f   utilit.obj
 0001:0003f260       ?GetPredictionPartOfSpeech@@YAHABV?$basic_string@DU?$char_traits@D@std@@V?$allocator@D@2@@std@@W4MorphLanguageEnum@@@Z 10040260 f   utilit.obj
 0001:0003f390       ?GetRegistryString@@YA?AV?$basic_string@DU?$char_traits@D@std@@V?$allocator@D@2@@std@@V12@@Z 10040390 f   utilit.obj
 0001:0003f530       ?GetRegistryStringFromLocalIniFile@@YA?AV?$basic_string@DU?$char_traits@D@std@@V?$allocator@D@2@@std@@V12@@Z 10040530 f   utilit.obj
 0001:0003f6a0       ?GetRmlVariable@@YA?AV?$basic_string@DU?$char_traits@D@std@@V?$allocator@D@2@@std@@XZ 100406a0 f   utilit.obj
 0001:0003f910       ?GetStrRepresentation@CMyTimeSpan@@QBEXPBDPADN@Z 10040910 f   utilit.obj
 0001:0003fae0       ?GetStrRepresentation@CMyTimeSpanHolder@@QBE?AV?$basic_string@DU?$char_traits@D@std@@V?$allocator@D@2@@std@@N@Z 10040ae0 f   utilit.obj
 0001:0003fe80       ?GetString@CShortString@@QBEPBDXZ 10040e80 f   utilit.obj
 0001:0003fed0       ?GetStringByLanguage@@YA?AV?$basic_string@DU?$char_traits@D@std@@V?$allocator@D@2@@std@@W4MorphLanguageEnum@@@Z 10040ed0 f   utilit.obj
 0001:00040620       ?HashValue@@YAIPBD@Z       10041620 f   utilit.obj
 0001:000406e0       ?IntToStr@@YAAAV?$basic_string@DU?$char_traits@D@std@@V?$allocator@D@2@@std@@HAAV12@@Z 100416e0 f   utilit.obj
 0001:00040790       ?IntToStr@@YAPADHPAD@Z     10041790 f   utilit.obj
 0001:000407f0       ?IsBinFile@@YA_NPBD@Z      100417f0 f   utilit.obj
 0001:00040890       ?IsEmptyLine@@YA_NPBD@Z    10041890 f   utilit.obj
 0001:00040900       ?IsEnglish@@YA_NABV?$basic_string@DU?$char_traits@D@std@@V?$allocator@D@2@@std@@@Z 10041900 f   utilit.obj
 0001:00040950       ?IsEnglish@@YA_NPBD@Z      10041950 f   utilit.obj
 0001:000409a0       ?IsGerman@@YA_NABV?$basic_string@DU?$char_traits@D@std@@V?$allocator@D@2@@std@@@Z 100419a0 f   utilit.obj
 0001:000409f0       ?IsGerman@@YA_NPBD@Z       100419f0 f   utilit.obj
 0001:00040a40       ?IsHtmlFile@@YA_NABV?$basic_string@DU?$char_traits@D@std@@V?$allocator@D@2@@std@@@Z 10041a40 f   utilit.obj
 0001:00040ba0       ?IsRmlRegistered@@YA_NAAV?$basic_string@DU?$char_traits@D@std@@V?$allocator@D@2@@std@@@Z 10041ba0 f   utilit.obj
 0001:00040e50       ?IsRussian@@YA_NABV?$basic_string@DU?$char_traits@D@std@@V?$allocator@D@2@@std@@@Z 10041e50 f   utilit.obj
 0001:00040ea0       ?IsRussian@@YA_NPBD@Z      10041ea0 f   utilit.obj
 0001:00040ef0       ?IsSuperEqualChar@@YA_NEEW4MorphLanguageEnum@@@Z 10041ef0 f   utilit.obj
 0001:000410f0       ?KOI8ToWin@@YAXAAV?$basic_string@DU?$char_traits@D@std@@V?$allocator@D@2@@std@@@Z 100420f0 f   utilit.obj
 0001:00041180       ?LoadFileToString@@YA_NV?$basic_string@DU?$char_traits@D@std@@V?$allocator@D@2@@std@@AAV12@@Z 10042180 f   utilit.obj
 0001:00041310       ?MakeDir@@YA_NABV?$basic_string@DU?$char_traits@D@std@@V?$allocator@D@2@@std@@@Z 10042310 f   utilit.obj
 0001:00041380       ?MakeFName@@YA?AV?$basic_string@DU?$char_traits@D@std@@V?$allocator@D@2@@std@@ABV12@0@Z 10042380 f   utilit.obj
 0001:000414e0       ?MakePath@@YA_NPBD0PAD@Z   100424e0 f   utilit.obj
 0001:000415a0       ?QPDecodeString@@YAXAAV?$basic_string@DU?$char_traits@D@std@@V?$allocator@D@2@@std@@@Z 100425a0 f   utilit.obj
 0001:00041720       ?QPEncodeString@@YAXAAV?$basic_string@DU?$char_traits@D@std@@V?$allocator@D@2@@std@@@Z 10042720 f   utilit.obj
 0001:00041860       ?ReadShortStringHolder@CShortStringHolder@@QAEXV?$basic_string@DU?$char_traits@D@std@@V?$allocator@D@2@@std@@@Z 10042860 f   utilit.obj
 0001:00041b20       ?ReadTimeOutFromRegistry@@YA_N_NAAH@Z 10042b20 f   utilit.obj
 0001:00041d60       ?RemoveWithPrint@@YA_NABV?$basic_string@DU?$char_traits@D@std@@V?$allocator@D@2@@std@@@Z 10042d60 f   utilit.obj
 0001:00041e20       ?ReverseChar@@YAEEW4MorphLanguageEnum@@@Z 10042e20 f   utilit.obj
 0001:00042070       ?RmlCopyFile@@YA_NPBD0@Z   10043070 f   utilit.obj
 0001:00042240       ?RmlGetCurrentTime@@YA?AUtm@@XZ 10043240 f   utilit.obj
 0001:000422d0       ?RmlMakeLower@@YAAAV?$basic_string@DU?$char_traits@D@std@@V?$allocator@D@2@@std@@AAV12@W4MorphLanguageEnum@@@Z 100432d0 f   utilit.obj
 0001:00042350       ?RmlMakeUpper@@YAAAV?$basic_string@DU?$char_traits@D@std@@V?$allocator@D@2@@std@@AAV12@W4MorphLanguageEnum@@@Z 10043350 f   utilit.obj
 0001:000423a0       ?RmlMakeUpper@@YAPADPADW4MorphLanguageEnum@@@Z 100433a0 f   utilit.obj
 0001:00042400       ?RmlMoveFile@@YA_NPBD0@Z   10043400 f   utilit.obj
 0001:00042490       ?RusMakeLower@@YAPADPAD@Z  10043490 f   utilit.obj
 0001:000424f0       ?RusMakeUpper@@YAPADPAD@Z  100434f0 f   utilit.obj
 0001:00042550       ?SetRegistryString@@YAXV?$basic_string@DU?$char_traits@D@std@@V?$allocator@D@2@@std@@0@Z 10043550 f   utilit.obj
 0001:00042ab0       ?SqueezeSpacesAndDeleteEoln@@YAXAAV?$basic_string@DU?$char_traits@D@std@@V?$allocator@D@2@@std@@@Z 10043ab0 f   utilit.obj
 0001:00042c20       ?StartTimer@CMyTimeSpanHolder@@QAEXABV?$basic_string@DU?$char_traits@D@std@@V?$allocator@D@2@@std@@J@Z 10043c20 f   utilit.obj
 0001:00042e30       ?StringCrc32@@YAKPBD@Z     10043e30 f   utilit.obj
 0001:00042ea0       ?Trim@@YAAAV?$basic_string@DU?$char_traits@D@std@@V?$allocator@D@2@@std@@AAV12@@Z 10043ea0 f   utilit.obj
 0001:00042ef0       ?TrimLeft@@YAAAV?$basic_string@DU?$char_traits@D@std@@V?$allocator@D@2@@std@@AAV12@@Z 10043ef0 f   utilit.obj
 0001:00042f60       ?TrimRight@@YAAAV?$basic_string@DU?$char_traits@D@std@@V?$allocator@D@2@@std@@AAV12@@Z 10043f60 f   utilit.obj
 0001:00042fd0       ?TryReadRMLFromRegistry@@YA?AV?$basic_string@DU?$char_traits@D@std@@V?$allocator@D@2@@std@@XZ 10043fd0 f   utilit.obj
 0001:00043150       ?WinToKOI8@@YAXAAV?$basic_string@DU?$char_traits@D@std@@V?$allocator@D@2@@std@@@Z 10044150 f   utilit.obj
 0001:000431e0       ?WriteShortStringHolder@CShortStringHolder@@QBE_NABV?$basic_string@DU?$char_traits@D@std@@V?$allocator@D@2@@std@@@Z 100441e0 f   utilit.obj
 0001:00043390       ?_Alloc_proxy@?$_Tree_alloc@$0A@U?$_Tree_base_types@U?$pair@$$CBHV?$_Tree_const_iterator@V?$_Tree_val@U?$_Tree_simple_types@U?$pair@$$CBV?$basic_string@DU?$char_traits@D@std@@V?$allocator@D@2@@std@@UCMyTimeSpan@@@std@@@std@@@std@@@std@@@std@@V?$allocator@U?$pair@$$CBHV?$_Tree_const_iterator@V?$_Tree_val@U?$_Tree_simple_types@U?$pair@$$CBV?$basic_string@DU?$char_traits@D@std@@V?$allocator@D@2@@std@@UCMyTimeSpan@@@std@@@std@@@std@@@std@@@std@@@2@@std@@@std@@QAEXXZ 10044390 f i utilit.obj
 0001:00043450       ?_Alloc_proxy@?$_Tree_alloc@$0A@U?$_Tree_base_types@U?$pair@$$CBV?$basic_string@DU?$char_traits@D@std@@V?$allocator@D@2@@std@@UCMyTimeSpan@@@std@@V?$allocator@U?$pair@$$CBV?$basic_string@DU?$char_traits@D@std@@V?$allocator@D@2@@std@@UCMyTimeSpan@@@std@@@2@@std@@@std@@QAEXXZ 10044450 f i utilit.obj
 0001:00043510       ?_Alloc_proxy@?$_Vector_alloc@$0A@U?$_Vec_base_types@DV?$allocator@D@std@@@std@@@std@@QAEXXZ 10044510 f i utilit.obj
 0001:000435c0       ?_Assign_rv@?$basic_string@DU?$char_traits@D@std@@V?$allocator@D@2@@std@@QAEX$$QAV12@@Z 100445c0 f i utilit.obj
 0001:00043680       ?_Buyheadnode@?$_Tree_alloc@$0A@U?$_Tree_base_types@U?$pair@$$CBHV?$_Tree_const_iterator@V?$_Tree_val@U?$_Tree_simple_types@U?$pair@$$CBV?$basic_string@DU?$char_traits@D@std@@V?$allocator@D@2@@std@@UCMyTimeSpan@@@std@@@std@@@std@@@std@@@std@@V?$allocator@U?$pair@$$CBHV?$_Tree_const_iterator@V?$_Tree_val@U?$_Tree_simple_types@U?$pair@$$CBV?$basic_string@DU?$char_traits@D@std@@V?$allocator@D@2@@std@@UCMyTimeSpan@@@std@@@std@@@std@@@std@@@std@@@2@@std@@@std@@QAEPAU?$_Tree_node@U?$pair@$$CBHV?$_Tree_const_iterator@V?$_Tree_val@U?$_Tree_simple_types@U?$pair@$$CBV?$basic_string@DU?$char_traits@D@std@@V?$allocator@D@2@@std@@UCMyTimeSpan@@@std@@@std@@@std@@@std@@@std@@PAX@2@XZ 10044680 f i utilit.obj
 0001:00043870       ?_Buyheadnode@?$_Tree_alloc@$0A@U?$_Tree_base_types@U?$pair@$$CBV?$basic_string@DU?$char_traits@D@std@@V?$allocator@D@2@@std@@UCMyTimeSpan@@@std@@V?$allocator@U?$pair@$$CBV?$basic_string@DU?$char_traits@D@std@@V?$allocator@D@2@@std@@UCMyTimeSpan@@@std@@@2@@std@@@std@@QAEPAU?$_Tree_node@U?$pair@$$CBV?$basic_string@DU?$char_traits@D@std@@V?$allocator@D@2@@std@@UCMyTimeSpan@@@std@@PAX@2@XZ 10044870 f i utilit.obj
 0001:00043a60       ?_Buynode0@?$_Tree_buy@U?$pair@$$CBHV?$_Tree_const_iterator@V?$_Tree_val@U?$_Tree_simple_types@U?$pair@$$CBV?$basic_string@DU?$char_traits@D@std@@V?$allocator@D@2@@std@@UCMyTimeSpan@@@std@@@std@@@std@@@std@@@std@@V?$allocator@U?$pair@$$CBHV?$_Tree_const_iterator@V?$_Tree_val@U?$_Tree_simple_types@U?$pair@$$CBV?$basic_string@DU?$char_traits@D@std@@V?$allocator@D@2@@std@@UCMyTimeSpan@@@std@@@std@@@std@@@std@@@std@@@2@@std@@QAEPAU?$_Tree_node@U?$pair@$$CBHV?$_Tree_const_iterator@V?$_Tree_val@U?$_Tree_simple_types@U?$pair@$$CBV?$basic_string@DU?$char_traits@D@std@@V?$allocator@D@2@@std@@UCMyTimeSpan@@@std@@@std@@@std@@@std@@@std@@PAX@2@XZ 10044a60 f i utilit.obj
 0001:00043c10       ?_Buynode0@?$_Tree_buy@U?$pair@$$CBV?$basic_string@DU?$char_traits@D@std@@V?$allocator@D@2@@std@@UCMyTimeSpan@@@std@@V?$allocator@U?$pair@$$CBV?$basic_string@DU?$char_traits@D@std@@V?$allocator@D@2@@std@@UCMyTimeSpan@@@std@@@2@@std@@QAEPAU?$_Tree_node@U?$pair@$$CBV?$basic_string@DU?$char_traits@D@std@@V?$allocator@D@2@@std@@UCMyTimeSpan@@@std@@PAX@2@XZ 10044c10 f i utilit.obj
 0001:00043dc0       ?_Change_alloc@?$_String_alloc@$0A@U?$_String_base_types@DV?$allocator@D@std@@@std@@@std@@QAEXABU?$_Wrap_alloc@V?$allocator@D@std@@@2@@Z 10044dc0 f i utilit.obj
 0001:00043df0       ?_Chassign@?$basic_string@DU?$char_traits@D@std@@V?$allocator@D@2@@std@@QAEXIID@Z 10044df0 f i utilit.obj
 0001:00043e70       ?_Color@?$_Tree_val@U?$_Tree_simple_types@U?$pair@$$CBHV?$_Tree_const_iterator@V?$_Tree_val@U?$_Tree_simple_types@U?$pair@$$CBV?$basic_string@DU?$char_traits@D@std@@V?$allocator@D@2@@std@@UCMyTimeSpan@@@std@@@std@@@std@@@std@@@std@@@std@@@std@@SAAADPAU?$_Tree_node@U?$pair@$$CBHV?$_Tree_const_iterator@V?$_Tree_val@U?$_Tree_simple_types@U?$pair@$$CBV?$basic_string@DU?$char_traits@D@std@@V?$allocator@D@2@@std@@UCMyTimeSpan@@@std@@@std@@@std@@@std@@@std@@PAX@2@@Z 10044e70 f i utilit.obj
 0001:00043ea0       ?_Color@?$_Tree_val@U?$_Tree_simple_types@U?$pair@$$CBV?$basic_string@DU?$char_traits@D@std@@V?$allocator@D@2@@std@@UCMyTimeSpan@@@std@@@std@@@std@@SAAADPAU?$_Tree_node@U?$pair@$$CBV?$basic_string@DU?$char_traits@D@std@@V?$allocator@D@2@@std@@UCMyTimeSpan@@@std@@PAX@2@@Z 10044ea0 f i utilit.obj
 0001:00043ed0       ?_Compat@?$_String_const_iterator@V?$_String_val@U?$_Simple_types@D@std@@@std@@@std@@QBEXABV12@@Z 10044ed0 f i utilit.obj
 0001:00043fc0       ?_Compat@?$_Vector_const_iterator@V?$_Vector_val@U?$_Simple_types@D@std@@@std@@@std@@QBEXABV12@@Z 10044fc0 f i utilit.obj
 0001:000440b0       ?_Compat@?$_Vector_const_iterator@V?$_Vector_val@U?$_Simple_types@V?$basic_string@DU?$char_traits@D@std@@V?$allocator@D@2@@std@@@std@@@std@@@std@@QBEXABV12@@Z 100450b0 f i utilit.obj
 0001:000441a0       ?_Destroy@?$vector@DV?$allocator@D@std@@@std@@IAEXPAD0@Z 100451a0 f i utilit.obj
 0001:00044230       ?_Destroy@?$vector@VCShortString@@V?$allocator@VCShortString@@@std@@@std@@IAEXPAVCShortString@@0@Z 10045230 f i utilit.obj
 0001:000442c0       ?_Destroy_if_not_nil@?$_Tree@V?$_Tmap_traits@HV?$_Tree_const_iterator@V?$_Tree_val@U?$_Tree_simple_types@U?$pair@$$CBV?$basic_string@DU?$char_traits@D@std@@V?$allocator@D@2@@std@@UCMyTimeSpan@@@std@@@std@@@std@@@std@@U?$less@H@2@V?$allocator@U?$pair@$$CBHV?$_Tree_const_iterator@V?$_Tree_val@U?$_Tree_simple_types@U?$pair@$$CBV?$basic_string@DU?$char_traits@D@std@@V?$allocator@D@2@@std@@UCMyTimeSpan@@@std@@@std@@@std@@@std@@@std@@@2@$0A@@std@@@std@@IAEXPAU?$_Tree_node@U?$pair@$$CBHV?$_Tree_const_iterator@V?$_Tree_val@U?$_Tree_simple_types@U?$pair@$$CBV?$basic_string@DU?$char_traits@D@std@@V?$allocator@D@2@@std@@UCMyTimeSpan@@@std@@@std@@@std@@@std@@@std@@PAX@2@@Z 100452c0 f i utilit.obj
 0001:00044350       ?_Destroy_if_not_nil@?$_Tree@V?$_Tmap_traits@V?$basic_string@DU?$char_traits@D@std@@V?$allocator@D@2@@std@@UCMyTimeSpan@@U?$less@V?$basic_string@DU?$char_traits@D@std@@V?$allocator@D@2@@std@@@2@V?$allocator@U?$pair@$$CBV?$basic_string@DU?$char_traits@D@std@@V?$allocator@D@2@@std@@UCMyTimeSpan@@@std@@@2@$0A@@std@@@std@@IAEXPAU?$_Tree_node@U?$pair@$$CBV?$basic_string@DU?$char_traits@D@std@@V?$allocator@D@2@@std@@UCMyTimeSpan@@@std@@PAX@2@@Z 10045350 f i utilit.obj
 0001:000443e0       ?_Erase@?$_Tree@V?$_Tmap_traits@HV?$_Tree_const_iterator@V?$_Tree_val@U?$_Tree_simple_types@U?$pair@$$CBV?$basic_string@DU?$char_traits@D@std@@V?$allocator@D@2@@std@@UCMyTimeSpan@@@std@@@std@@@std@@@std@@U?$less@H@2@V?$allocator@U?$pair@$$CBHV?$_Tree_const_iterator@V?$_Tree_val@U?$_Tree_simple_types@U?$pair@$$CBV?$basic_string@DU?$char_traits@D@std@@V?$allocator@D@2@@std@@UCMyTimeSpan@@@std@@@std@@@std@@@std@@@std@@@2@$0A@@std@@@std@@IAEXPAU?$_Tree_node@U?$pair@$$CBHV?$_Tree_const_iterator@V?$_Tree_val@U?$_Tree_simple_types@U?$pair@$$CBV?$basic_string@DU?$char_traits@D@std@@V?$allocator@D@2@@std@@UCMyTimeSpan@@@std@@@std@@@std@@@std@@@std@@PAX@2@@Z 100453e0 f i utilit.obj
 0001:000444b0       ?_Erase@?$_Tree@V?$_Tmap_traits@V?$basic_string@DU?$char_traits@D@std@@V?$allocator@D@2@@std@@UCMyTimeSpan@@U?$less@V?$basic_string@DU?$char_traits@D@std@@V?$allocator@D@2@@std@@@2@V?$allocator@U?$pair@$$CBV?$basic_string@DU?$char_traits@D@std@@V?$allocator@D@2@@std@@UCMyTimeSpan@@@std@@@2@$0A@@std@@@std@@IAEXPAU?$_Tree_node@U?$pair@$$CBV?$basic_string@DU?$char_traits@D@std@@V?$allocator@D@2@@std@@UCMyTimeSpan@@@std@@PAX@2@@Z 100454b0 f i utilit.obj
 0001:00044580       ?_Free_proxy@?$_Tree_alloc@$0A@U?$_Tree_base_types@U?$pair@$$CBHV?$_Tree_const_iterator@V?$_Tree_val@U?$_Tree_simple_types@U?$pair@$$CBV?$basic_string@DU?$char_traits@D@std@@V?$allocator@D@2@@std@@UCMyTimeSpan@@@std@@@std@@@std@@@std@@@std@@V?$allocator@U?$pair@$$CBHV?$_Tree_const_iterator@V?$_Tree_val@U?$_Tree_simple_types@U?$pair@$$CBV?$basic_string@DU?$char_traits@D@std@@V?$allocator@D@2@@std@@UCMyTimeSpan@@@std@@@std@@@std@@@std@@@std@@@2@@std@@@std@@QAEXXZ 10045580 f i utilit.obj
 0001:00044640       ?_Free_proxy@?$_Vector_alloc@$0A@U?$_Vec_base_types@DV?$allocator@D@std@@@std@@@std@@QAEXXZ 10045640 f i utilit.obj
 0001:000446f0       ?_Freeheadnode@?$_Tree_alloc@$0A@U?$_Tree_base_types@U?$pair@$$CBHV?$_Tree_const_iterator@V?$_Tree_val@U?$_Tree_simple_types@U?$pair@$$CBV?$basic_string@DU?$char_traits@D@std@@V?$allocator@D@2@@std@@UCMyTimeSpan@@@std@@@std@@@std@@@std@@@std@@V?$allocator@U?$pair@$$CBHV?$_Tree_const_iterator@V?$_Tree_val@U?$_Tree_simple_types@U?$pair@$$CBV?$basic_string@DU?$char_traits@D@std@@V?$allocator@D@2@@std@@UCMyTimeSpan@@@std@@@std@@@std@@@std@@@std@@@2@@std@@@std@@QAEXPAU?$_Tree_node@U?$pair@$$CBHV?$_Tree_const_iterator@V?$_Tree_val@U?$_Tree_simple_types@U?$pair@$$CBV?$basic_string@DU?$char_traits@D@std@@V?$allocator@D@2@@std@@UCMyTimeSpan@@@std@@@std@@@std@@@std@@@std@@PAX@2@@Z 100456f0 f i utilit.obj
 0001:000447d0       ?_Freeheadnode@?$_Tree_alloc@$0A@U?$_Tree_base_types@U?$pair@$$CBV?$basic_string@DU?$char_traits@D@std@@V?$allocator@D@2@@std@@UCMyTimeSpan@@@std@@V?$allocator@U?$pair@$$CBV?$basic_string@DU?$char_traits@D@std@@V?$allocator@D@2@@std@@UCMyTimeSpan@@@std@@@2@@std@@@std@@QAEXPAU?$_Tree_node@U?$pair@$$CBV?$basic_string@DU?$char_traits@D@std@@V?$allocator@D@2@@std@@UCMyTimeSpan@@@std@@PAX@2@@Z 100457d0 f i utilit.obj
 0001:000448b0       ?_Freenode0@?$_Tree_buy@U?$pair@$$CBHV?$_Tree_const_iterator@V?$_Tree_val@U?$_Tree_simple_types@U?$pair@$$CBV?$basic_string@DU?$char_traits@D@std@@V?$allocator@D@2@@std@@UCMyTimeSpan@@@std@@@std@@@std@@@std@@@std@@V?$allocator@U?$pair@$$CBHV?$_Tree_const_iterator@V?$_Tree_val@U?$_Tree_simple_types@U?$pair@$$CBV?$basic_string@DU?$char_traits@D@std@@V?$allocator@D@2@@std@@UCMyTimeSpan@@@std@@@std@@@std@@@std@@@std@@@2@@std@@QAEXPAU?$_Tree_node@U?$pair@$$CBHV?$_Tree_const_iterator@V?$_Tree_val@U?$_Tree_simple_types@U?$pair@$$CBV?$basic_string@DU?$char_traits@D@std@@V?$allocator@D@2@@std@@UCMyTimeSpan@@@std@@@std@@@std@@@std@@@std@@PAX@2@@Z 100458b0 f i utilit.obj
 0001:00044990       ?_Freenode0@?$_Tree_buy@U?$pair@$$CBV?$basic_string@DU?$char_traits@D@std@@V?$allocator@D@2@@std@@UCMyTimeSpan@@@std@@V?$allocator@U?$pair@$$CBV?$basic_string@DU?$char_traits@D@std@@V?$allocator@D@2@@std@@UCMyTimeSpan@@@std@@@2@@std@@QAEXPAU?$_Tree_node@U?$pair@$$CBV?$basic_string@DU?$char_traits@D@std@@V?$allocator@D@2@@std@@UCMyTimeSpan@@@std@@PAX@2@@Z 10045990 f i utilit.obj
 0001:00044a70       ?_Get_rest@?$tuple@ABH@std@@QAEAAV?$tuple@$$$V@2@XZ 10045a70 f i utilit.obj
 0001:00044aa0       ?_Getal@?$_Tree_alloc@$0A@U?$_Tree_base_types@U?$pair@$$CBHV?$_Tree_const_iterator@V?$_Tree_val@U?$_Tree_simple_types@U?$pair@$$CBV?$basic_string@DU?$char_traits@D@std@@V?$allocator@D@2@@std@@UCMyTimeSpan@@@std@@@std@@@std@@@std@@@std@@V?$allocator@U?$pair@$$CBHV?$_Tree_const_iterator@V?$_Tree_val@U?$_Tree_simple_types@U?$pair@$$CBV?$basic_string@DU?$char_traits@D@std@@V?$allocator@D@2@@std@@UCMyTimeSpan@@@std@@@std@@@std@@@std@@@std@@@2@@std@@@std@@QBE?AU?$_Wrap_alloc@V?$allocator@U?$_Tree_node@U?$pair@$$CBHV?$_Tree_const_iterator@V?$_Tree_val@U?$_Tree_simple_types@U?$pair@$$CBV?$basic_string@DU?$char_traits@D@std@@V?$allocator@D@2@@std@@UCMyTimeSpan@@@std@@@std@@@std@@@std@@@std@@PAX@std@@@std@@@2@XZ 10045aa0 f i utilit.obj
 0001:00044af0       ?_Getal@?$_Tree_alloc@$0A@U?$_Tree_base_types@U?$pair@$$CBV?$basic_string@DU?$char_traits@D@std@@V?$allocator@D@2@@std@@UCMyTimeSpan@@@std@@V?$allocator@U?$pair@$$CBV?$basic_string@DU?$char_traits@D@std@@V?$allocator@D@2@@std@@UCMyTimeSpan@@@std@@@2@@std@@@std@@QBE?AU?$_Wrap_alloc@V?$allocator@U?$_Tree_node@U?$pair@$$CBV?$basic_string@DU?$char_traits@D@std@@V?$allocator@D@2@@std@@UCMyTimeSpan@@@std@@PAX@std@@@std@@@2@XZ 10045af0 f i utilit.obj
 0001:00044b40       ?_Getal@?$_Vector_alloc@$0A@U?$_Vec_base_types@DV?$allocator@D@std@@@std@@@std@@QBE?AU?$_Wrap_alloc@V?$allocator@D@std@@@2@XZ 10045b40 f i utilit.obj
 0001:00044b90       ?_Getal@?$_Vector_alloc@$0A@U?$_Vec_base_types@VCShortString@@V?$allocator@VCShortString@@@std@@@std@@@std@@QBE?AU?$_Wrap_alloc@V?$allocator@VCShortString@@@std@@@2@XZ 10045b90 f i utilit.obj
 0001:00044be0       ?_Getcomp@?$_Tree_comp@$0A@V?$_Tmap_traits@HV?$_Tree_const_iterator@V?$_Tree_val@U?$_Tree_simple_types@U?$pair@$$CBV?$basic_string@DU?$char_traits@D@std@@V?$allocator@D@2@@std@@UCMyTimeSpan@@@std@@@std@@@std@@@std@@U?$less@H@2@V?$allocator@U?$pair@$$CBHV?$_Tree_const_iterator@V?$_Tree_val@U?$_Tree_simple_types@U?$pair@$$CBV?$basic_string@DU?$char_traits@D@std@@V?$allocator@D@2@@std@@UCMyTimeSpan@@@std@@@std@@@std@@@std@@@std@@@2@$0A@@std@@@std@@QBE?AU?$less@H@2@XZ 10045be0 f i utilit.obj
 0001:00044c10       ?_Getcomp@?$_Tree_comp@$0A@V?$_Tmap_traits@V?$basic_string@DU?$char_traits@D@std@@V?$allocator@D@2@@std@@UCMyTimeSpan@@U?$less@V?$basic_string@DU?$char_traits@D@std@@V?$allocator@D@2@@std@@@2@V?$allocator@U?$pair@$$CBV?$basic_string@DU?$char_traits@D@std@@V?$allocator@D@2@@std@@UCMyTimeSpan@@@std@@@2@$0A@@std@@@std@@QBE?AU?$less@V?$basic_string@DU?$char_traits@D@std@@V?$allocator@D@2@@std@@@2@XZ 10045c10 f i utilit.obj
 0001:00044c40       ?_Grow_to@?$vector@DV?$allocator@D@std@@@std@@IBEII@Z 10045c40 f i utilit.obj
 0001:00044cd0       ?_Grow_to@?$vector@VCShortString@@V?$allocator@VCShortString@@@std@@@std@@IBEII@Z 10045cd0 f i utilit.obj
 0001:00044d60       ?_Inside@?$vector@DV?$allocator@D@std@@@std@@IBE_NPBD@Z 10045d60 f i utilit.obj
 0001:00044dc0       ?_Inside@?$vector@VCShortString@@V?$allocator@VCShortString@@@std@@@std@@IBE_NPBVCShortString@@@Z 10045dc0 f i utilit.obj
 0001:00044e20       ?_Isnil@?$_Tree_val@U?$_Tree_simple_types@U?$pair@$$CBHV?$_Tree_const_iterator@V?$_Tree_val@U?$_Tree_simple_types@U?$pair@$$CBV?$basic_string@DU?$char_traits@D@std@@V?$allocator@D@2@@std@@UCMyTimeSpan@@@std@@@std@@@std@@@std@@@std@@@std@@@std@@SAAADPAU?$_Tree_node@U?$pair@$$CBHV?$_Tree_const_iterator@V?$_Tree_val@U?$_Tree_simple_types@U?$pair@$$CBV?$basic_string@DU?$char_traits@D@std@@V?$allocator@D@2@@std@@UCMyTimeSpan@@@std@@@std@@@std@@@std@@@std@@PAX@2@@Z 10045e20 f i utilit.obj
 0001:00044e50       ?_Isnil@?$_Tree_val@U?$_Tree_simple_types@U?$pair@$$CBV?$basic_string@DU?$char_traits@D@std@@V?$allocator@D@2@@std@@UCMyTimeSpan@@@std@@@std@@@std@@SAAADPAU?$_Tree_node@U?$pair@$$CBV?$basic_string@DU?$char_traits@D@std@@V?$allocator@D@2@@std@@UCMyTimeSpan@@@std@@PAX@2@@Z 10045e50 f i utilit.obj
 0001:00044e80       ?_Isnil@?$_Tree_val@U?$_Tree_simple_types@V?$basic_string@DU?$char_traits@D@std@@V?$allocator@D@2@@std@@@std@@@std@@SAAADPAU?$_Tree_node@V?$basic_string@DU?$char_traits@D@std@@V?$allocator@D@2@@std@@PAX@2@@Z 10045e80 f i utilit.obj
 0001:00044eb0       ?_Key@?$_Tree@V?$_Tmap_traits@HV?$_Tree_const_iterator@V?$_Tree_val@U?$_Tree_simple_types@U?$pair@$$CBV?$basic_string@DU?$char_traits@D@std@@V?$allocator@D@2@@std@@UCMyTimeSpan@@@std@@@std@@@std@@@std@@U?$less@H@2@V?$allocator@U?$pair@$$CBHV?$_Tree_const_iterator@V?$_Tree_val@U?$_Tree_simple_types@U?$pair@$$CBV?$basic_string@DU?$char_traits@D@std@@V?$allocator@D@2@@std@@UCMyTimeSpan@@@std@@@std@@@std@@@std@@@std@@@2@$0A@@std@@@std@@IBEABHPAU?$_Tree_node@U?$pair@$$CBHV?$_Tree_const_iterator@V?$_Tree_val@U?$_Tree_simple_types@U?$pair@$$CBV?$basic_string@DU?$char_traits@D@std@@V?$allocator@D@2@@std@@UCMyTimeSpan@@@std@@@std@@@std@@@std@@@std@@PAX@2@@Z 10045eb0 f i utilit.obj
 0001:00044f00       ?_Key@?$_Tree@V?$_Tmap_traits@V?$basic_string@DU?$char_traits@D@std@@V?$allocator@D@2@@std@@UCMyTimeSpan@@U?$less@V?$basic_string@DU?$char_traits@D@std@@V?$allocator@D@2@@std@@@2@V?$allocator@U?$pair@$$CBV?$basic_string@DU?$char_traits@D@std@@V?$allocator@D@2@@std@@UCMyTimeSpan@@@std@@@2@$0A@@std@@@std@@IBEABV?$basic_string@DU?$char_traits@D@std@@V?$allocator@D@2@@2@PAU?$_Tree_node@U?$pair@$$CBV?$basic_string@DU?$char_traits@D@std@@V?$allocator@D@2@@std@@UCMyTimeSpan@@@std@@PAX@2@@Z 10045f00 f i utilit.obj
 0001:00044f50       ?_Kfn@?$_Tree@V?$_Tmap_traits@HV?$_Tree_const_iterator@V?$_Tree_val@U?$_Tree_simple_types@U?$pair@$$CBV?$basic_string@DU?$char_traits@D@std@@V?$allocator@D@2@@std@@UCMyTimeSpan@@@std@@@std@@@std@@@std@@U?$less@H@2@V?$allocator@U?$pair@$$CBHV?$_Tree_const_iterator@V?$_Tree_val@U?$_Tree_simple_types@U?$pair@$$CBV?$basic_string@DU?$char_traits@D@std@@V?$allocator@D@2@@std@@UCMyTimeSpan@@@std@@@std@@@std@@@std@@@std@@@2@$0A@@std@@@std@@IBEABHABU?$pair@$$CBHV?$_Tree_const_iterator@V?$_Tree_val@U?$_Tree_simple_types@U?$pair@$$CBV?$basic_string@DU?$char_traits@D@std@@V?$allocator@D@2@@std@@UCMyTimeSpan@@@std@@@std@@@std@@@std@@@2@@Z 10045f50 f i utilit.obj
 0001:00044fa0       ?_Kfn@?$_Tree@V?$_Tmap_traits@V?$basic_string@DU?$char_traits@D@std@@V?$allocator@D@2@@std@@UCMyTimeSpan@@U?$less@V?$basic_string@DU?$char_traits@D@std@@V?$allocator@D@2@@std@@@2@V?$allocator@U?$pair@$$CBV?$basic_string@DU?$char_traits@D@std@@V?$allocator@D@2@@std@@UCMyTimeSpan@@@std@@@2@$0A@@std@@@std@@IBEABV?$basic_string@DU?$char_traits@D@std@@V?$allocator@D@2@@2@ABU?$pair@$$CBV?$basic_string@DU?$char_traits@D@std@@V?$allocator@D@2@@std@@UCMyTimeSpan@@@2@@Z 10045fa0 f i utilit.obj
 0001:00044ff0       ?_Lbound@?$_Tree@V?$_Tmap_traits@HV?$_Tree_const_iterator@V?$_Tree_val@U?$_Tree_simple_types@U?$pair@$$CBV?$basic_string@DU?$char_traits@D@std@@V?$allocator@D@2@@std@@UCMyTimeSpan@@@std@@@std@@@std@@@std@@U?$less@H@2@V?$allocator@U?$pair@$$CBHV?$_Tree_const_iterator@V?$_Tree_val@U?$_Tree_simple_types@U?$pair@$$CBV?$basic_string@DU?$char_traits@D@std@@V?$allocator@D@2@@std@@UCMyTimeSpan@@@std@@@std@@@std@@@std@@@std@@@2@$0A@@std@@@std@@IAEPAU?$_Tree_node@U?$pair@$$CBHV?$_Tree_const_iterator@V?$_Tree_val@U?$_Tree_simple_types@U?$pair@$$CBV?$basic_string@DU?$char_traits@D@std@@V?$allocator@D@2@@std@@UCMyTimeSpan@@@std@@@std@@@std@@@std@@@std@@PAX@2@ABH@Z 10045ff0 f i utilit.obj
 0001:000450c0       ?_Lbound@?$_Tree@V?$_Tmap_traits@V?$basic_string@DU?$char_traits@D@std@@V?$allocator@D@2@@std@@UCMyTimeSpan@@U?$less@V?$basic_string@DU?$char_traits@D@std@@V?$allocator@D@2@@std@@@2@V?$allocator@U?$pair@$$CBV?$basic_string@DU?$char_traits@D@std@@V?$allocator@D@2@@std@@UCMyTimeSpan@@@std@@@2@$0A@@std@@@std@@IAEPAU?$_Tree_node@U?$pair@$$CBV?$basic_string@DU?$char_traits@D@std@@V?$allocator@D@2@@std@@UCMyTimeSpan@@@std@@PAX@2@ABV?$basic_string@DU?$char_traits@D@std@@V?$allocator@D@2@@2@@Z 100460c0 f i utilit.obj
 0001:00045190       ?_Left@?$_Tree_val@U?$_Tree_simple_types@U?$pair@$$CBHV?$_Tree_const_iterator@V?$_Tree_val@U?$_Tree_simple_types@U?$pair@$$CBV?$basic_string@DU?$char_traits@D@std@@V?$allocator@D@2@@std@@UCMyTimeSpan@@@std@@@std@@@std@@@std@@@std@@@std@@@std@@SAAAPAU?$_Tree_node@U?$pair@$$CBHV?$_Tree_const_iterator@V?$_Tree_val@U?$_Tree_simple_types@U?$pair@$$CBV?$basic_string@DU?$char_traits@D@std@@V?$allocator@D@2@@std@@UCMyTimeSpan@@@std@@@std@@@std@@@std@@@std@@PAX@2@PAU32@@Z 10046190 f i utilit.obj
 0001:000451c0       ?_Left@?$_Tree_val@U?$_Tree_simple_types@U?$pair@$$CBV?$basic_string@DU?$char_traits@D@std@@V?$allocator@D@2@@std@@UCMyTimeSpan@@@std@@@std@@@std@@SAAAPAU?$_Tree_node@U?$pair@$$CBV?$basic_string@DU?$char_traits@D@std@@V?$allocator@D@2@@std@@UCMyTimeSpan@@@std@@PAX@2@PAU32@@Z 100461c0 f i utilit.obj
 0001:000451f0       ?_Left@?$_Tree_val@U?$_Tree_simple_types@V?$basic_string@DU?$char_traits@D@std@@V?$allocator@D@2@@std@@@std@@@std@@SAAAPAU?$_Tree_node@V?$basic_string@DU?$char_traits@D@std@@V?$allocator@D@2@@std@@PAX@2@PAU32@@Z 100461f0 f i utilit.obj
 0001:00045220       ?_Lmost@?$_Tree@V?$_Tmap_traits@HV?$_Tree_const_iterator@V?$_Tree_val@U?$_Tree_simple_types@U?$pair@$$CBV?$basic_string@DU?$char_traits@D@std@@V?$allocator@D@2@@std@@UCMyTimeSpan@@@std@@@std@@@std@@@std@@U?$less@H@2@V?$allocator@U?$pair@$$CBHV?$_Tree_const_iterator@V?$_Tree_val@U?$_Tree_simple_types@U?$pair@$$CBV?$basic_string@DU?$char_traits@D@std@@V?$allocator@D@2@@std@@UCMyTimeSpan@@@std@@@std@@@std@@@std@@@std@@@2@$0A@@std@@@std@@IBEAAPAU?$_Tree_node@U?$pair@$$CBHV?$_Tree_const_iterator@V?$_Tree_val@U?$_Tree_simple_types@U?$pair@$$CBV?$basic_string@DU?$char_traits@D@std@@V?$allocator@D@2@@std@@UCMyTimeSpan@@@std@@@std@@@std@@@std@@@std@@PAX@2@XZ 10046220 f i utilit.obj
 0001:00045270       ?_Lmost@?$_Tree@V?$_Tmap_traits@V?$basic_string@DU?$char_traits@D@std@@V?$allocator@D@2@@std@@UCMyTimeSpan@@U?$less@V?$basic_string@DU?$char_traits@D@std@@V?$allocator@D@2@@std@@@2@V?$allocator@U?$pair@$$CBV?$basic_string@DU?$char_traits@D@std@@V?$allocator@D@2@@std@@UCMyTimeSpan@@@std@@@2@$0A@@std@@@std@@IBEAAPAU?$_Tree_node@U?$pair@$$CBV?$basic_string@DU?$char_traits@D@std@@V?$allocator@D@2@@std@@UCMyTimeSpan@@@std@@PAX@2@XZ 10046270 f i utilit.obj
 0001:000452c0       ?_Lmost@?$_Tree@V?$_Tset_traits@V?$basic_string@DU?$char_traits@D@std@@V?$allocator@D@2@@std@@U?$less@V?$basic_string@DU?$char_traits@D@std@@V?$allocator@D@2@@std@@@2@V?$allocator@V?$basic_string@DU?$char_traits@D@std@@V?$allocator@D@2@@std@@@2@$0A@@std@@@std@@IBEAAPAU?$_Tree_node@V?$basic_string@DU?$char_traits@D@std@@V?$allocator@D@2@@std@@PAX@2@XZ 100462c0 f i utilit.obj
 0001:00045310       ?_Lrotate@?$_Tree@V?$_Tmap_traits@HV?$_Tree_const_iterator@V?$_Tree_val@U?$_Tree_simple_types@U?$pair@$$CBV?$basic_string@DU?$char_traits@D@std@@V?$allocator@D@2@@std@@UCMyTimeSpan@@@std@@@std@@@std@@@std@@U?$less@H@2@V?$allocator@U?$pair@$$CBHV?$_Tree_const_iterator@V?$_Tree_val@U?$_Tree_simple_types@U?$pair@$$CBV?$basic_string@DU?$char_traits@D@std@@V?$allocator@D@2@@std@@UCMyTimeSpan@@@std@@@std@@@std@@@std@@@std@@@2@$0A@@std@@@std@@IAEXPAU?$_Tree_node@U?$pair@$$CBHV?$_Tree_const_iterator@V?$_Tree_val@U?$_Tree_simple_types@U?$pair@$$CBV?$basic_string@DU?$char_traits@D@std@@V?$allocator@D@2@@std@@UCMyTimeSpan@@@std@@@std@@@std@@@std@@@std@@PAX@2@@Z 10046310 f i utilit.obj
 0001:00045470       ?_Lrotate@?$_Tree@V?$_Tmap_traits@V?$basic_string@DU?$char_traits@D@std@@V?$allocator@D@2@@std@@UCMyTimeSpan@@U?$less@V?$basic_string@DU?$char_traits@D@std@@V?$allocator@D@2@@std@@@2@V?$allocator@U?$pair@$$CBV?$basic_string@DU?$char_traits@D@std@@V?$allocator@D@2@@std@@UCMyTimeSpan@@@std@@@2@$0A@@std@@@std@@IAEXPAU?$_Tree_node@U?$pair@$$CBV?$basic_string@DU?$char_traits@D@std@@V?$allocator@D@2@@std@@UCMyTimeSpan@@@std@@PAX@2@@Z 10046470 f i utilit.obj
 0001:000455d0       ?_Max@?$_Tree_val@U?$_Tree_simple_types@U?$pair@$$CBHV?$_Tree_const_iterator@V?$_Tree_val@U?$_Tree_simple_types@U?$pair@$$CBV?$basic_string@DU?$char_traits@D@std@@V?$allocator@D@2@@std@@UCMyTimeSpan@@@std@@@std@@@std@@@std@@@std@@@std@@@std@@SAPAU?$_Tree_node@U?$pair@$$CBHV?$_Tree_const_iterator@V?$_Tree_val@U?$_Tree_simple_types@U?$pair@$$CBV?$basic_string@DU?$char_traits@D@std@@V?$allocator@D@2@@std@@UCMyTimeSpan@@@std@@@std@@@std@@@std@@@std@@PAX@2@PAU32@@Z 100465d0 f i utilit.obj
 0001:00045640       ?_Max@?$_Tree_val@U?$_Tree_simple_types@U?$pair@$$CBV?$basic_string@DU?$char_traits@D@std@@V?$allocator@D@2@@std@@UCMyTimeSpan@@@std@@@std@@@std@@SAPAU?$_Tree_node@U?$pair@$$CBV?$basic_string@DU?$char_traits@D@std@@V?$allocator@D@2@@std@@UCMyTimeSpan@@@std@@PAX@2@PAU32@@Z 10046640 f i utilit.obj
 0001:000456b0       ?_Min@?$_Tree_val@U?$_Tree_simple_types@U?$pair@$$CBHV?$_Tree_const_iterator@V?$_Tree_val@U?$_Tree_simple_types@U?$pair@$$CBV?$basic_string@DU?$char_traits@D@std@@V?$allocator@D@2@@std@@UCMyTimeSpan@@@std@@@std@@@std@@@std@@@std@@@std@@@std@@SAPAU?$_Tree_node@U?$pair@$$CBHV?$_Tree_const_iterator@V?$_Tree_val@U?$_Tree_simple_types@U?$pair@$$CBV?$basic_string@DU?$char_traits@D@std@@V?$allocator@D@2@@std@@UCMyTimeSpan@@@std@@@std@@@std@@@std@@@std@@PAX@2@PAU32@@Z 100466b0 f i utilit.obj
 0001:00045720       ?_Min@?$_Tree_val@U?$_Tree_simple_types@U?$pair@$$CBV?$basic_string@DU?$char_traits@D@std@@V?$allocator@D@2@@std@@UCMyTimeSpan@@@std@@@std@@@std@@SAPAU?$_Tree_node@U?$pair@$$CBV?$basic_string@DU?$char_traits@D@std@@V?$allocator@D@2@@std@@UCMyTimeSpan@@@std@@PAX@2@PAU32@@Z 10046720 f i utilit.obj
 0001:00045790       ?_Min@?$_Tree_val@U?$_Tree_simple_types@V?$basic_string@DU?$char_traits@D@std@@V?$allocator@D@2@@std@@@std@@@std@@SAPAU?$_Tree_node@V?$basic_string@DU?$char_traits@D@std@@V?$allocator@D@2@@std@@PAX@2@PAU32@@Z 10046790 f i utilit.obj
 0001:00045800       ?_Mynode@?$_Tree_unchecked_const_iterator@V?$_Tree_val@U?$_Tree_simple_types@U?$pair@$$CBHV?$_Tree_const_iterator@V?$_Tree_val@U?$_Tree_simple_types@U?$pair@$$CBV?$basic_string@DU?$char_traits@D@std@@V?$allocator@D@2@@std@@UCMyTimeSpan@@@std@@@std@@@std@@@std@@@std@@@std@@@std@@U_Iterator_base12@2@@std@@QBEPAU?$_Tree_node@U?$pair@$$CBHV?$_Tree_const_iterator@V?$_Tree_val@U?$_Tree_simple_types@U?$pair@$$CBV?$basic_string@DU?$char_traits@D@std@@V?$allocator@D@2@@std@@UCMyTimeSpan@@@std@@@std@@@std@@@std@@@std@@PAX@2@XZ 10046800 f i utilit.obj
 0001:00045830       ?_Mynode@?$_Tree_unchecked_const_iterator@V?$_Tree_val@U?$_Tree_simple_types@U?$pair@$$CBV?$basic_string@DU?$char_traits@D@std@@V?$allocator@D@2@@std@@UCMyTimeSpan@@@std@@@std@@@std@@U_Iterator_base12@2@@std@@QBEPAU?$_Tree_node@U?$pair@$$CBV?$basic_string@DU?$char_traits@D@std@@V?$allocator@D@2@@std@@UCMyTimeSpan@@@std@@PAX@2@XZ 10046830 f i utilit.obj
 0001:00045860       ?_Myval@?$_Tree_val@U?$_Tree_simple_types@U?$pair@$$CBHV?$_Tree_const_iterator@V?$_Tree_val@U?$_Tree_simple_types@U?$pair@$$CBV?$basic_string@DU?$char_traits@D@std@@V?$allocator@D@2@@std@@UCMyTimeSpan@@@std@@@std@@@std@@@std@@@std@@@std@@@std@@SAAAU?$pair@$$CBHV?$_Tree_const_iterator@V?$_Tree_val@U?$_Tree_simple_types@U?$pair@$$CBV?$basic_string@DU?$char_traits@D@std@@V?$allocator@D@2@@std@@UCMyTimeSpan@@@std@@@std@@@std@@@std@@@2@PAU?$_Tree_node@U?$pair@$$CBHV?$_Tree_const_iterator@V?$_Tree_val@U?$_Tree_simple_types@U?$pair@$$CBV?$basic_string@DU?$char_traits@D@std@@V?$allocator@D@2@@std@@UCMyTimeSpan@@@std@@@std@@@std@@@std@@@std@@PAX@2@@Z 10046860 f i utilit.obj
 0001:00045890       ?_Myval@?$_Tree_val@U?$_Tree_simple_types@U?$pair@$$CBV?$basic_string@DU?$char_traits@D@std@@V?$allocator@D@2@@std@@UCMyTimeSpan@@@std@@@std@@@std@@SAAAU?$pair@$$CBV?$basic_string@DU?$char_traits@D@std@@V?$allocator@D@2@@std@@UCMyTimeSpan@@@2@PAU?$_Tree_node@U?$pair@$$CBV?$basic_string@DU?$char_traits@D@std@@V?$allocator@D@2@@std@@UCMyTimeSpan@@@std@@PAX@2@@Z 10046890 f i utilit.obj
 0001:000458c0       ?_Myval@?$_Tree_val@U?$_Tree_simple_types@V?$basic_string@DU?$char_traits@D@std@@V?$allocator@D@2@@std@@@std@@@std@@SAAAV?$basic_string@DU?$char_traits@D@std@@V?$allocator@D@2@@2@PAU?$_Tree_node@V?$basic_string@DU?$char_traits@D@std@@V?$allocator@D@2@@std@@PAX@2@@Z 100468c0 f i utilit.obj
 0001:000458f0       ?_Orphan_ptr@?$_Tree@V?$_Tmap_traits@HV?$_Tree_const_iterator@V?$_Tree_val@U?$_Tree_simple_types@U?$pair@$$CBV?$basic_string@DU?$char_traits@D@std@@V?$allocator@D@2@@std@@UCMyTimeSpan@@@std@@@std@@@std@@@std@@U?$less@H@2@V?$allocator@U?$pair@$$CBHV?$_Tree_const_iterator@V?$_Tree_val@U?$_Tree_simple_types@U?$pair@$$CBV?$basic_string@DU?$char_traits@D@std@@V?$allocator@D@2@@std@@UCMyTimeSpan@@@std@@@std@@@std@@@std@@@std@@@2@$0A@@std@@@std@@IBEXAAV12@PAU?$_Tree_node@U?$pair@$$CBHV?$_Tree_const_iterator@V?$_Tree_val@U?$_Tree_simple_types@U?$pair@$$CBV?$basic_string@DU?$char_traits@D@std@@V?$allocator@D@2@@std@@UCMyTimeSpan@@@std@@@std@@@std@@@std@@@std@@PAX@2@@Z 100468f0 f i utilit.obj
 0001:00045a30       ?_Orphan_ptr@?$_Tree@V?$_Tmap_traits@V?$basic_string@DU?$char_traits@D@std@@V?$allocator@D@2@@std@@UCMyTimeSpan@@U?$less@V?$basic_string@DU?$char_traits@D@std@@V?$allocator@D@2@@std@@@2@V?$allocator@U?$pair@$$CBV?$basic_string@DU?$char_traits@D@std@@V?$allocator@D@2@@std@@UCMyTimeSpan@@@std@@@2@$0A@@std@@@std@@IBEXAAV12@PAU?$_Tree_node@U?$pair@$$CBV?$basic_string@DU?$char_traits@D@std@@V?$allocator@D@2@@std@@UCMyTimeSpan@@@std@@PAX@2@@Z 10046a30 f i utilit.obj
 0001:00045b70       ?_Orphan_range@?$vector@DV?$allocator@D@std@@@std@@IBEXPAD0@Z 10046b70 f i utilit.obj
 0001:00045ca0       ?_Orphan_range@?$vector@VCShortString@@V?$allocator@VCShortString@@@std@@@std@@IBEXPAVCShortString@@0@Z 10046ca0 f i utilit.obj
 0001:00045dd0       ?_Parent@?$_Tree_val@U?$_Tree_simple_types@U?$pair@$$CBHV?$_Tree_const_iterator@V?$_Tree_val@U?$_Tree_simple_types@U?$pair@$$CBV?$basic_string@DU?$char_traits@D@std@@V?$allocator@D@2@@std@@UCMyTimeSpan@@@std@@@std@@@std@@@std@@@std@@@std@@@std@@SAAAPAU?$_Tree_node@U?$pair@$$CBHV?$_Tree_const_iterator@V?$_Tree_val@U?$_Tree_simple_types@U?$pair@$$CBV?$basic_string@DU?$char_traits@D@std@@V?$allocator@D@2@@std@@UCMyTimeSpan@@@std@@@std@@@std@@@std@@@std@@PAX@2@PAU32@@Z 10046dd0 f i utilit.obj
 0001:00045e00       ?_Parent@?$_Tree_val@U?$_Tree_simple_types@U?$pair@$$CBV?$basic_string@DU?$char_traits@D@std@@V?$allocator@D@2@@std@@UCMyTimeSpan@@@std@@@std@@@std@@SAAAPAU?$_Tree_node@U?$pair@$$CBV?$basic_string@DU?$char_traits@D@std@@V?$allocator@D@2@@std@@UCMyTimeSpan@@@std@@PAX@2@PAU32@@Z 10046e00 f i utilit.obj
 0001:00045e30       ?_Parent@?$_Tree_val@U?$_Tree_simple_types@V?$basic_string@DU?$char_traits@D@std@@V?$allocator@D@2@@std@@@std@@@std@@SAAAPAU?$_Tree_node@V?$basic_string@DU?$char_traits@D@std@@V?$allocator@D@2@@std@@PAX@2@PAU32@@Z 10046e30 f i utilit.obj
 0001:00045e60       ?_Pdif@?$basic_string@DU?$char_traits@D@std@@V?$allocator@D@2@@std@@SAIV?$_String_const_iterator@V?$_String_val@U?$_Simple_types@D@std@@@std@@@2@0@Z 10046e60 f i utilit.obj
 0001:00045f20       ?_Reallocate@?$vector@DV?$allocator@D@std@@@std@@IAEXI@Z 10046f20 f i utilit.obj
 0001:00046090       ?_Reallocate@?$vector@VCShortString@@V?$allocator@VCShortString@@@std@@@std@@IAEXI@Z 10047090 f i utilit.obj
 0001:00046210       ?_Reserve@?$vector@DV?$allocator@D@std@@@std@@IAEXI@Z 10047210 f i utilit.obj
 0001:000462a0       ?_Reserve@?$vector@VCShortString@@V?$allocator@VCShortString@@@std@@@std@@IAEXI@Z 100472a0 f i utilit.obj
 0001:00046330       ?_Right@?$_Tree_val@U?$_Tree_simple_types@U?$pair@$$CBHV?$_Tree_const_iterator@V?$_Tree_val@U?$_Tree_simple_types@U?$pair@$$CBV?$basic_string@DU?$char_traits@D@std@@V?$allocator@D@2@@std@@UCMyTimeSpan@@@std@@@std@@@std@@@std@@@std@@@std@@@std@@SAAAPAU?$_Tree_node@U?$pair@$$CBHV?$_Tree_const_iterator@V?$_Tree_val@U?$_Tree_simple_types@U?$pair@$$CBV?$basic_string@DU?$char_traits@D@std@@V?$allocator@D@2@@std@@UCMyTimeSpan@@@std@@@std@@@std@@@std@@@std@@PAX@2@PAU32@@Z 10047330 f i utilit.obj
 0001:00046360       ?_Right@?$_Tree_val@U?$_Tree_simple_types@U?$pair@$$CBV?$basic_string@DU?$char_traits@D@std@@V?$allocator@D@2@@std@@UCMyTimeSpan@@@std@@@std@@@std@@SAAAPAU?$_Tree_node@U?$pair@$$CBV?$basic_string@DU?$char_traits@D@std@@V?$allocator@D@2@@std@@UCMyTimeSpan@@@std@@PAX@2@PAU32@@Z 10047360 f i utilit.obj
 0001:00046390       ?_Right@?$_Tree_val@U?$_Tree_simple_types@V?$basic_string@DU?$char_traits@D@std@@V?$allocator@D@2@@std@@@std@@@std@@SAAAPAU?$_Tree_node@V?$basic_string@DU?$char_traits@D@std@@V?$allocator@D@2@@std@@PAX@2@PAU32@@Z 10047390 f i utilit.obj
 0001:000463c0       ?_Rmost@?$_Tree@V?$_Tmap_traits@HV?$_Tree_const_iterator@V?$_Tree_val@U?$_Tree_simple_types@U?$pair@$$CBV?$basic_string@DU?$char_traits@D@std@@V?$allocator@D@2@@std@@UCMyTimeSpan@@@std@@@std@@@std@@@std@@U?$less@H@2@V?$allocator@U?$pair@$$CBHV?$_Tree_const_iterator@V?$_Tree_val@U?$_Tree_simple_types@U?$pair@$$CBV?$basic_string@DU?$char_traits@D@std@@V?$allocator@D@2@@std@@UCMyTimeSpan@@@std@@@std@@@std@@@std@@@std@@@2@$0A@@std@@@std@@IBEAAPAU?$_Tree_node@U?$pair@$$CBHV?$_Tree_const_iterator@V?$_Tree_val@U?$_Tree_simple_types@U?$pair@$$CBV?$basic_string@DU?$char_traits@D@std@@V?$allocator@D@2@@std@@UCMyTimeSpan@@@std@@@std@@@std@@@std@@@std@@PAX@2@XZ 100473c0 f i utilit.obj
 0001:00046410       ?_Rmost@?$_Tree@V?$_Tmap_traits@V?$basic_string@DU?$char_traits@D@std@@V?$allocator@D@2@@std@@UCMyTimeSpan@@U?$less@V?$basic_string@DU?$char_traits@D@std@@V?$allocator@D@2@@std@@@2@V?$allocator@U?$pair@$$CBV?$basic_string@DU?$char_traits@D@std@@V?$allocator@D@2@@std@@UCMyTimeSpan@@@std@@@2@$0A@@std@@@std@@IBEAAPAU?$_Tree_node@U?$pair@$$CBV?$basic_string@DU?$char_traits@D@std@@V?$allocator@D@2@@std@@UCMyTimeSpan@@@std@@PAX@2@XZ 10047410 f i utilit.obj
 0001:00046460       ?_Root@?$_Tree@V?$_Tmap_traits@HV?$_Tree_const_iterator@V?$_Tree_val@U?$_Tree_simple_types@U?$pair@$$CBV?$basic_string@DU?$char_traits@D@std@@V?$allocator@D@2@@std@@UCMyTimeSpan@@@std@@@std@@@std@@@std@@U?$less@H@2@V?$allocator@U?$pair@$$CBHV?$_Tree_const_iterator@V?$_Tree_val@U?$_Tree_simple_types@U?$pair@$$CBV?$basic_string@DU?$char_traits@D@std@@V?$allocator@D@2@@std@@UCMyTimeSpan@@@std@@@std@@@std@@@std@@@std@@@2@$0A@@std@@@std@@IBEAAPAU?$_Tree_node@U?$pair@$$CBHV?$_Tree_const_iterator@V?$_Tree_val@U?$_Tree_simple_types@U?$pair@$$CBV?$basic_string@DU?$char_traits@D@std@@V?$allocator@D@2@@std@@UCMyTimeSpan@@@std@@@std@@@std@@@std@@@std@@PAX@2@XZ 10047460 f i utilit.obj
 0001:000464b0       ?_Root@?$_Tree@V?$_Tmap_traits@V?$basic_string@DU?$char_traits@D@std@@V?$allocator@D@2@@std@@UCMyTimeSpan@@U?$less@V?$basic_string@DU?$char_traits@D@std@@V?$allocator@D@2@@std@@@2@V?$allocator@U?$pair@$$CBV?$basic_string@DU?$char_traits@D@std@@V?$allocator@D@2@@std@@UCMyTimeSpan@@@std@@@2@$0A@@std@@@std@@IBEAAPAU?$_Tree_node@U?$pair@$$CBV?$basic_string@DU?$char_traits@D@std@@V?$allocator@D@2@@std@@UCMyTimeSpan@@@std@@PAX@2@XZ 100474b0 f i utilit.obj
 0001:00046500       ?_Rrotate@?$_Tree@V?$_Tmap_traits@HV?$_Tree_const_iterator@V?$_Tree_val@U?$_Tree_simple_types@U?$pair@$$CBV?$basic_string@DU?$char_traits@D@std@@V?$allocator@D@2@@std@@UCMyTimeSpan@@@std@@@std@@@std@@@std@@U?$less@H@2@V?$allocator@U?$pair@$$CBHV?$_Tree_const_iterator@V?$_Tree_val@U?$_Tree_simple_types@U?$pair@$$CBV?$basic_string@DU?$char_traits@D@std@@V?$allocator@D@2@@std@@UCMyTimeSpan@@@std@@@std@@@std@@@std@@@std@@@2@$0A@@std@@@std@@IAEXPAU?$_Tree_node@U?$pair@$$CBHV?$_Tree_const_iterator@V?$_Tree_val@U?$_Tree_simple_types@U?$pair@$$CBV?$basic_string@DU?$char_traits@D@std@@V?$allocator@D@2@@std@@UCMyTimeSpan@@@std@@@std@@@std@@@std@@@std@@PAX@2@@Z 10047500 f i utilit.obj
 0001:00046660       ?_Rrotate@?$_Tree@V?$_Tmap_traits@V?$basic_string@DU?$char_traits@D@std@@V?$allocator@D@2@@std@@UCMyTimeSpan@@U?$less@V?$basic_string@DU?$char_traits@D@std@@V?$allocator@D@2@@std@@@2@V?$allocator@U?$pair@$$CBV?$basic_string@DU?$char_traits@D@std@@V?$allocator@D@2@@std@@UCMyTimeSpan@@@std@@@2@$0A@@std@@@std@@IAEXPAU?$_Tree_node@U?$pair@$$CBV?$basic_string@DU?$char_traits@D@std@@V?$allocator@D@2@@std@@UCMyTimeSpan@@@std@@PAX@2@@Z 10047660 f i utilit.obj
 0001:000467c0       ?_Tidy@?$_Tree@V?$_Tmap_traits@HV?$_Tree_const_iterator@V?$_Tree_val@U?$_Tree_simple_types@U?$pair@$$CBV?$basic_string@DU?$char_traits@D@std@@V?$allocator@D@2@@std@@UCMyTimeSpan@@@std@@@std@@@std@@@std@@U?$less@H@2@V?$allocator@U?$pair@$$CBHV?$_Tree_const_iterator@V?$_Tree_val@U?$_Tree_simple_types@U?$pair@$$CBV?$basic_string@DU?$char_traits@D@std@@V?$allocator@D@2@@std@@UCMyTimeSpan@@@std@@@std@@@std@@@std@@@std@@@2@$0A@@std@@@std@@IAEXXZ 100477c0 f i utilit.obj
 0001:00046900       ?_Tidy@?$vector@DV?$allocator@D@std@@@std@@IAEXXZ 10047900 f i utilit.obj
 0001:000469b0       ?_Unused_capacity@?$vector@DV?$allocator@D@std@@@std@@QBEIXZ 100479b0 f i utilit.obj
 0001:000469f0       ?_Unused_capacity@?$vector@VCShortString@@V?$allocator@VCShortString@@@std@@@std@@QBEIXZ 100479f0 f i utilit.obj
 0001:00046a30       ?_Xlen@?$vector@DV?$allocator@D@std@@@std@@IBEXXZ 10047a30 f i utilit.obj
 0001:00046a80       ?_Xlen@?$vector@VCShortString@@V?$allocator@VCShortString@@@std@@@std@@IBEXXZ 10047a80 f i utilit.obj
 0001:00046ad0       ?allocate@?$_Wrap_alloc@V?$allocator@U?$_Tree_node@U?$pair@$$CBHV?$_Tree_const_iterator@V?$_Tree_val@U?$_Tree_simple_types@U?$pair@$$CBV?$basic_string@DU?$char_traits@D@std@@V?$allocator@D@2@@std@@UCMyTimeSpan@@@std@@@std@@@std@@@std@@@std@@PAX@std@@@std@@@std@@QAEPAU?$_Tree_node@U?$pair@$$CBHV?$_Tree_const_iterator@V?$_Tree_val@U?$_Tree_simple_types@U?$pair@$$CBV?$basic_string@DU?$char_traits@D@std@@V?$allocator@D@2@@std@@UCMyTimeSpan@@@std@@@std@@@std@@@std@@@std@@PAX@2@I@Z 10047ad0 f i utilit.obj
 0001:00046b20       ?allocate@?$_Wrap_alloc@V?$allocator@U?$_Tree_node@U?$pair@$$CBV?$basic_string@DU?$char_traits@D@std@@V?$allocator@D@2@@std@@UCMyTimeSpan@@@std@@PAX@std@@@std@@@std@@QAEPAU?$_Tree_node@U?$pair@$$CBV?$basic_string@DU?$char_traits@D@std@@V?$allocator@D@2@@std@@UCMyTimeSpan@@@std@@PAX@2@I@Z 10047b20 f i utilit.obj
 0001:00046b70       ?allocate@?$_Wrap_alloc@V?$allocator@VCShortString@@@std@@@std@@QAEPAVCShortString@@I@Z 10047b70 f i utilit.obj
 0001:00046bc0       ?allocate@?$allocator@U?$_Tree_node@U?$pair@$$CBHV?$_Tree_const_iterator@V?$_Tree_val@U?$_Tree_simple_types@U?$pair@$$CBV?$basic_string@DU?$char_traits@D@std@@V?$allocator@D@2@@std@@UCMyTimeSpan@@@std@@@std@@@std@@@std@@@std@@PAX@std@@@std@@QAEPAU?$_Tree_node@U?$pair@$$CBHV?$_Tree_const_iterator@V?$_Tree_val@U?$_Tree_simple_types@U?$pair@$$CBV?$basic_string@DU?$char_traits@D@std@@V?$allocator@D@2@@std@@UCMyTimeSpan@@@std@@@std@@@std@@@std@@@std@@PAX@2@I@Z 10047bc0 f i utilit.obj
 0001:00046c10       ?allocate@?$allocator@U?$_Tree_node@U?$pair@$$CBV?$basic_string@DU?$char_traits@D@std@@V?$allocator@D@2@@std@@UCMyTimeSpan@@@std@@PAX@std@@@std@@QAEPAU?$_Tree_node@U?$pair@$$CBV?$basic_string@DU?$char_traits@D@std@@V?$allocator@D@2@@std@@UCMyTimeSpan@@@std@@PAX@2@I@Z 10047c10 f i utilit.obj
 0001:00046c60       ?allocate@?$allocator@VCShortString@@@std@@QAEPAVCShortString@@I@Z 10047c60 f i utilit.obj
 0001:00046cb0       ?append@?$basic_string@DU?$char_traits@D@std@@V?$allocator@D@2@@std@@QAEAAV12@ABV12@@Z 10047cb0 f i utilit.obj
 0001:00046d00       ?append@?$basic_string@DU?$char_traits@D@std@@V?$allocator@D@2@@std@@QAEAAV12@ABV12@II@Z 10047d00 f i utilit.obj
 0001:00046de0       ?append@?$basic_string@DU?$char_traits@D@std@@V?$allocator@D@2@@std@@QAEAAV12@ID@Z 10047de0 f i utilit.obj
 0001:00046e80       ?append@?$basic_string@DU?$char_traits@D@std@@V?$allocator@D@2@@std@@QAEAAV12@PBD@Z 10047e80 f i utilit.obj
 0001:00046ef0       ?append@?$basic_string@DU?$char_traits@D@std@@V?$allocator@D@2@@std@@QAEAAV12@PBDI@Z 10047ef0 f i utilit.obj
 0001:00046ff0       ?assign@?$basic_string@DU?$char_traits@D@std@@V?$allocator@D@2@@std@@QAEAAV12@ABV12@@Z 10047ff0 f i utilit.obj
 0001:00047040       ?assign@?$char_traits@D@std@@SAPADPADID@Z 10048040 f i utilit.obj
 0001:00047090       ?begin@?$_Tree@V?$_Tmap_traits@HV?$_Tree_const_iterator@V?$_Tree_val@U?$_Tree_simple_types@U?$pair@$$CBV?$basic_string@DU?$char_traits@D@std@@V?$allocator@D@2@@std@@UCMyTimeSpan@@@std@@@std@@@std@@@std@@U?$less@H@2@V?$allocator@U?$pair@$$CBHV?$_Tree_const_iterator@V?$_Tree_val@U?$_Tree_simple_types@U?$pair@$$CBV?$basic_string@DU?$char_traits@D@std@@V?$allocator@D@2@@std@@UCMyTimeSpan@@@std@@@std@@@std@@@std@@@std@@@2@$0A@@std@@@std@@QAE?AV?$_Tree_iterator@V?$_Tree_val@U?$_Tree_simple_types@U?$pair@$$CBHV?$_Tree_const_iterator@V?$_Tree_val@U?$_Tree_simple_types@U?$pair@$$CBV?$basic_string@DU?$char_traits@D@std@@V?$allocator@D@2@@std@@UCMyTimeSpan@@@std@@@std@@@std@@@std@@@std@@@std@@@std@@@2@XZ 10048090 f i utilit.obj
 0001:000470f0       ?begin@?$_Tree@V?$_Tmap_traits@V?$basic_string@DU?$char_traits@D@std@@V?$allocator@D@2@@std@@UCMyTimeSpan@@U?$less@V?$basic_string@DU?$char_traits@D@std@@V?$allocator@D@2@@std@@@2@V?$allocator@U?$pair@$$CBV?$basic_string@DU?$char_traits@D@std@@V?$allocator@D@2@@std@@UCMyTimeSpan@@@std@@@2@$0A@@std@@@std@@QAE?AV?$_Tree_iterator@V?$_Tree_val@U?$_Tree_simple_types@U?$pair@$$CBV?$basic_string@DU?$char_traits@D@std@@V?$allocator@D@2@@std@@UCMyTimeSpan@@@std@@@std@@@std@@@2@XZ 100480f0 f i utilit.obj
 0001:00047150       ?begin@?$_Tree@V?$_Tmap_traits@V?$basic_string@DU?$char_traits@D@std@@V?$allocator@D@2@@std@@UCMyTimeSpan@@U?$less@V?$basic_string@DU?$char_traits@D@std@@V?$allocator@D@2@@std@@@2@V?$allocator@U?$pair@$$CBV?$basic_string@DU?$char_traits@D@std@@V?$allocator@D@2@@std@@UCMyTimeSpan@@@std@@@2@$0A@@std@@@std@@QBE?AV?$_Tree_const_iterator@V?$_Tree_val@U?$_Tree_simple_types@U?$pair@$$CBV?$basic_string@DU?$char_traits@D@std@@V?$allocator@D@2@@std@@UCMyTimeSpan@@@std@@@std@@@std@@@2@XZ 10048150 f i utilit.obj
 0001:000471b0       ?begin@?$_Tree@V?$_Tset_traits@V?$basic_string@DU?$char_traits@D@std@@V?$allocator@D@2@@std@@U?$less@V?$basic_string@DU?$char_traits@D@std@@V?$allocator@D@2@@std@@@2@V?$allocator@V?$basic_string@DU?$char_traits@D@std@@V?$allocator@D@2@@std@@@2@$0A@@std@@@std@@QBE?AV?$_Tree_const_iterator@V?$_Tree_val@U?$_Tree_simple_types@V?$basic_string@DU?$char_traits@D@std@@V?$allocator@D@2@@std@@@std@@@std@@@2@XZ 100481b0 f i utilit.obj
 0001:00047210       ?begin@?$basic_string@DU?$char_traits@D@std@@V?$allocator@D@2@@std@@QAE?AV?$_String_iterator@V?$_String_val@U?$_Simple_types@D@std@@@std@@@2@XZ 10048210 f i utilit.obj
 0001:00047270       ?begin@?$vector@DV?$allocator@D@std@@@std@@QAE?AV?$_Vector_iterator@V?$_Vector_val@U?$_Simple_types@D@std@@@std@@@2@XZ 10048270 f i utilit.obj
 0001:000472c0       ?begin@?$vector@V?$basic_string@DU?$char_traits@D@std@@V?$allocator@D@2@@std@@V?$allocator@V?$basic_string@DU?$char_traits@D@std@@V?$allocator@D@2@@std@@@2@@std@@QBE?AV?$_Vector_const_iterator@V?$_Vector_val@U?$_Simple_types@V?$basic_string@DU?$char_traits@D@std@@V?$allocator@D@2@@std@@@std@@@std@@@2@XZ 100482c0 f i utilit.obj
 0001:00047310       ?capacity@?$vector@DV?$allocator@D@std@@@std@@QBEIXZ 10048310 f i utilit.obj
 0001:00047350       ?capacity@?$vector@VCShortString@@V?$allocator@VCShortString@@@std@@@std@@QBEIXZ 10048350 f i utilit.obj
 0001:00047390       ?clear@?$_Tree@V?$_Tmap_traits@HV?$_Tree_const_iterator@V?$_Tree_val@U?$_Tree_simple_types@U?$pair@$$CBV?$basic_string@DU?$char_traits@D@std@@V?$allocator@D@2@@std@@UCMyTimeSpan@@@std@@@std@@@std@@@std@@U?$less@H@2@V?$allocator@U?$pair@$$CBHV?$_Tree_const_iterator@V?$_Tree_val@U?$_Tree_simple_types@U?$pair@$$CBV?$basic_string@DU?$char_traits@D@std@@V?$allocator@D@2@@std@@UCMyTimeSpan@@@std@@@std@@@std@@@std@@@std@@@2@$0A@@std@@@std@@QAEXXZ 10048390 f i utilit.obj
 0001:00047430       ?clear@?$_Tree@V?$_Tmap_traits@V?$basic_string@DU?$char_traits@D@std@@V?$allocator@D@2@@std@@UCMyTimeSpan@@U?$less@V?$basic_string@DU?$char_traits@D@std@@V?$allocator@D@2@@std@@@2@V?$allocator@U?$pair@$$CBV?$basic_string@DU?$char_traits@D@std@@V?$allocator@D@2@@std@@UCMyTimeSpan@@@std@@@2@$0A@@std@@@std@@QAEXXZ 10048430 f i utilit.obj
 0001:000474d0       ?clear@?$vector@DV?$allocator@D@std@@@std@@QAEXXZ 100484d0 f i utilit.obj
 0001:00047540       ?clear@?$vector@VCShortString@@V?$allocator@VCShortString@@@std@@@std@@QAEXXZ 10048540 f i utilit.obj
 0001:000475b0       ?compare@?$basic_string@DU?$char_traits@D@std@@V?$allocator@D@2@@std@@QBEHABV12@@Z 100485b0 f i utilit.obj
 0001:00047610       ?compare@?$basic_string@DU?$char_traits@D@std@@V?$allocator@D@2@@std@@QBEHIIPBDI@Z 10048610 f i utilit.obj
 0001:00047740       ?compare@?$basic_string@DU?$char_traits@D@std@@V?$allocator@D@2@@std@@QBEHPBD@Z 10048740 f i utilit.obj
 0001:000477c0       ?compare@?$char_traits@D@std@@SAHPBD0I@Z 100487c0 f i utilit.obj
 0001:00047830       ?construct@?$allocator@D@std@@QAEXPADABD@Z 10048830 f i utilit.obj
 0001:000478b0       ?construct@?$allocator@VCShortString@@@std@@QAEXPAVCShortString@@ABV3@@Z 100488b0 f i utilit.obj
 0001:00047970       ?count@StringTokenizer@@QBEHXZ 10048970 f   utilit.obj
 0001:000479a0       ?deallocate@?$_Wrap_alloc@V?$allocator@U?$_Tree_node@U?$pair@$$CBHV?$_Tree_const_iterator@V?$_Tree_val@U?$_Tree_simple_types@U?$pair@$$CBV?$basic_string@DU?$char_traits@D@std@@V?$allocator@D@2@@std@@UCMyTimeSpan@@@std@@@std@@@std@@@std@@@std@@PAX@std@@@std@@@std@@QAEXPAU?$_Tree_node@U?$pair@$$CBHV?$_Tree_const_iterator@V?$_Tree_val@U?$_Tree_simple_types@U?$pair@$$CBV?$basic_string@DU?$char_traits@D@std@@V?$allocator@D@2@@std@@UCMyTimeSpan@@@std@@@std@@@std@@@std@@@std@@PAX@2@I@Z 100489a0 f i utilit.obj
 0001:000479f0       ?deallocate@?$_Wrap_alloc@V?$allocator@U?$_Tree_node@U?$pair@$$CBV?$basic_string@DU?$char_traits@D@std@@V?$allocator@D@2@@std@@UCMyTimeSpan@@@std@@PAX@std@@@std@@@std@@QAEXPAU?$_Tree_node@U?$pair@$$CBV?$basic_string@DU?$char_traits@D@std@@V?$allocator@D@2@@std@@UCMyTimeSpan@@@std@@PAX@2@I@Z 100489f0 f i utilit.obj
 0001:00047a40       ?deallocate@?$_Wrap_alloc@V?$allocator@VCShortString@@@std@@@std@@QAEXPAVCShortString@@I@Z 10048a40 f i utilit.obj
 0001:00047a90       ?deallocate@?$allocator@U?$_Tree_node@U?$pair@$$CBHV?$_Tree_const_iterator@V?$_Tree_val@U?$_Tree_simple_types@U?$pair@$$CBV?$basic_string@DU?$char_traits@D@std@@V?$allocator@D@2@@std@@UCMyTimeSpan@@@std@@@std@@@std@@@std@@@std@@PAX@std@@@std@@QAEXPAU?$_Tree_node@U?$pair@$$CBHV?$_Tree_const_iterator@V?$_Tree_val@U?$_Tree_simple_types@U?$pair@$$CBV?$basic_string@DU?$char_traits@D@std@@V?$allocator@D@2@@std@@UCMyTimeSpan@@@std@@@std@@@std@@@std@@@std@@PAX@2@I@Z 10048a90 f i utilit.obj
 0001:00047ae0       ?deallocate@?$allocator@U?$_Tree_node@U?$pair@$$CBV?$basic_string@DU?$char_traits@D@std@@V?$allocator@D@2@@std@@UCMyTimeSpan@@@std@@PAX@std@@@std@@QAEXPAU?$_Tree_node@U?$pair@$$CBV?$basic_string@DU?$char_traits@D@std@@V?$allocator@D@2@@std@@UCMyTimeSpan@@@std@@PAX@2@I@Z 10048ae0 f i utilit.obj
 0001:00047b30       ?deallocate@?$allocator@VCShortString@@@std@@QAEXPAVCShortString@@I@Z 10048b30 f i utilit.obj
 0001:00047b80       ?dual_bracket@@YAIE@Z      10048b80 f   utilit.obj
 0001:00047c20       ?empty@?$basic_string@DU?$char_traits@D@std@@V?$allocator@D@2@@std@@QBE_NXZ 10048c20 f i utilit.obj
 0001:00047c70       ?end@?$_Tree@V?$_Tmap_traits@HV?$_Tree_const_iterator@V?$_Tree_val@U?$_Tree_simple_types@U?$pair@$$CBV?$basic_string@DU?$char_traits@D@std@@V?$allocator@D@2@@std@@UCMyTimeSpan@@@std@@@std@@@std@@@std@@U?$less@H@2@V?$allocator@U?$pair@$$CBHV?$_Tree_const_iterator@V?$_Tree_val@U?$_Tree_simple_types@U?$pair@$$CBV?$basic_string@DU?$char_traits@D@std@@V?$allocator@D@2@@std@@UCMyTimeSpan@@@std@@@std@@@std@@@std@@@std@@@2@$0A@@std@@@std@@QAE?AV?$_Tree_iterator@V?$_Tree_val@U?$_Tree_simple_types@U?$pair@$$CBHV?$_Tree_const_iterator@V?$_Tree_val@U?$_Tree_simple_types@U?$pair@$$CBV?$basic_string@DU?$char_traits@D@std@@V?$allocator@D@2@@std@@UCMyTimeSpan@@@std@@@std@@@std@@@std@@@std@@@std@@@std@@@2@XZ 10048c70 f i utilit.obj
 0001:00047cc0       ?end@?$_Tree@V?$_Tmap_traits@V?$basic_string@DU?$char_traits@D@std@@V?$allocator@D@2@@std@@UCMyTimeSpan@@U?$less@V?$basic_string@DU?$char_traits@D@std@@V?$allocator@D@2@@std@@@2@V?$allocator@U?$pair@$$CBV?$basic_string@DU?$char_traits@D@std@@V?$allocator@D@2@@std@@UCMyTimeSpan@@@std@@@2@$0A@@std@@@std@@QAE?AV?$_Tree_iterator@V?$_Tree_val@U?$_Tree_simple_types@U?$pair@$$CBV?$basic_string@DU?$char_traits@D@std@@V?$allocator@D@2@@std@@UCMyTimeSpan@@@std@@@std@@@std@@@2@XZ 10048cc0 f i utilit.obj
 0001:00047d10       ?end@?$_Tree@V?$_Tmap_traits@V?$basic_string@DU?$char_traits@D@std@@V?$allocator@D@2@@std@@UCMyTimeSpan@@U?$less@V?$basic_string@DU?$char_traits@D@std@@V?$allocator@D@2@@std@@@2@V?$allocator@U?$pair@$$CBV?$basic_string@DU?$char_traits@D@std@@V?$allocator@D@2@@std@@UCMyTimeSpan@@@std@@@2@$0A@@std@@@std@@QBE?AV?$_Tree_const_iterator@V?$_Tree_val@U?$_Tree_simple_types@U?$pair@$$CBV?$basic_string@DU?$char_traits@D@std@@V?$allocator@D@2@@std@@UCMyTimeSpan@@@std@@@std@@@std@@@2@XZ 10048d10 f i utilit.obj
 0001:00047d60       ?end@?$_Tree@V?$_Tset_traits@V?$basic_string@DU?$char_traits@D@std@@V?$allocator@D@2@@std@@U?$less@V?$basic_string@DU?$char_traits@D@std@@V?$allocator@D@2@@std@@@2@V?$allocator@V?$basic_string@DU?$char_traits@D@std@@V?$allocator@D@2@@std@@@2@$0A@@std@@@std@@QBE?AV?$_Tree_const_iterator@V?$_Tree_val@U?$_Tree_simple_types@V?$basic_string@DU?$char_traits@D@std@@V?$allocator@D@2@@std@@@std@@@std@@@2@XZ 10048d60 f i utilit.obj
 0001:00047db0       ?end@?$basic_string@DU?$char_traits@D@std@@V?$allocator@D@2@@std@@QAE?AV?$_String_iterator@V?$_String_val@U?$_Simple_types@D@std@@@std@@@2@XZ 10048db0 f i utilit.obj
 0001:00047e10       ?end@?$vector@DV?$allocator@D@std@@@std@@QAE?AV?$_Vector_iterator@V?$_Vector_val@U?$_Simple_types@D@std@@@std@@@2@XZ 10048e10 f i utilit.obj
 0001:00047e60       ?end@?$vector@V?$basic_string@DU?$char_traits@D@std@@V?$allocator@D@2@@std@@V?$allocator@V?$basic_string@DU?$char_traits@D@std@@V?$allocator@D@2@@std@@@2@@std@@QBE?AV?$_Vector_const_iterator@V?$_Vector_val@U?$_Simple_types@V?$basic_string@DU?$char_traits@D@std@@V?$allocator@D@2@@std@@@std@@@std@@@2@XZ 10048e60 f i utilit.obj
 0001:00047eb0       ?eq@?$char_traits@D@std@@SA_NABD0@Z 10048eb0 f i utilit.obj
 0001:00047f10       ?erase@?$_Tree@V?$_Tmap_traits@HV?$_Tree_const_iterator@V?$_Tree_val@U?$_Tree_simple_types@U?$pair@$$CBV?$basic_string@DU?$char_traits@D@std@@V?$allocator@D@2@@std@@UCMyTimeSpan@@@std@@@std@@@std@@@std@@U?$less@H@2@V?$allocator@U?$pair@$$CBHV?$_Tree_const_iterator@V?$_Tree_val@U?$_Tree_simple_types@U?$pair@$$CBV?$basic_string@DU?$char_traits@D@std@@V?$allocator@D@2@@std@@UCMyTimeSpan@@@std@@@std@@@std@@@std@@@std@@@2@$0A@@std@@@std@@QAE?AV?$_Tree_iterator@V?$_Tree_val@U?$_Tree_simple_types@U?$pair@$$CBHV?$_Tree_const_iterator@V?$_Tree_val@U?$_Tree_simple_types@U?$pair@$$CBV?$basic_string@DU?$char_traits@D@std@@V?$allocator@D@2@@std@@UCMyTimeSpan@@@std@@@std@@@std@@@std@@@std@@@std@@@std@@@2@V?$_Tree_const_iterator@V?$_Tree_val@U?$_Tree_simple_types@U?$pair@$$CBHV?$_Tree_const_iterator@V?$_Tree_val@U?$_Tree_simple_types@U?$pair@$$CBV?$basic_string@DU?$char_traits@D@std@@V?$allocator@D@2@@std@@UCMyTimeSpan@@@std@@@std@@@std@@@std@@@std@@@std@@@std@@@2@0@Z 10048f10 f i utilit.obj
 0001:00048190       ?erase@?$_Tree@V?$_Tmap_traits@HV?$_Tree_const_iterator@V?$_Tree_val@U?$_Tree_simple_types@U?$pair@$$CBV?$basic_string@DU?$char_traits@D@std@@V?$allocator@D@2@@std@@UCMyTimeSpan@@@std@@@std@@@std@@@std@@U?$less@H@2@V?$allocator@U?$pair@$$CBHV?$_Tree_const_iterator@V?$_Tree_val@U?$_Tree_simple_types@U?$pair@$$CBV?$basic_string@DU?$char_traits@D@std@@V?$allocator@D@2@@std@@UCMyTimeSpan@@@std@@@std@@@std@@@std@@@std@@@2@$0A@@std@@@std@@QAE?AV?$_Tree_iterator@V?$_Tree_val@U?$_Tree_simple_types@U?$pair@$$CBHV?$_Tree_const_iterator@V?$_Tree_val@U?$_Tree_simple_types@U?$pair@$$CBV?$basic_string@DU?$char_traits@D@std@@V?$allocator@D@2@@std@@UCMyTimeSpan@@@std@@@std@@@std@@@std@@@std@@@std@@@std@@@2@V?$_Tree_const_iterator@V?$_Tree_val@U?$_Tree_simple_types@U?$pair@$$CBHV?$_Tree_const_iterator@V?$_Tree_val@U?$_Tree_simple_types@U?$pair@$$CBV?$basic_string@DU?$char_traits@D@std@@V?$allocator@D@2@@std@@UCMyTimeSpan@@@std@@@std@@@std@@@std@@@std@@@std@@@std@@@2@@Z 10049190 f i utilit.obj
 0001:000489f0       ?etolower@@YAEE@Z          100499f0 f   utilit.obj
 0001:00048ae0       ?etoupper@@YAEE@Z          10049ae0 f   utilit.obj
 0001:00048bd0       ?find@?$_Tree@V?$_Tmap_traits@V?$basic_string@DU?$char_traits@D@std@@V?$allocator@D@2@@std@@UCMyTimeSpan@@U?$less@V?$basic_string@DU?$char_traits@D@std@@V?$allocator@D@2@@std@@@2@V?$allocator@U?$pair@$$CBV?$basic_string@DU?$char_traits@D@std@@V?$allocator@D@2@@std@@UCMyTimeSpan@@@std@@@2@$0A@@std@@@std@@QAE?AV?$_Tree_iterator@V?$_Tree_val@U?$_Tree_simple_types@U?$pair@$$CBV?$basic_string@DU?$char_traits@D@std@@V?$allocator@D@2@@std@@UCMyTimeSpan@@@std@@@std@@@std@@@2@ABV?$basic_string@DU?$char_traits@D@std@@V?$allocator@D@2@@2@@Z 10049bd0 f i utilit.obj
 0001:00048e50       ?find@?$basic_string@DU?$char_traits@D@std@@V?$allocator@D@2@@std@@QBEIDI@Z 10049e50 f i utilit.obj
 0001:00048ea0       ?find@?$basic_string@DU?$char_traits@D@std@@V?$allocator@D@2@@std@@QBEIPBDI@Z 10049ea0 f i utilit.obj
 0001:00048f10       ?find@?$basic_string@DU?$char_traits@D@std@@V?$allocator@D@2@@std@@QBEIPBDII@Z 10049f10 f i utilit.obj
 0001:00049030       ?find@?$char_traits@D@std@@SAPBDPBDIABD@Z 1004a030 f i utilit.obj
 0001:000490b0       ?find_first_not_of@?$basic_string@DU?$char_traits@D@std@@V?$allocator@D@2@@std@@QBEIPBDI@Z 1004a0b0 f i utilit.obj
 0001:00049120       ?find_first_not_of@?$basic_string@DU?$char_traits@D@std@@V?$allocator@D@2@@std@@QBEIPBDII@Z 1004a120 f i utilit.obj
 0001:000491f0       ?find_first_of@?$basic_string@DU?$char_traits@D@std@@V?$allocator@D@2@@std@@QBEIDI@Z 1004a1f0 f i utilit.obj
 0001:00049240       ?find_last_not_of@?$basic_string@DU?$char_traits@D@std@@V?$allocator@D@2@@std@@QBEIPBDI@Z 1004a240 f i utilit.obj
 0001:000492b0       ?find_last_not_of@?$basic_string@DU?$char_traits@D@std@@V?$allocator@D@2@@std@@QBEIPBDII@Z 1004a2b0 f i utilit.obj
 0001:00049390       ?find_last_of@?$basic_string@DU?$char_traits@D@std@@V?$allocator@D@2@@std@@QBEIDI@Z 1004a390 f i utilit.obj
 0001:000493e0       ?force_rus_char@@YAEE@Z    1004a3e0 f   utilit.obj
 0001:00049500       ?force_to_rus@@YA_NPADPBDI@Z 1004a500 f   utilit.obj
 0001:000495c0       ?get_allocator@?$basic_string@DU?$char_traits@D@std@@V?$allocator@D@2@@std@@QBE?AV?$allocator@D@2@XZ 1004a5c0 f i utilit.obj
 0001:00049620       ?get_rest@StringTokenizer@@QBEPBDXZ 1004a620 f   utilit.obj
 0001:00049650       ?get_size_in_bytes@@YAIABD@Z 1004a650 f i utilit.obj
 0001:00049680       ?gtolower@@YAEE@Z          1004a680 f   utilit.obj
 0001:00049710       ?gtoupper@@YAEE@Z          1004a710 f   utilit.obj
 0001:000497a0       ?has_next@StringTokenizer@@QBE_NXZ 1004a7a0 f   utilit.obj
 0001:00049800       ?initialize@StringTokenizer@@AAEXPBD0@Z 1004a800 f   utilit.obj
 0001:000498b0       ?is_URL_alpha@@YA_NE@Z     1004a8b0 f   utilit.obj
 0001:00049910       ?is_alpha@@YA_NE@Z         1004a910 f   utilit.obj
 0001:00049990       ?is_alpha@@YA_NEW4MorphLanguageEnum@@@Z 1004a990 f   utilit.obj
 0001:00049a80       ?is_arab_digit@@YA_NE@Z    1004aa80 f   utilit.obj
 0001:00049af0       ?is_delim@StringTokenizer@@ABE_ND@Z 1004aaf0 f   utilit.obj
 0001:00049b60       ?is_english_alpha@@YA_NE@Z 1004ab60 f   utilit.obj
 0001:00049be0       ?is_english_lower@@YA_NE@Z 1004abe0 f   utilit.obj
 0001:00049c40       ?is_english_lower_vowel@@YA_NE@Z 1004ac40 f   utilit.obj
 0001:00049cb0       ?is_english_upper@@YA_NE@Z 1004acb0 f   utilit.obj
 0001:00049d10       ?is_english_upper_vowel@@YA_NE@Z 1004ad10 f   utilit.obj
 0001:00049d80       ?is_generic_alpha@@YA_NE@Z 1004ad80 f   utilit.obj
 0001:00049df0       ?is_generic_lower@@YA_NE@Z 1004adf0 f   utilit.obj
 0001:00049e50       ?is_generic_upper@@YA_NE@Z 1004ae50 f   utilit.obj
 0001:00049eb0       ?is_german_alpha@@YA_NE@Z  1004aeb0 f   utilit.obj
 0001:00049f30       ?is_german_lower@@YA_NE@Z  1004af30 f   utilit.obj
 0001:00049f90       ?is_german_lower_vowel@@YA_NE@Z 1004af90 f   utilit.obj
 0001:0004a000       ?is_german_upper@@YA_NE@Z  1004b000 f   utilit.obj
 0001:0004a060       ?is_german_upper_vowel@@YA_NE@Z 1004b060 f   utilit.obj
 0001:0004a0d0       ?is_lower_alpha@@YA_NEW4MorphLanguageEnum@@@Z 1004b0d0 f   utilit.obj
 0001:0004a1b0       ?is_lower_consonant@@YA_NEW4MorphLanguageEnum@@@Z 1004b1b0 f   utilit.obj
 0001:0004a240       ?is_lower_roman_digit@@YA_NE@Z 1004b240 f   utilit.obj
 0001:0004a2a0       ?is_lower_vowel@@YA_NEW4MorphLanguageEnum@@@Z 1004b2a0 f   utilit.obj
 0001:0004a360       ?is_pseudo_graph@@YA_NE@Z  1004b360 f   utilit.obj
 0001:0004a440       ?is_roman_number@@YA_NPBDI@Z 1004b440 f   utilit.obj
 0001:0004a5b0       ?is_russian_alpha@@YA_NE@Z 1004b5b0 f   utilit.obj
 0001:0004a630       ?is_russian_consonant@@YA_NE@Z 1004b630 f   utilit.obj
 0001:0004a6b0       ?is_russian_lower@@YA_NE@Z 1004b6b0 f   utilit.obj
 0001:0004a710       ?is_russian_lower_consonant@@YA_NE@Z 1004b710 f   utilit.obj
 0001:0004a790       ?is_russian_lower_vowel@@YA_NE@Z 1004b790 f   utilit.obj
 0001:0004a800       ?is_russian_upper@@YA_NE@Z 1004b800 f   utilit.obj
 0001:0004a860       ?is_russian_upper_consonant@@YA_NE@Z 1004b860 f   utilit.obj
 0001:0004a8e0       ?is_russian_upper_vowel@@YA_NE@Z 1004b8e0 f   utilit.obj
 0001:0004a950       ?is_spc_fill@@YA_NE@Z      1004b950 f   utilit.obj
 0001:0004a9b0       ?is_upper_alpha@@YA_NEW4MorphLanguageEnum@@@Z 1004b9b0 f   utilit.obj
 0001:0004aa90       ?is_upper_consonant@@YA_NEW4MorphLanguageEnum@@@Z 1004ba90 f   utilit.obj
 0001:0004ab20       ?is_upper_roman_digit@@YA_NE@Z 1004bb20 f   utilit.obj
 0001:0004ab80       ?is_upper_vowel@@YA_NEW4MorphLanguageEnum@@@Z 1004bb80 f   utilit.obj
 0001:0004ac40       ?is_word_delim@@YA_NE@Z    1004bc40 f   utilit.obj
 0001:0004ad20       ?isbracket@@YAHE@Z         1004bd20 f   utilit.obj
 0001:0004ada0       ?isnspace@@YA_NE@Z         1004bda0 f   utilit.obj
 0001:0004ae00       ?ktw@@YADD@Z               1004be00 f   utilit.obj
 0001:0004ae50       ?length@?$basic_string@DU?$char_traits@D@std@@V?$allocator@D@2@@std@@QBEIXZ 1004be50 f i utilit.obj
 0001:0004ae80       ?lower_bound@?$_Tree@V?$_Tmap_traits@HV?$_Tree_const_iterator@V?$_Tree_val@U?$_Tree_simple_types@U?$pair@$$CBV?$basic_string@DU?$char_traits@D@std@@V?$allocator@D@2@@std@@UCMyTimeSpan@@@std@@@std@@@std@@@std@@U?$less@H@2@V?$allocator@U?$pair@$$CBHV?$_Tree_const_iterator@V?$_Tree_val@U?$_Tree_simple_types@U?$pair@$$CBV?$basic_string@DU?$char_traits@D@std@@V?$allocator@D@2@@std@@UCMyTimeSpan@@@std@@@std@@@std@@@std@@@std@@@2@$0A@@std@@@std@@QAE?AV?$_Tree_iterator@V?$_Tree_val@U?$_Tree_simple_types@U?$pair@$$CBHV?$_Tree_const_iterator@V?$_Tree_val@U?$_Tree_simple_types@U?$pair@$$CBV?$basic_string@DU?$char_traits@D@std@@V?$allocator@D@2@@std@@UCMyTimeSpan@@@std@@@std@@@std@@@std@@@std@@@std@@@std@@@2@ABH@Z 1004be80 f i utilit.obj
 0001:0004aef0       ?lower_bound@?$_Tree@V?$_Tmap_traits@V?$basic_string@DU?$char_traits@D@std@@V?$allocator@D@2@@std@@UCMyTimeSpan@@U?$less@V?$basic_string@DU?$char_traits@D@std@@V?$allocator@D@2@@std@@@2@V?$allocator@U?$pair@$$CBV?$basic_string@DU?$char_traits@D@std@@V?$allocator@D@2@@std@@UCMyTimeSpan@@@std@@@2@$0A@@std@@@std@@QAE?AV?$_Tree_iterator@V?$_Tree_val@U?$_Tree_simple_types@U?$pair@$$CBV?$basic_string@DU?$char_traits@D@std@@V?$allocator@D@2@@std@@UCMyTimeSpan@@@std@@@std@@@std@@@2@ABV?$basic_string@DU?$char_traits@D@std@@V?$allocator@D@2@@2@@Z 1004bef0 f i utilit.obj
 0001:0004af60       ?max_size@?$_Tree@V?$_Tmap_traits@HV?$_Tree_const_iterator@V?$_Tree_val@U?$_Tree_simple_types@U?$pair@$$CBV?$basic_string@DU?$char_traits@D@std@@V?$allocator@D@2@@std@@UCMyTimeSpan@@@std@@@std@@@std@@@std@@U?$less@H@2@V?$allocator@U?$pair@$$CBHV?$_Tree_const_iterator@V?$_Tree_val@U?$_Tree_simple_types@U?$pair@$$CBV?$basic_string@DU?$char_traits@D@std@@V?$allocator@D@2@@std@@UCMyTimeSpan@@@std@@@std@@@std@@@std@@@std@@@2@$0A@@std@@@std@@QBEIXZ 1004bf60 f i utilit.obj
 0001:0004afb0       ?max_size@?$_Tree@V?$_Tmap_traits@V?$basic_string@DU?$char_traits@D@std@@V?$allocator@D@2@@std@@UCMyTimeSpan@@U?$less@V?$basic_string@DU?$char_traits@D@std@@V?$allocator@D@2@@std@@@2@V?$allocator@U?$pair@$$CBV?$basic_string@DU?$char_traits@D@std@@V?$allocator@D@2@@std@@UCMyTimeSpan@@@std@@@2@$0A@@std@@@std@@QBEIXZ 1004bfb0 f i utilit.obj
 0001:0004b000       ?max_size@?$_Wrap_alloc@V?$allocator@U?$_Tree_node@U?$pair@$$CBHV?$_Tree_const_iterator@V?$_Tree_val@U?$_Tree_simple_types@U?$pair@$$CBV?$basic_string@DU?$char_traits@D@std@@V?$allocator@D@2@@std@@UCMyTimeSpan@@@std@@@std@@@std@@@std@@@std@@PAX@std@@@std@@@std@@QBEIXZ 1004c000 f i utilit.obj
 0001:0004b050       ?max_size@?$_Wrap_alloc@V?$allocator@U?$_Tree_node@U?$pair@$$CBV?$basic_string@DU?$char_traits@D@std@@V?$allocator@D@2@@std@@UCMyTimeSpan@@@std@@PAX@std@@@std@@@std@@QBEIXZ 1004c050 f i utilit.obj
 0001:0004b0a0       ?max_size@?$_Wrap_alloc@V?$allocator@VCShortString@@@std@@@std@@QBEIXZ 1004c0a0 f i utilit.obj
 0001:0004b0f0       ?max_size@?$allocator@U?$_Tree_node@U?$pair@$$CBHV?$_Tree_const_iterator@V?$_Tree_val@U?$_Tree_simple_types@U?$pair@$$CBV?$basic_string@DU?$char_traits@D@std@@V?$allocator@D@2@@std@@UCMyTimeSpan@@@std@@@std@@@std@@@std@@@std@@PAX@std@@@std@@QBEIXZ 1004c0f0 f i utilit.obj
 0001:0004b120       ?max_size@?$allocator@U?$_Tree_node@U?$pair@$$CBV?$basic_string@DU?$char_traits@D@std@@V?$allocator@D@2@@std@@UCMyTimeSpan@@@std@@PAX@std@@@std@@QBEIXZ 1004c120 f i utilit.obj
 0001:0004b150       ?max_size@?$allocator@VCShortString@@@std@@QBEIXZ 1004c150 f i utilit.obj
 0001:0004b180       ?max_size@?$allocator_traits@V?$allocator@U?$_Tree_node@U?$pair@$$CBHV?$_Tree_const_iterator@V?$_Tree_val@U?$_Tree_simple_types@U?$pair@$$CBV?$basic_string@DU?$char_traits@D@std@@V?$allocator@D@2@@std@@UCMyTimeSpan@@@std@@@std@@@std@@@std@@@std@@PAX@std@@@std@@@std@@SAIABV?$allocator@U?$_Tree_node@U?$pair@$$CBHV?$_Tree_const_iterator@V?$_Tree_val@U?$_Tree_simple_types@U?$pair@$$CBV?$basic_string@DU?$char_traits@D@std@@V?$allocator@D@2@@std@@UCMyTimeSpan@@@std@@@std@@@std@@@std@@@std@@PAX@std@@@2@@Z 1004c180 f i utilit.obj
 0001:0004b1c0       ?max_size@?$allocator_traits@V?$allocator@U?$_Tree_node@U?$pair@$$CBV?$basic_string@DU?$char_traits@D@std@@V?$allocator@D@2@@std@@UCMyTimeSpan@@@std@@PAX@std@@@std@@@std@@SAIABV?$allocator@U?$_Tree_node@U?$pair@$$CBV?$basic_string@DU?$char_traits@D@std@@V?$allocator@D@2@@std@@UCMyTimeSpan@@@std@@PAX@std@@@2@@Z 1004c1c0 f i utilit.obj
 0001:0004b200       ?max_size@?$allocator_traits@V?$allocator@VCShortString@@@std@@@std@@SAIABV?$allocator@VCShortString@@@2@@Z 1004c200 f i utilit.obj
 0001:0004b240       ?max_size@?$vector@DV?$allocator@D@std@@@std@@QBEIXZ 1004c240 f i utilit.obj
 0001:0004b290       ?max_size@?$vector@VCShortString@@V?$allocator@VCShortString@@@std@@@std@@QBEIXZ 1004c290 f i utilit.obj
 0001:0004b2e0       ?next_token@StringTokenizer@@QAE?AV?$basic_string@DU?$char_traits@D@std@@V?$allocator@D@2@@std@@XZ 1004c2e0 f   utilit.obj
 0001:0004b370       ?pointer_to@?$pointer_traits@PAU?$pair@$$CBHV?$_Tree_const_iterator@V?$_Tree_val@U?$_Tree_simple_types@U?$pair@$$CBV?$basic_string@DU?$char_traits@D@std@@V?$allocator@D@2@@std@@UCMyTimeSpan@@@std@@@std@@@std@@@std@@@std@@@std@@SAPAU?$pair@$$CBHV?$_Tree_const_iterator@V?$_Tree_val@U?$_Tree_simple_types@U?$pair@$$CBV?$basic_string@DU?$char_traits@D@std@@V?$allocator@D@2@@std@@UCMyTimeSpan@@@std@@@std@@@std@@@std@@@2@AAU32@@Z 1004c370 f i utilit.obj
 0001:0004b3b0       ?pointer_to@?$pointer_traits@PAU?$pair@$$CBV?$basic_string@DU?$char_traits@D@std@@V?$allocator@D@2@@std@@UCMyTimeSpan@@@std@@@std@@SAPAU?$pair@$$CBV?$basic_string@DU?$char_traits@D@std@@V?$allocator@D@2@@std@@UCMyTimeSpan@@@2@AAU32@@Z 1004c3b0 f i utilit.obj
 0001:0004b3f0       ?pointer_to@?$pointer_traits@PBU?$pair@$$CBHV?$_Tree_const_iterator@V?$_Tree_val@U?$_Tree_simple_types@U?$pair@$$CBV?$basic_string@DU?$char_traits@D@std@@V?$allocator@D@2@@std@@UCMyTimeSpan@@@std@@@std@@@std@@@std@@@std@@@std@@SAPBU?$pair@$$CBHV?$_Tree_const_iterator@V?$_Tree_val@U?$_Tree_simple_types@U?$pair@$$CBV?$basic_string@DU?$char_traits@D@std@@V?$allocator@D@2@@std@@UCMyTimeSpan@@@std@@@std@@@std@@@std@@@2@ABU32@@Z 1004c3f0 f i utilit.obj
 0001:0004b430       ?pointer_to@?$pointer_traits@PBU?$pair@$$CBV?$basic_string@DU?$char_traits@D@std@@V?$allocator@D@2@@std@@UCMyTimeSpan@@@std@@@std@@SAPBU?$pair@$$CBV?$basic_string@DU?$char_traits@D@std@@V?$allocator@D@2@@std@@UCMyTimeSpan@@@2@ABU32@@Z 1004c430 f i utilit.obj
 0001:0004b470       ?pointer_to@?$pointer_traits@PBV?$basic_string@DU?$char_traits@D@std@@V?$allocator@D@2@@std@@@std@@SAPBV?$basic_string@DU?$char_traits@D@std@@V?$allocator@D@2@@2@ABV32@@Z 1004c470 f i utilit.obj
 0001:0004b4b0       ?push_back@?$vector@DV?$allocator@D@std@@@std@@QAEX$$QAD@Z 1004c4b0 f i utilit.obj
 0001:0004b600       ?push_back@?$vector@DV?$allocator@D@std@@@std@@QAEXABD@Z 1004c600 f i utilit.obj
 0001:0004b730       ?push_back@?$vector@VCShortString@@V?$allocator@VCShortString@@@std@@@std@@QAEXABVCShortString@@@Z 1004c730 f i utilit.obj
 0001:0004b870       ?reinitialize@StringTokenizer@@QAEXPBD0@Z 1004c870 f   utilit.obj
 0001:0004b910       ?replace@?$basic_string@DU?$char_traits@D@std@@V?$allocator@D@2@@std@@QAEAAV12@IIABV12@@Z 1004c910 f i utilit.obj
 0001:0004b970       ?replace@?$basic_string@DU?$char_traits@D@std@@V?$allocator@D@2@@std@@QAEAAV12@IIABV12@II@Z 1004c970 f i utilit.obj
 0001:0004bc60       ?replace@?$basic_string@DU?$char_traits@D@std@@V?$allocator@D@2@@std@@QAEAAV12@IIPBDI@Z 1004cc60 f i utilit.obj
 0001:0004be10       ?replace@?$basic_string@DU?$char_traits@D@std@@V?$allocator@D@2@@std@@QAEAAV12@V?$_String_const_iterator@V?$_String_val@U?$_Simple_types@D@std@@@std@@@2@0V?$_String_iterator@V?$_String_val@U?$_Simple_types@D@std@@@std@@@2@1@Z 1004ce10 f i utilit.obj
 0001:0004c0e0       ?reserve@?$basic_string@DU?$char_traits@D@std@@V?$allocator@D@2@@std@@QAEXI@Z 1004d0e0 f i utilit.obj
 0001:0004c160       ?reserve@?$vector@DV?$allocator@D@std@@@std@@QAEXI@Z 1004d160 f i utilit.obj
 0001:0004c1d0       ?reserve@?$vector@VCShortString@@V?$allocator@VCShortString@@@std@@@std@@QAEXI@Z 1004d1d0 f i utilit.obj
 0001:0004c240       ?restore_from_bytes@@YAIAADPBE@Z 1004d240 f i utilit.obj
 0001:0004c290       ?rfind@?$basic_string@DU?$char_traits@D@std@@V?$allocator@D@2@@std@@QBEIPBDI@Z 1004d290 f i utilit.obj
 0001:0004c300       ?rfind@?$basic_string@DU?$char_traits@D@std@@V?$allocator@D@2@@std@@QBEIPBDII@Z 1004d300 f i utilit.obj
 0001:0004c440       ?rml_TRACE@@YAXPBDZZ       1004d440 f   utilit.obj
 0001:0004c520       ?rtolower@@YAEE@Z          1004d520 f   utilit.obj
 0001:0004c5a0       ?rtoupper@@YAEE@Z          1004d5a0 f   utilit.obj
 0001:0004c620       ?rtrim@@YAPADPAD@Z         1004d620 f   utilit.obj
 0001:0004c6a0       ?save_to_bytes@@YAIABDPAE@Z 1004d6a0 f i utilit.obj
 0001:0004c6f0       ?size@?$_Tree@V?$_Tmap_traits@HV?$_Tree_const_iterator@V?$_Tree_val@U?$_Tree_simple_types@U?$pair@$$CBV?$basic_string@DU?$char_traits@D@std@@V?$allocator@D@2@@std@@UCMyTimeSpan@@@std@@@std@@@std@@@std@@U?$less@H@2@V?$allocator@U?$pair@$$CBHV?$_Tree_const_iterator@V?$_Tree_val@U?$_Tree_simple_types@U?$pair@$$CBV?$basic_string@DU?$char_traits@D@std@@V?$allocator@D@2@@std@@UCMyTimeSpan@@@std@@@std@@@std@@@std@@@std@@@2@$0A@@std@@@std@@QBEIXZ 1004d6f0 f i utilit.obj
 0001:0004c720       ?size@?$vector@DV?$allocator@D@std@@@std@@QBEIXZ 1004d720 f i utilit.obj
 0001:0004c760       ?size@?$vector@VCShortString@@V?$allocator@VCShortString@@@std@@@std@@QBEIXZ 1004d760 f i utilit.obj
 0001:0004c7a0       ?strchr@@YAPADPADH@Z       1004d7a0 f i utilit.obj
 0001:0004c7f0       ?strscmp@@YA_NPBD0IW4MorphLanguageEnum@@@Z 1004d7f0 f   utilit.obj
 0001:0004c8b0       ?substr@?$basic_string@DU?$char_traits@D@std@@V?$allocator@D@2@@std@@QBE?AV12@II@Z 1004d8b0 f i utilit.obj
 0001:0004c930       ?val@StringTokenizer@@QBEPBDXZ 1004d930 f   utilit.obj
 0001:0004c960       ?wtk@@YADD@Z               1004d960 f   utilit.obj
 0001:0004ca48       _RegCloseKey@4             1004da48 f   Advapi32:ADVAPI32.dll
 0001:0004ca4e       _RegCreateKeyExA@36        1004da4e f   Advapi32:ADVAPI32.dll
 0001:0004ca54       _RegDeleteKeyA@8           1004da54 f   Advapi32:ADVAPI32.dll
 0001:0004ca5a       _RegDeleteValueA@8         1004da5a f   Advapi32:ADVAPI32.dll
 0001:0004ca60       _RegEnumKeyExA@32          1004da60 f   Advapi32:ADVAPI32.dll
 0001:0004ca66       _RegOpenKeyExA@20          1004da66 f   Advapi32:ADVAPI32.dll
 0001:0004ca6c       _RegQueryInfoKeyA@48       1004da6c f   Advapi32:ADVAPI32.dll
 0001:0004ca72       _RegQueryInfoKeyW@48       1004da72 f   Advapi32:ADVAPI32.dll
 0001:0004ca78       _RegSetValueExA@24         1004da78 f   Advapi32:ADVAPI32.dll
 0001:0004ca7e       _RegQueryValueExA@24       1004da7e f   Advapi32:ADVAPI32.dll
 0001:0004ca84       _EnterCriticalSection@4    1004da84 f   kernel32:KERNEL32.dll
 0001:0004ca8a       _LeaveCriticalSection@4    1004da8a f   kernel32:KERNEL32.dll
 0001:0004ca90       _GetModuleFileNameA@12     1004da90 f   kernel32:KERNEL32.dll
 0001:0004ca96       _MultiByteToWideChar@24    1004da96 f   kernel32:KERNEL32.dll
 0001:0004ca9c       _DecodePointer@4           1004da9c f   kernel32:KERNEL32.dll
 0001:0004caa2       _RaiseException@16         1004daa2 f   kernel32:KERNEL32.dll
 0001:0004caa8       _GetLastError@0            1004daa8 f   kernel32:KERNEL32.dll
 0001:0004caae       _InitializeCriticalSectionAndSpinCount@8 1004daae f   kernel32:KERNEL32.dll
 0001:0004cab4       _DeleteCriticalSection@4   1004dab4 f   kernel32:KERNEL32.dll
 0001:0004caba       _EncodePointer@4           1004daba f   kernel32:KERNEL32.dll
 0001:0004cac0       _DisableThreadLibraryCalls@4 1004dac0 f   kernel32:KERNEL32.dll
 0001:0004cac6       _FreeLibrary@4             1004dac6 f   kernel32:KERNEL32.dll
 0001:0004cacc       _GetModuleHandleA@4        1004dacc f   kernel32:KERNEL32.dll
 0001:0004cad2       _GetModuleHandleW@4        1004dad2 f   kernel32:KERNEL32.dll
 0001:0004cad8       _GetProcAddress@8          1004dad8 f   kernel32:KERNEL32.dll
 0001:0004cade       _LoadLibraryExA@12         1004dade f   kernel32:KERNEL32.dll
 0001:0004cae4       _LoadResource@8            1004dae4 f   kernel32:KERNEL32.dll
 0001:0004caea       _SizeofResource@8          1004daea f   kernel32:KERNEL32.dll
 0001:0004caf0       _lstrcmpiA@8               1004daf0 f   kernel32:KERNEL32.dll
 0001:0004caf6       _FindResourceA@12          1004daf6 f   kernel32:KERNEL32.dll
 0001:0004cafc       _WideCharToMultiByte@32    1004dafc f   kernel32:KERNEL32.dll
 0001:0004cb02       _IsDBCSLeadByte@4          1004db02 f   kernel32:KERNEL32.dll
 0001:0004cb08       _OutputDebugStringA@4      1004db08 f   kernel32:KERNEL32.dll
 0001:0004cb0e       _UnregisterClassA@8        1004db0e f   user32:USER32.dll
 0001:0004cb14       _CharNextA@4               1004db14 f   user32:USER32.dll
 0001:0004cb1a       _CharNextW@4               1004db1a f   user32:USER32.dll
 0001:0004cb20       _MessageBoxA@16            1004db20 f   user32:USER32.dll
 0001:0004cb26       _CoCreateInstance@20       1004db26 f   ole32:ole32.dll
 0001:0004cb2c       _StringFromGUID2@12        1004db2c f   ole32:ole32.dll
 0001:0004cb32       _CoTaskMemAlloc@4          1004db32 f   ole32:ole32.dll
 0001:0004cb38       _CoTaskMemRealloc@8        1004db38 f   ole32:ole32.dll
 0001:0004cb3e       _CoTaskMemFree@4           1004db3e f   ole32:ole32.dll
 0001:0004cb44       _SysAllocString@4          1004db44 f   oleaut32:OLEAUT32.dll
 0001:0004cb4a       _SysFreeString@4           1004db4a f   oleaut32:OLEAUT32.dll
 0001:0004cb50       _SysStringLen@4            1004db50 f   oleaut32:OLEAUT32.dll
 0001:0004cb56       _SysStringByteLen@4        1004db56 f   oleaut32:OLEAUT32.dll
 0001:0004cb5c       _SysAllocStringByteLen@8   1004db5c f   oleaut32:OLEAUT32.dll
 0001:0004cb62       _LoadTypeLib@8             1004db62 f   oleaut32:OLEAUT32.dll
 0001:0004cb68       _LoadRegTypeLib@20         1004db68 f   oleaut32:OLEAUT32.dll
 0001:0004cb6e       _VarUI4FromStr@16          1004db6e f   oleaut32:OLEAUT32.dll
 0001:0004cb74       _RegisterTypeLib@12        1004db74 f   oleaut32:OLEAUT32.dll
 0001:0004cb7a       _UnRegisterTypeLib@20      1004db7a f   oleaut32:OLEAUT32.dll
 0001:0004cb80       ??$?0$$QAV?$basic_string@DU?$char_traits@D@std@@V?$allocator@D@2@@std@@$$$V@?$pair@$$CBV?$basic_string@DU?$char_traits@D@std@@V?$allocator@D@2@@std@@V12@@std@@QAE@Upiecewise_construct_t@1@V?$tuple@$$QAV?$basic_string@DU?$char_traits@D@std@@V?$allocator@D@2@@std@@@1@V?$tuple@$$$V@1@@Z 1004db80 f i StructDictLib:ItemsContainer.obj
 0001:0004cbf0       ??$?0$$QAV?$basic_string@DU?$char_traits@D@std@@V?$allocator@D@2@@std@@PAPAX@?$tuple@$$QAV?$basic_string@DU?$char_traits@D@std@@V?$allocator@D@2@@std@@@std@@QAE@$$QAV01@@Z 1004dbf0 f i StructDictLib:ItemsContainer.obj
 0001:0004cc60       ??$?0AAPAUCSignat@@AAPAU0@X@?$pair@PAUCSignat@@PAU1@@std@@QAE@AAPAUCSignat@@0@Z 1004dc60 f i StructDictLib:ItemsContainer.obj
 0001:0004ccd0       ??$?0AAV?$_Tree_iterator@V?$_Tree_val@U?$_Tree_simple_types@U?$pair@$$CBV?$basic_string@DU?$char_traits@D@std@@V?$allocator@D@2@@std@@V12@@std@@@std@@@std@@@std@@_NX@?$pair@V?$_Tree_iterator@V?$_Tree_val@U?$_Tree_simple_types@U?$pair@$$CBV?$basic_string@DU?$char_traits@D@std@@V?$allocator@D@2@@std@@V12@@std@@@std@@@std@@@std@@_N@std@@QAE@AAV?$_Tree_iterator@V?$_Tree_val@U?$_Tree_simple_types@U?$pair@$$CBV?$basic_string@DU?$char_traits@D@std@@V?$allocator@D@2@@std@@V12@@std@@@std@@@std@@@1@$$QA_N@Z 1004dcd0 f i StructDictLib:ItemsContainer.obj
 0001:0004cd70       ??$?0U?$_Tree_node@U?$pair@$$CBV?$basic_string@DU?$char_traits@D@std@@V?$allocator@D@2@@std@@V12@@std@@PAX@std@@@?$allocator@U_Container_proxy@std@@@std@@QAE@ABV?$allocator@U?$_Tree_node@U?$pair@$$CBV?$basic_string@DU?$char_traits@D@std@@V?$allocator@D@2@@std@@V12@@std@@PAX@std@@@1@@Z 1004dd70 f i StructDictLib:ItemsContainer.obj
 0001:0004cda0       ??$?0U?$_Wrap_alloc@V?$allocator@U?$_Tree_node@U?$pair@$$CBV?$basic_string@DU?$char_traits@D@std@@V?$allocator@D@2@@std@@V12@@std@@PAX@std@@@std@@@std@@@?$_Wrap_alloc@V?$allocator@U_Container_proxy@std@@@std@@@std@@QAE@ABU?$_Wrap_alloc@V?$allocator@U?$_Tree_node@U?$pair@$$CBV?$basic_string@DU?$char_traits@D@std@@V?$allocator@D@2@@std@@V12@@std@@PAX@std@@@std@@@1@@Z 1004dda0 f i StructDictLib:ItemsContainer.obj
 0001:0004cdf0       ??$?0V?$_Tree_iterator@V?$_Tree_val@U?$_Tree_simple_types@U?$pair@$$CBV?$basic_string@DU?$char_traits@D@std@@V?$allocator@D@2@@std@@V12@@std@@@std@@@std@@@std@@_NX@?$pair@V?$_Tree_iterator@V?$_Tree_val@U?$_Tree_simple_types@U?$pair@$$CBV?$basic_string@DU?$char_traits@D@std@@V?$allocator@D@2@@std@@V12@@std@@@std@@@std@@@std@@_N@std@@QAE@$$QAV?$_Tree_iterator@V?$_Tree_val@U?$_Tree_simple_types@U?$pair@$$CBV?$basic_string@DU?$char_traits@D@std@@V?$allocator@D@2@@std@@V12@@std@@@std@@@std@@@1@$$QA_N@Z 1004ddf0 f i StructDictLib:ItemsContainer.obj
 0001:0004ce90       ??$?0V?$basic_string@DU?$char_traits@D@std@@V?$allocator@D@2@@std@@$$$VPAPAX@?$tuple@$$QAV?$basic_string@DU?$char_traits@D@std@@V?$allocator@D@2@@std@@@std@@QAE@$$QAV?$basic_string@DU?$char_traits@D@std@@V?$allocator@D@2@@1@@Z 1004de90 f i StructDictLib:ItemsContainer.obj
 0001:0004cef0       ??$?0V?$basic_string@DU?$char_traits@D@std@@V?$allocator@D@2@@std@@@?$_Tuple_val@$$QAV?$basic_string@DU?$char_traits@D@std@@V?$allocator@D@2@@std@@@std@@QAE@$$QAV?$basic_string@DU?$char_traits@D@std@@V?$allocator@D@2@@1@@Z 1004def0 f i StructDictLib:ItemsContainer.obj
 0001:0004cf40       ??$?0V?$tuple@$$QAV?$basic_string@DU?$char_traits@D@std@@V?$allocator@D@2@@std@@@std@@V?$tuple@$$$V@1@$0A@$S@?$pair@$$CBV?$basic_string@DU?$char_traits@D@std@@V?$allocator@D@2@@std@@V12@@std@@QAE@AAV?$tuple@$$QAV?$basic_string@DU?$char_traits@D@std@@V?$allocator@D@2@@std@@@1@AAV?$tuple@$$$V@1@U?$_Arg_idx@$0A@@1@U?$_Arg_idx@$S@1@@Z 1004df40 f i StructDictLib:ItemsContainer.obj
 0001:0004cfe0       ??$?8DU?$char_traits@D@std@@V?$allocator@D@1@@std@@YA_NPBDABV?$basic_string@DU?$char_traits@D@std@@V?$allocator@D@2@@0@@Z 1004dfe0 f i StructDictLib:ItemsContainer.obj
 0001:0004d040       ??$?9DU?$char_traits@D@std@@V?$allocator@D@1@@std@@YA_NPBDABV?$basic_string@DU?$char_traits@D@std@@V?$allocator@D@2@@0@@Z 1004e040 f i StructDictLib:ItemsContainer.obj
 0001:0004d0b0       ??$?HDU?$char_traits@D@std@@V?$allocator@D@1@@std@@YA?AV?$basic_string@DU?$char_traits@D@std@@V?$allocator@D@2@@0@$$QAV10@0@Z 1004e0b0 f i StructDictLib:ItemsContainer.obj
 0001:0004d1a0       ??$?RAAUCSignat@@AAU0@@?$less@X@std@@QBE_NAAUCSignat@@0@Z 1004e1a0 f i StructDictLib:ItemsContainer.obj
 0001:0004d1f0       ??$_Adjust_heap@PAUCSignat@@HU1@U?$less@X@std@@@std@@YAXPAUCSignat@@HH$$QAU1@U?$less@X@0@@Z 1004e1f0 f i StructDictLib:ItemsContainer.obj
 0001:0004d320       ??$_Advance@PBUTDomItem@@H@std@@YAXAAPBUTDomItem@@HUrandom_access_iterator_tag@0@@Z 1004e320 f i StructDictLib:ItemsContainer.obj
 0001:0004d360       ??$_Allocate@U?$_Tree_node@U?$pair@$$CBV?$basic_string@DU?$char_traits@D@std@@V?$allocator@D@2@@std@@V12@@std@@PAX@std@@@std@@YAPAU?$_Tree_node@U?$pair@$$CBV?$basic_string@DU?$char_traits@D@std@@V?$allocator@D@2@@std@@V12@@std@@PAX@0@IPAU10@@Z 1004e360 f i StructDictLib:ItemsContainer.obj
 0001:0004d3e0       ??$_Allocate@UCDomen@@@std@@YAPAUCDomen@@IPAU1@@Z 1004e3e0 f i StructDictLib:ItemsContainer.obj
 0001:0004d460       ??$_Allocate@UCField@@@std@@YAPAUCField@@IPAU1@@Z 1004e460 f i StructDictLib:ItemsContainer.obj
 0001:0004d4e0       ??$_Allocate@UTDomItem@@@std@@YAPAUTDomItem@@IPAU1@@Z 1004e4e0 f i StructDictLib:ItemsContainer.obj
 0001:0004d560       ??$_Buynode@ABUpiecewise_construct_t@std@@V?$tuple@$$QAV?$basic_string@DU?$char_traits@D@std@@V?$allocator@D@2@@std@@@2@V?$tuple@$$$V@2@@?$_Tree_buy@U?$pair@$$CBV?$basic_string@DU?$char_traits@D@std@@V?$allocator@D@2@@std@@V12@@std@@V?$allocator@U?$pair@$$CBV?$basic_string@DU?$char_traits@D@std@@V?$allocator@D@2@@std@@V12@@std@@@2@@std@@QAEPAU?$_Tree_node@U?$pair@$$CBV?$basic_string@DU?$char_traits@D@std@@V?$allocator@D@2@@std@@V12@@std@@PAX@1@ABUpiecewise_construct_t@1@$$QAV?$tuple@$$QAV?$basic_string@DU?$char_traits@D@std@@V?$allocator@D@2@@std@@@1@$$QAV?$tuple@$$$V@1@@Z 1004e560 f i StructDictLib:ItemsContainer.obj
 0001:0004d6c0       ??$_Buynode_if_nil@AAU?$pair@$$CBV?$basic_string@DU?$char_traits@D@std@@V?$allocator@D@2@@std@@V12@@std@@@?$_Tree@V?$_Tmap_traits@V?$basic_string@DU?$char_traits@D@std@@V?$allocator@D@2@@std@@V12@U?$less@V?$basic_string@DU?$char_traits@D@std@@V?$allocator@D@2@@std@@@2@V?$allocator@U?$pair@$$CBV?$basic_string@DU?$char_traits@D@std@@V?$allocator@D@2@@std@@V12@@std@@@2@$0A@@std@@@std@@IAEPAU?$_Tree_node@U?$pair@$$CBV?$basic_string@DU?$char_traits@D@std@@V?$allocator@D@2@@std@@V12@@std@@PAX@1@PAU21@AAU?$pair@$$CBV?$basic_string@DU?$char_traits@D@std@@V?$allocator@D@2@@std@@V12@@1@@Z 1004e6c0 f i StructDictLib:ItemsContainer.obj
 0001:0004d6f0       ??$_Debug_heap@PAUCSignat@@U?$less@X@std@@@std@@YAXPAUCSignat@@0U?$less@X@0@@Z 1004e6f0 f i StructDictLib:ItemsContainer.obj
 0001:0004d810       ??$_Debug_lt_pred@U?$less@X@std@@AAUCSignat@@AAU3@@std@@YA_NU?$less@X@0@AAUCSignat@@1PB_WI@Z 1004e810 f i StructDictLib:ItemsContainer.obj
 0001:0004d8c0       ??$_Debug_pointer@U?$less@X@std@@@std@@YAXAAU?$less@X@0@PB_WI@Z 1004e8c0 f i StructDictLib:ItemsContainer.obj
 0001:0004d8f0       ??$_Debug_pointer@UCDomen@@@std@@YAXPAUCDomen@@PB_WI@Z 1004e8f0 f i StructDictLib:ItemsContainer.obj
 0001:0004d950       ??$_Debug_pointer@UCField@@@std@@YAXPAUCField@@PB_WI@Z 1004e950 f i StructDictLib:ItemsContainer.obj
 0001:0004d9b0       ??$_Debug_pointer@UCSignat@@@std@@YAXPBUCSignat@@PB_WI@Z 1004e9b0 f i StructDictLib:ItemsContainer.obj
 0001:0004da10       ??$_Debug_pointer@UTDomItem@@@std@@YAXPAUTDomItem@@PB_WI@Z 1004ea10 f i StructDictLib:ItemsContainer.obj
 0001:0004da70       ??$_Debug_pointer@UTDomItem@@@std@@YAXPBUTDomItem@@PB_WI@Z 1004ea70 f i StructDictLib:ItemsContainer.obj
 0001:0004dad0       ??$_Debug_pointer@V?$_Vector_iterator@V?$_Vector_val@U?$_Simple_types@UCSignat@@@std@@@std@@@std@@@std@@YAXAAV?$_Vector_iterator@V?$_Vector_val@U?$_Simple_types@UCSignat@@@std@@@std@@@0@PB_WI@Z 1004ead0 f i StructDictLib:ItemsContainer.obj
 0001:0004db00       ??$_Debug_range2@PAUCDomen@@@std@@YAXPAUCDomen@@0PB_WIUrandom_access_iterator_tag@0@@Z 1004eb00 f i StructDictLib:ItemsContainer.obj
 0001:0004db90       ??$_Debug_range2@PAUCField@@@std@@YAXPAUCField@@0PB_WIUrandom_access_iterator_tag@0@@Z 1004eb90 f i StructDictLib:ItemsContainer.obj
 0001:0004dc20       ??$_Debug_range2@PAUTDomItem@@@std@@YAXPAUTDomItem@@0PB_WIUrandom_access_iterator_tag@0@@Z 1004ec20 f i StructDictLib:ItemsContainer.obj
 0001:0004dcb0       ??$_Debug_range2@PBUCSignat@@@std@@YAXPBUCSignat@@0PB_WIUrandom_access_iterator_tag@0@@Z 1004ecb0 f i StructDictLib:ItemsContainer.obj
 0001:0004dd40       ??$_Debug_range2@V?$_Vector_iterator@V?$_Vector_val@U?$_Simple_types@UCSignat@@@std@@@std@@@std@@@std@@YAXV?$_Vector_iterator@V?$_Vector_val@U?$_Simple_types@UCSignat@@@std@@@std@@@0@0PB_WIUrandom_access_iterator_tag@0@@Z 1004ed40 f i StructDictLib:ItemsContainer.obj
 0001:0004de30       ??$_Debug_range@PAUCDomen@@@std@@YAXPAUCDomen@@0PB_WI@Z 1004ee30 f i StructDictLib:ItemsContainer.obj
 0001:0004dea0       ??$_Debug_range@PAUCField@@@std@@YAXPAUCField@@0PB_WI@Z 1004eea0 f i StructDictLib:ItemsContainer.obj
 0001:0004df10       ??$_Debug_range@PAUTDomItem@@@std@@YAXPAUTDomItem@@0PB_WI@Z 1004ef10 f i StructDictLib:ItemsContainer.obj
 0001:0004df80       ??$_Debug_range@PBUCSignat@@@std@@YAXPBUCSignat@@0PB_WI@Z 1004ef80 f i StructDictLib:ItemsContainer.obj
 0001:0004dff0       ??$_Debug_range@V?$_Vector_iterator@V?$_Vector_val@U?$_Simple_types@UCSignat@@@std@@@std@@@std@@@std@@YAXV?$_Vector_iterator@V?$_Vector_val@U?$_Simple_types@UCSignat@@@std@@@std@@@0@0PB_WI@Z 1004eff0 f i StructDictLib:ItemsContainer.obj
 0001:0004e0e0       ??$_Destroy_range@U?$_Wrap_alloc@V?$allocator@UCDomen@@@std@@@std@@@std@@YAXPAUCDomen@@0AAU?$_Wrap_alloc@V?$allocator@UCDomen@@@std@@@0@@Z 1004f0e0 f i StructDictLib:ItemsContainer.obj
 0001:0004e150       ??$_Destroy_range@U?$_Wrap_alloc@V?$allocator@UCDomen@@@std@@@std@@@std@@YAXPAUCDomen@@0AAU?$_Wrap_alloc@V?$allocator@UCDomen@@@std@@@0@U_Nonscalar_ptr_iterator_tag@0@@Z 1004f150 f i StructDictLib:ItemsContainer.obj
 0001:0004e1b0       ??$_Destroy_range@U?$_Wrap_alloc@V?$allocator@UCField@@@std@@@std@@@std@@YAXPAUCField@@0AAU?$_Wrap_alloc@V?$allocator@UCField@@@std@@@0@@Z 1004f1b0 f i StructDictLib:ItemsContainer.obj
 0001:0004e220       ??$_Destroy_range@U?$_Wrap_alloc@V?$allocator@UCField@@@std@@@std@@@std@@YAXPAUCField@@0AAU?$_Wrap_alloc@V?$allocator@UCField@@@std@@@0@U_Nonscalar_ptr_iterator_tag@0@@Z 1004f220 f i StructDictLib:ItemsContainer.obj
 0001:0004e280       ??$_Destroy_range@U?$_Wrap_alloc@V?$allocator@UTDomItem@@@std@@@std@@@std@@YAXPAUTDomItem@@0AAU?$_Wrap_alloc@V?$allocator@UTDomItem@@@std@@@0@@Z 1004f280 f i StructDictLib:ItemsContainer.obj
 0001:0004e2f0       ??$_Destroy_range@U?$_Wrap_alloc@V?$allocator@UTDomItem@@@std@@@std@@@std@@YAXPAUTDomItem@@0AAU?$_Wrap_alloc@V?$allocator@UTDomItem@@@std@@@0@U_Nonscalar_ptr_iterator_tag@0@@Z 1004f2f0 f i StructDictLib:ItemsContainer.obj
 0001:0004e350       ??$_Dist_type@PAUCSignat@@@std@@YAPAHPAUCSignat@@@Z 1004f350 f i StructDictLib:ItemsContainer.obj
 0001:0004e380       ??$_Dist_type@V?$_Vector_const_iterator@V?$_Vector_val@U?$_Simple_types@UTDomItem@@@std@@@std@@@std@@@std@@YAPAHV?$_Vector_const_iterator@V?$_Vector_val@U?$_Simple_types@UTDomItem@@@std@@@std@@@0@@Z 1004f380 f i StructDictLib:ItemsContainer.obj
 0001:0004e3d0       ??$_Distance2@PBUTDomItem@@H@std@@YAXPBUTDomItem@@0AAHUrandom_access_iterator_tag@0@@Z 1004f3d0 f i StructDictLib:ItemsContainer.obj
 0001:0004e450       ??$_Distance@PBUTDomItem@@H@std@@YAXPBUTDomItem@@0AAH@Z 1004f450 f i StructDictLib:ItemsContainer.obj
 0001:0004e4b0       ??$_Insert_at@AAU?$pair@$$CBV?$basic_string@DU?$char_traits@D@std@@V?$allocator@D@2@@std@@V12@@std@@PAU?$_Tree_node@U?$pair@$$CBV?$basic_string@DU?$char_traits@D@std@@V?$allocator@D@2@@std@@V12@@std@@PAX@2@@?$_Tree@V?$_Tmap_traits@V?$basic_string@DU?$char_traits@D@std@@V?$allocator@D@2@@std@@V12@U?$less@V?$basic_string@DU?$char_traits@D@std@@V?$allocator@D@2@@std@@@2@V?$allocator@U?$pair@$$CBV?$basic_string@DU?$char_traits@D@std@@V?$allocator@D@2@@std@@V12@@std@@@2@$0A@@std@@@std@@IAE?AV?$_Tree_iterator@V?$_Tree_val@U?$_Tree_simple_types@U?$pair@$$CBV?$basic_string@DU?$char_traits@D@std@@V?$allocator@D@2@@std@@V12@@std@@@std@@@std@@@1@_NPAU?$_Tree_node@U?$pair@$$CBV?$basic_string@DU?$char_traits@D@std@@V?$allocator@D@2@@std@@V12@@std@@PAX@1@AAU?$pair@$$CBV?$basic_string@DU?$char_traits@D@std@@V?$allocator@D@2@@std@@V12@@1@1@Z 1004f4b0 f i StructDictLib:ItemsContainer.obj
 0001:0004e920       ??$_Insert_hint@AAU?$pair@$$CBV?$basic_string@DU?$char_traits@D@std@@V?$allocator@D@2@@std@@V12@@std@@PAU?$_Tree_node@U?$pair@$$CBV?$basic_string@DU?$char_traits@D@std@@V?$allocator@D@2@@std@@V12@@std@@PAX@2@@?$_Tree@V?$_Tmap_traits@V?$basic_string@DU?$char_traits@D@std@@V?$allocator@D@2@@std@@V12@U?$less@V?$basic_string@DU?$char_traits@D@std@@V?$allocator@D@2@@std@@@2@V?$allocator@U?$pair@$$CBV?$basic_string@DU?$char_traits@D@std@@V?$allocator@D@2@@std@@V12@@std@@@2@$0A@@std@@@std@@IAE?AV?$_Tree_iterator@V?$_Tree_val@U?$_Tree_simple_types@U?$pair@$$CBV?$basic_string@DU?$char_traits@D@std@@V?$allocator@D@2@@std@@V12@@std@@@std@@@std@@@1@V?$_Tree_const_iterator@V?$_Tree_val@U?$_Tree_simple_types@U?$pair@$$CBV?$basic_string@DU?$char_traits@D@std@@V?$allocator@D@2@@std@@V12@@std@@@std@@@std@@@1@AAU?$pair@$$CBV?$basic_string@DU?$char_traits@D@std@@V?$allocator@D@2@@std@@V12@@1@PAU?$_Tree_node@U?$pair@$$CBV?$basic_string@DU?$char_traits@D@std@@V?$allocator@D@2@@std@@V12@@std@@PAX@1@@Z 1004f920 f i StructDictLib:ItemsContainer.obj
 0001:0004fbd0       ??$_Insert_nohint@AAU?$pair@$$CBV?$basic_string@DU?$char_traits@D@std@@V?$allocator@D@2@@std@@V12@@std@@PAU?$_Tree_node@U?$pair@$$CBV?$basic_string@DU?$char_traits@D@std@@V?$allocator@D@2@@std@@V12@@std@@PAX@2@@?$_Tree@V?$_Tmap_traits@V?$basic_string@DU?$char_traits@D@std@@V?$allocator@D@2@@std@@V12@U?$less@V?$basic_string@DU?$char_traits@D@std@@V?$allocator@D@2@@std@@@2@V?$allocator@U?$pair@$$CBV?$basic_string@DU?$char_traits@D@std@@V?$allocator@D@2@@std@@V12@@std@@@2@$0A@@std@@@std@@IAE?AU?$pair@V?$_Tree_iterator@V?$_Tree_val@U?$_Tree_simple_types@U?$pair@$$CBV?$basic_string@DU?$char_traits@D@std@@V?$allocator@D@2@@std@@V12@@std@@@std@@@std@@@std@@_N@1@_NAAU?$pair@$$CBV?$basic_string@DU?$char_traits@D@std@@V?$allocator@D@2@@std@@V12@@1@PAU?$_Tree_node@U?$pair@$$CBV?$basic_string@DU?$char_traits@D@std@@V?$allocator@D@2@@std@@V12@@std@@PAX@1@@Z 10050bd0 f i StructDictLib:ItemsContainer.obj
 0001:000501a0       ??$_Insertion_sort1@PAUCSignat@@U?$less@X@std@@U1@@std@@YAXPAUCSignat@@0U?$less@X@0@0@Z 100511a0 f i StructDictLib:ItemsContainer.obj
 0001:00050390       ??$_Insertion_sort@PAUCSignat@@U?$less@X@std@@@std@@YAXPAUCSignat@@0U?$less@X@0@@Z 10051390 f i StructDictLib:ItemsContainer.obj
 0001:000503f0       ??$_Iter_cat@PAUCDomen@@@std@@YA?AUrandom_access_iterator_tag@0@ABQAUCDomen@@@Z 100513f0 f i StructDictLib:ItemsContainer.obj
 0001:00050450       ??$_Iter_cat@PAUCField@@@std@@YA?AUrandom_access_iterator_tag@0@ABQAUCField@@@Z 10051450 f i StructDictLib:ItemsContainer.obj
 0001:000504b0       ??$_Iter_cat@PAUTDomItem@@@std@@YA?AUrandom_access_iterator_tag@0@ABQAUTDomItem@@@Z 100514b0 f i StructDictLib:ItemsContainer.obj
 0001:00050510       ??$_Iter_cat@PBUCSignat@@@std@@YA?AUrandom_access_iterator_tag@0@ABQBUCSignat@@@Z 10051510 f i StructDictLib:ItemsContainer.obj
 0001:00050570       ??$_Iter_cat@PBUTDomItem@@@std@@YA?AUrandom_access_iterator_tag@0@ABQBUTDomItem@@@Z 10051570 f i StructDictLib:ItemsContainer.obj
 0001:000505d0       ??$_Iter_cat@V?$_Vector_iterator@V?$_Vector_val@U?$_Simple_types@UCSignat@@@std@@@std@@@std@@@std@@YA?AUrandom_access_iterator_tag@0@ABV?$_Vector_iterator@V?$_Vector_val@U?$_Simple_types@UCSignat@@@std@@@std@@@0@@Z 100515d0 f i StructDictLib:ItemsContainer.obj
 0001:00050630       ??$_Kfn@$$CBV?$basic_string@DU?$char_traits@D@std@@V?$allocator@D@2@@std@@V12@@?$_Tmap_traits@V?$basic_string@DU?$char_traits@D@std@@V?$allocator@D@2@@std@@V12@U?$less@V?$basic_string@DU?$char_traits@D@std@@V?$allocator@D@2@@std@@@2@V?$allocator@U?$pair@$$CBV?$basic_string@DU?$char_traits@D@std@@V?$allocator@D@2@@std@@V12@@std@@@2@$0A@@std@@SAABV?$basic_string@DU?$char_traits@D@std@@V?$allocator@D@2@@1@ABU?$pair@$$CBV?$basic_string@DU?$char_traits@D@std@@V?$allocator@D@2@@std@@V12@@1@@Z 10051630 f i StructDictLib:ItemsContainer.obj
 0001:00050660       ??$_Lower_bound@PBUTDomItem@@UTDomNoItemStr@@HVIsLessByNotStableItemStrNew@@@std@@YAPBUTDomItem@@PBU1@0ABUTDomNoItemStr@@VIsLessByNotStableItemStrNew@@PAH@Z 10051660 f i StructDictLib:ItemsContainer.obj
 0001:00050760       ??$_Make_heap@PAUCSignat@@HU1@U?$less@X@std@@@std@@YAXPAUCSignat@@0U?$less@X@0@PAH0@Z 10051760 f i StructDictLib:ItemsContainer.obj
 0001:00050890       ??$_Med3@PAUCSignat@@U?$less@X@std@@@std@@YAXPAUCSignat@@00U?$less@X@0@@Z 10051890 f i StructDictLib:ItemsContainer.obj
 0001:00050970       ??$_Median@PAUCSignat@@U?$less@X@std@@@std@@YAXPAUCSignat@@00U?$less@X@0@@Z 10051970 f i StructDictLib:ItemsContainer.obj
 0001:00050aa0       ??$_Move@AAUCSignat@@@std@@YA$$QAUCSignat@@AAU1@@Z 10051aa0 f i StructDictLib:ItemsContainer.obj
 0001:00050ad0       ??$_Move_backward@PAUCSignat@@PAU1@@std@@YAPAUCSignat@@PAU1@00@Z 10051ad0 f i StructDictLib:ItemsContainer.obj
 0001:00050b40       ??$_Move_backward@PAUCSignat@@PAU1@@std@@YAPAUCSignat@@PAU1@00U_Nonscalar_ptr_iterator_tag@0@@Z 10051b40 f i StructDictLib:ItemsContainer.obj
 0001:00050bb0       ??$_Pop_heap@PAUCSignat@@HU1@U?$less@X@std@@@std@@YAXPAUCSignat@@00$$QAU1@U?$less@X@0@PAH@Z 10051bb0 f i StructDictLib:ItemsContainer.obj
 0001:00050c30       ??$_Pop_heap@PAUCSignat@@U?$less@X@std@@@std@@YAXPAUCSignat@@0U?$less@X@0@@Z 10051c30 f i StructDictLib:ItemsContainer.obj
 0001:00050ca0       ??$_Pop_heap_0@PAUCSignat@@U1@U?$less@X@std@@@std@@YAXPAUCSignat@@0U?$less@X@0@0@Z 10051ca0 f i StructDictLib:ItemsContainer.obj
 0001:00050db0       ??$_Ptr_cat@UCDomen@@U1@@std@@YA?AU_Nonscalar_ptr_iterator_tag@0@PAUCDomen@@0@Z 10051db0 f i StructDictLib:ItemsContainer.obj
 0001:00050e10       ??$_Ptr_cat@UCField@@U1@@std@@YA?AU_Nonscalar_ptr_iterator_tag@0@PAUCField@@0@Z 10051e10 f i StructDictLib:ItemsContainer.obj
 0001:00050e70       ??$_Ptr_cat@UCSignat@@U1@@std@@YA?AU_Nonscalar_ptr_iterator_tag@0@PBUCSignat@@PAU2@@Z 10051e70 f i StructDictLib:ItemsContainer.obj
 0001:00050ed0       ??$_Ptr_cat@UTDomItem@@U1@@std@@YA?AU_Nonscalar_ptr_iterator_tag@0@PAUTDomItem@@0@Z 10051ed0 f i StructDictLib:ItemsContainer.obj
 0001:00050f30       ??$_Push_heap@PAUCSignat@@HU1@U?$less@X@std@@@std@@YAXPAUCSignat@@HH$$QAU1@U?$less@X@0@@Z 10051f30 f i StructDictLib:ItemsContainer.obj
 0001:00051000       ??$_Rechecked@PAUCDomen@@PAU1@@std@@YAAAPAUCDomen@@AAPAU1@PAU1@@Z 10052000 f i StructDictLib:ItemsContainer.obj
 0001:00051030       ??$_Rechecked@PAUCField@@PAU1@@std@@YAAAPAUCField@@AAPAU1@PAU1@@Z 10052030 f i StructDictLib:ItemsContainer.obj
 0001:00051060       ??$_Rechecked@PAUTDomItem@@PAU1@@std@@YAAAPAUTDomItem@@AAPAU1@PAU1@@Z 10052060 f i StructDictLib:ItemsContainer.obj
 0001:00051090       ??$_Rechecked@V?$_Vector_val@U?$_Simple_types@UTDomItem@@@std@@@std@@@std@@YAAAV?$_Vector_const_iterator@V?$_Vector_val@U?$_Simple_types@UTDomItem@@@std@@@std@@@0@AAV10@PBUTDomItem@@@Z 10052090 f i StructDictLib:ItemsContainer.obj
 0001:000510d0       ??$_Sort@PAUCSignat@@HU?$less@X@std@@@std@@YAXPAUCSignat@@0HU?$less@X@0@@Z 100520d0 f i StructDictLib:ItemsContainer.obj
 0001:00051240       ??$_Sort_heap@PAUCSignat@@U?$less@X@std@@@std@@YAXPAUCSignat@@0U?$less@X@0@@Z 10052240 f i StructDictLib:ItemsContainer.obj
 0001:000512b0       ??$_Ucopy@V?$_Vector_const_iterator@V?$_Vector_val@U?$_Simple_types@UCSignat@@@std@@@std@@@std@@@?$vector@UCSignat@@V?$allocator@UCSignat@@@std@@@std@@IAEPAUCSignat@@V?$_Vector_const_iterator@V?$_Vector_val@U?$_Simple_types@UCSignat@@@std@@@std@@@1@0PAU2@@Z 100522b0 f i StructDictLib:ItemsContainer.obj
 0001:000513e0       ??$_Umove@PAUCDomen@@@?$vector@UCDomen@@V?$allocator@UCDomen@@@std@@@std@@IAEPAUCDomen@@PAU2@00@Z 100523e0 f i StructDictLib:ItemsContainer.obj
 0001:00051470       ??$_Umove@PAUCField@@@?$vector@UCField@@V?$allocator@UCField@@@std@@@std@@IAEPAUCField@@PAU2@00@Z 10052470 f i StructDictLib:ItemsContainer.obj
 0001:00051500       ??$_Umove@PAUTDomItem@@@?$vector@UTDomItem@@V?$allocator@UTDomItem@@@std@@@std@@IAEPAUTDomItem@@PAU2@00@Z 10052500 f i StructDictLib:ItemsContainer.obj
 0001:00051590       ??$_Unchecked@PAUCDomen@@@std@@YAPAUCDomen@@PAU1@@Z 10052590 f i StructDictLib:ItemsContainer.obj
 0001:000515c0       ??$_Unchecked@PAUCField@@@std@@YAPAUCField@@PAU1@@Z 100525c0 f i StructDictLib:ItemsContainer.obj
 0001:000515f0       ??$_Unchecked@PAUTDomItem@@@std@@YAPAUTDomItem@@PAU1@@Z 100525f0 f i StructDictLib:ItemsContainer.obj
 0001:00051620       ??$_Unchecked@V?$_Vector_val@U?$_Simple_types@UCSignat@@@std@@@std@@@std@@YAPAUCSignat@@V?$_Vector_iterator@V?$_Vector_val@U?$_Simple_types@UCSignat@@@std@@@std@@@0@@Z 10052620 f i StructDictLib:ItemsContainer.obj
 0001:000516b0       ??$_Unchecked@V?$_Vector_val@U?$_Simple_types@UCSignat@@@std@@@std@@@std@@YAPBUCSignat@@V?$_Vector_const_iterator@V?$_Vector_val@U?$_Simple_types@UCSignat@@@std@@@std@@@0@@Z 100526b0 f i StructDictLib:ItemsContainer.obj
 0001:00051740       ??$_Unchecked@V?$_Vector_val@U?$_Simple_types@UTDomItem@@@std@@@std@@@std@@YAPBUTDomItem@@V?$_Vector_const_iterator@V?$_Vector_val@U?$_Simple_types@UTDomItem@@@std@@@std@@@0@@Z 10052740 f i StructDictLib:ItemsContainer.obj
 0001:000517d0       ??$_Unguarded_partition@PAUCSignat@@U?$less@X@std@@@std@@YA?AU?$pair@PAUCSignat@@PAU1@@0@PAUCSignat@@0U?$less@X@0@@Z 100527d0 f i StructDictLib:ItemsContainer.obj
 0001:00051bd0       ??$_Uninit_copy@PBUCSignat@@PAU1@U?$_Wrap_alloc@V?$allocator@UCSignat@@@std@@@std@@@std@@YAPAUCSignat@@PBU1@0PAU1@AAU?$_Wrap_alloc@V?$allocator@UCSignat@@@std@@@0@@Z 10052bd0 f i StructDictLib:ItemsContainer.obj
 0001:00051c40       ??$_Uninit_copy@PBUCSignat@@PAU1@V?$allocator@UCSignat@@@std@@@std@@YAPAUCSignat@@PBU1@0PAU1@AAU?$_Wrap_alloc@V?$allocator@UCSignat@@@std@@@0@U_Nonscalar_ptr_iterator_tag@0@@Z 10052c40 f i StructDictLib:ItemsContainer.obj
 0001:00051d60       ??$_Uninit_def_fill_n@PAUCField@@IV?$allocator@UCField@@@std@@U1@@std@@YAXPAUCField@@IAAU?$_Wrap_alloc@V?$allocator@UCField@@@std@@@0@0U_Nonscalar_ptr_iterator_tag@0@@Z 10052d60 f i StructDictLib:ItemsContainer.obj
 0001:00051e40       ??$_Uninit_move@PAUCDomen@@PAU1@U?$_Wrap_alloc@V?$allocator@UCDomen@@@std@@@std@@@std@@YAPAUCDomen@@PAU1@00AAU?$_Wrap_alloc@V?$allocator@UCDomen@@@std@@@0@@Z 10052e40 f i StructDictLib:ItemsContainer.obj
 0001:00051ec0       ??$_Uninit_move@PAUCDomen@@PAU1@V?$allocator@UCDomen@@@std@@U1@@std@@YAPAUCDomen@@PAU1@00AAU?$_Wrap_alloc@V?$allocator@UCDomen@@@std@@@0@0U_Nonscalar_ptr_iterator_tag@0@@Z 10052ec0 f i StructDictLib:ItemsContainer.obj
 0001:00051fe0       ??$_Uninit_move@PAUCField@@PAU1@U?$_Wrap_alloc@V?$allocator@UCField@@@std@@@std@@@std@@YAPAUCField@@PAU1@00AAU?$_Wrap_alloc@V?$allocator@UCField@@@std@@@0@@Z 10052fe0 f i StructDictLib:ItemsContainer.obj
 0001:00052060       ??$_Uninit_move@PAUCField@@PAU1@V?$allocator@UCField@@@std@@U1@@std@@YAPAUCField@@PAU1@00AAU?$_Wrap_alloc@V?$allocator@UCField@@@std@@@0@0U_Nonscalar_ptr_iterator_tag@0@@Z 10053060 f i StructDictLib:ItemsContainer.obj
 0001:00052180       ??$_Uninit_move@PAUTDomItem@@PAU1@U?$_Wrap_alloc@V?$allocator@UTDomItem@@@std@@@std@@@std@@YAPAUTDomItem@@PAU1@00AAU?$_Wrap_alloc@V?$allocator@UTDomItem@@@std@@@0@@Z 10053180 f i StructDictLib:ItemsContainer.obj
 0001:00052200       ??$_Uninit_move@PAUTDomItem@@PAU1@V?$allocator@UTDomItem@@@std@@U1@@std@@YAPAUTDomItem@@PAU1@00AAU?$_Wrap_alloc@V?$allocator@UTDomItem@@@std@@@0@0U_Nonscalar_ptr_iterator_tag@0@@Z 10053200 f i StructDictLib:ItemsContainer.obj
 0001:00052310       ??$_Uninitialized_copy@V?$_Vector_const_iterator@V?$_Vector_val@U?$_Simple_types@UCSignat@@@std@@@std@@@std@@PAUCSignat@@U?$_Wrap_alloc@V?$allocator@UCSignat@@@std@@@2@@std@@YAPAUCSignat@@V?$_Vector_const_iterator@V?$_Vector_val@U?$_Simple_types@UCSignat@@@std@@@std@@@0@0PAU1@AAU?$_Wrap_alloc@V?$allocator@UCSignat@@@std@@@0@@Z 10053310 f i StructDictLib:ItemsContainer.obj
 0001:00052430       ??$_Uninitialized_default_fill_n@PAUCField@@IU?$_Wrap_alloc@V?$allocator@UCField@@@std@@@std@@@std@@YAXPAUCField@@IAAU?$_Wrap_alloc@V?$allocator@UCField@@@std@@@0@@Z 10053430 f i StructDictLib:ItemsContainer.obj
 0001:000524b0       ??$_Uninitialized_move@PAUCDomen@@PAU1@U?$_Wrap_alloc@V?$allocator@UCDomen@@@std@@@std@@@std@@YAPAUCDomen@@PAU1@00AAU?$_Wrap_alloc@V?$allocator@UCDomen@@@std@@@0@@Z 100534b0 f i StructDictLib:ItemsContainer.obj
 0001:00052530       ??$_Uninitialized_move@PAUCField@@PAU1@U?$_Wrap_alloc@V?$allocator@UCField@@@std@@@std@@@std@@YAPAUCField@@PAU1@00AAU?$_Wrap_alloc@V?$allocator@UCField@@@std@@@0@@Z 10053530 f i StructDictLib:ItemsContainer.obj
 0001:000525b0       ??$_Uninitialized_move@PAUTDomItem@@PAU1@U?$_Wrap_alloc@V?$allocator@UTDomItem@@@std@@@std@@@std@@YAPAUTDomItem@@PAU1@00AAU?$_Wrap_alloc@V?$allocator@UTDomItem@@@std@@@0@@Z 100535b0 f i StructDictLib:ItemsContainer.obj
 0001:00052630       ??$_Val_type@PAUCDomen@@@std@@YAPAUCDomen@@PAU1@@Z 10053630 f i StructDictLib:ItemsContainer.obj
 0001:00052660       ??$_Val_type@PAUCField@@@std@@YAPAUCField@@PAU1@@Z 10053660 f i StructDictLib:ItemsContainer.obj
 0001:00052690       ??$_Val_type@PAUTDomItem@@@std@@YAPAUTDomItem@@PAU1@@Z 10053690 f i StructDictLib:ItemsContainer.obj
 0001:000526c0       ??$addressof@$$CBE@std@@YAPBEABE@Z 100536c0 f i StructDictLib:ItemsContainer.obj
 0001:000526f0       ??$addressof@$$CBUCDomen@@@std@@YAPBUCDomen@@ABU1@@Z 100536f0 f i StructDictLib:ItemsContainer.obj
 0001:00052720       ??$addressof@$$CBUTDomItem@@@std@@YAPBUTDomItem@@ABU1@@Z 10053720 f i StructDictLib:ItemsContainer.obj
 0001:00052750       ??$addressof@PAU?$_Tree_node@U?$pair@$$CBV?$basic_string@DU?$char_traits@D@std@@V?$allocator@D@2@@std@@V12@@std@@PAX@std@@@std@@YAPAPAU?$_Tree_node@U?$pair@$$CBV?$basic_string@DU?$char_traits@D@std@@V?$allocator@D@2@@std@@V12@@std@@PAX@0@AAPAU10@@Z 10053750 f i StructDictLib:ItemsContainer.obj
 0001:00052780       ??$addressof@U?$pair@$$CBV?$basic_string@DU?$char_traits@D@std@@V?$allocator@D@2@@std@@V12@@std@@@std@@YAPAU?$pair@$$CBV?$basic_string@DU?$char_traits@D@std@@V?$allocator@D@2@@std@@V12@@0@AAU10@@Z 10053780 f i StructDictLib:ItemsContainer.obj
 0001:000527b0       ??$addressof@UTSignatItem@@@std@@YAPAUTSignatItem@@AAU1@@Z 100537b0 f i StructDictLib:ItemsContainer.obj
 0001:000527e0       ??$advance@PBUTDomItem@@H@std@@YAXAAPBUTDomItem@@H@Z 100537e0 f i StructDictLib:ItemsContainer.obj
 0001:00052840       ??$construct@EAAE@?$_Wrap_alloc@V?$allocator@E@std@@@std@@QAEXPAEAAE@Z 10053840 f i StructDictLib:ItemsContainer.obj
 0001:000528a0       ??$construct@EAAE@?$allocator@E@std@@QAEXPAEAAE@Z 100538a0 f i StructDictLib:ItemsContainer.obj
 0001:00052970       ??$construct@EAAE@?$allocator_traits@V?$allocator@E@std@@@std@@SAXAAV?$allocator@E@1@PAEAAE@Z 10053970 f i StructDictLib:ItemsContainer.obj
 0001:000529c0       ??$construct@EABE@?$_Wrap_alloc@V?$allocator@E@std@@@std@@QAEXPAEABE@Z 100539c0 f i StructDictLib:ItemsContainer.obj
 0001:00052a20       ??$construct@EABE@?$allocator_traits@V?$allocator@E@std@@@std@@SAXAAV?$allocator@E@1@PAEABE@Z 10053a20 f i StructDictLib:ItemsContainer.obj
 0001:00052a70       ??$construct@PAU?$_Tree_node@U?$pair@$$CBV?$basic_string@DU?$char_traits@D@std@@V?$allocator@D@2@@std@@V12@@std@@PAX@std@@AAPAU12@@?$_Wrap_alloc@V?$allocator@U?$_Tree_node@U?$pair@$$CBV?$basic_string@DU?$char_traits@D@std@@V?$allocator@D@2@@std@@V12@@std@@PAX@std@@@std@@@std@@QAEXPAPAU?$_Tree_node@U?$pair@$$CBV?$basic_string@DU?$char_traits@D@std@@V?$allocator@D@2@@std@@V12@@std@@PAX@1@AAPAU21@@Z 10053a70 f i StructDictLib:ItemsContainer.obj
 0001:00052ad0       ??$construct@PAU?$_Tree_node@U?$pair@$$CBV?$basic_string@DU?$char_traits@D@std@@V?$allocator@D@2@@std@@V12@@std@@PAX@std@@AAPAU12@@?$allocator@U?$_Tree_node@U?$pair@$$CBV?$basic_string@DU?$char_traits@D@std@@V?$allocator@D@2@@std@@V12@@std@@PAX@std@@@std@@QAEXPAPAU?$_Tree_node@U?$pair@$$CBV?$basic_string@DU?$char_traits@D@std@@V?$allocator@D@2@@std@@V12@@std@@PAX@1@AAPAU21@@Z 10053ad0 f i StructDictLib:ItemsContainer.obj
 0001:00052ba0       ??$construct@PAU?$_Tree_node@U?$pair@$$CBV?$basic_string@DU?$char_traits@D@std@@V?$allocator@D@2@@std@@V12@@std@@PAX@std@@AAPAU12@@?$allocator_traits@V?$allocator@U?$_Tree_node@U?$pair@$$CBV?$basic_string@DU?$char_traits@D@std@@V?$allocator@D@2@@std@@V12@@std@@PAX@std@@@std@@@std@@SAXAAV?$allocator@U?$_Tree_node@U?$pair@$$CBV?$basic_string@DU?$char_traits@D@std@@V?$allocator@D@2@@std@@V12@@std@@PAX@std@@@1@PAPAU?$_Tree_node@U?$pair@$$CBV?$basic_string@DU?$char_traits@D@std@@V?$allocator@D@2@@std@@V12@@std@@PAX@1@AAPAU31@@Z 10053ba0 f i StructDictLib:ItemsContainer.obj
 0001:00052bf0       ??$construct@U?$pair@$$CBV?$basic_string@DU?$char_traits@D@std@@V?$allocator@D@2@@std@@V12@@std@@ABUpiecewise_construct_t@2@V?$tuple@$$QAV?$basic_string@DU?$char_traits@D@std@@V?$allocator@D@2@@std@@@2@V?$tuple@$$$V@2@@?$_Wrap_alloc@V?$allocator@U?$_Tree_node@U?$pair@$$CBV?$basic_string@DU?$char_traits@D@std@@V?$allocator@D@2@@std@@V12@@std@@PAX@std@@@std@@@std@@QAEXPAU?$pair@$$CBV?$basic_string@DU?$char_traits@D@std@@V?$allocator@D@2@@std@@V12@@1@ABUpiecewise_construct_t@1@$$QAV?$tuple@$$QAV?$basic_string@DU?$char_traits@D@std@@V?$allocator@D@2@@std@@@1@$$QAV?$tuple@$$$V@1@@Z 10053bf0 f i StructDictLib:ItemsContainer.obj
 0001:00052c60       ??$construct@U?$pair@$$CBV?$basic_string@DU?$char_traits@D@std@@V?$allocator@D@2@@std@@V12@@std@@ABUpiecewise_construct_t@2@V?$tuple@$$QAV?$basic_string@DU?$char_traits@D@std@@V?$allocator@D@2@@std@@@2@V?$tuple@$$$V@2@@?$allocator@U?$_Tree_node@U?$pair@$$CBV?$basic_string@DU?$char_traits@D@std@@V?$allocator@D@2@@std@@V12@@std@@PAX@std@@@std@@QAEXPAU?$pair@$$CBV?$basic_string@DU?$char_traits@D@std@@V?$allocator@D@2@@std@@V12@@1@ABUpiecewise_construct_t@1@$$QAV?$tuple@$$QAV?$basic_string@DU?$char_traits@D@std@@V?$allocator@D@2@@std@@@1@$$QAV?$tuple@$$$V@1@@Z 10053c60 f i StructDictLib:ItemsContainer.obj
 0001:00052d60       ??$construct@U?$pair@$$CBV?$basic_string@DU?$char_traits@D@std@@V?$allocator@D@2@@std@@V12@@std@@ABUpiecewise_construct_t@2@V?$tuple@$$QAV?$basic_string@DU?$char_traits@D@std@@V?$allocator@D@2@@std@@@2@V?$tuple@$$$V@2@@?$allocator_traits@V?$allocator@U?$_Tree_node@U?$pair@$$CBV?$basic_string@DU?$char_traits@D@std@@V?$allocator@D@2@@std@@V12@@std@@PAX@std@@@std@@@std@@SAXAAV?$allocator@U?$_Tree_node@U?$pair@$$CBV?$basic_string@DU?$char_traits@D@std@@V?$allocator@D@2@@std@@V12@@std@@PAX@std@@@1@PAU?$pair@$$CBV?$basic_string@DU?$char_traits@D@std@@V?$allocator@D@2@@std@@V12@@1@ABUpiecewise_construct_t@1@$$QAV?$tuple@$$QAV?$basic_string@DU?$char_traits@D@std@@V?$allocator@D@2@@std@@@1@$$QAV?$tuple@$$$V@1@@Z 10053d60 f i StructDictLib:ItemsContainer.obj
 0001:00052dd0       ??$construct@UCDomen@@AAU1@@?$_Wrap_alloc@V?$allocator@UCDomen@@@std@@@std@@QAEXPAUCDomen@@AAU2@@Z 10053dd0 f i StructDictLib:ItemsContainer.obj
 0001:00052e30       ??$construct@UCDomen@@AAU1@@?$allocator@UCDomen@@@std@@QAEXPAUCDomen@@AAU2@@Z 10053e30 f i StructDictLib:ItemsContainer.obj
 0001:00052f00       ??$construct@UCDomen@@AAU1@@?$allocator_traits@V?$allocator@UCDomen@@@std@@@std@@SAXAAV?$allocator@UCDomen@@@1@PAUCDomen@@AAU3@@Z 10053f00 f i StructDictLib:ItemsContainer.obj
 0001:00052f50       ??$construct@UCDomen@@ABU1@@?$_Wrap_alloc@V?$allocator@UCDomen@@@std@@@std@@QAEXPAUCDomen@@ABU2@@Z 10053f50 f i StructDictLib:ItemsContainer.obj
 0001:00052fb0       ??$construct@UCDomen@@ABU1@@?$allocator_traits@V?$allocator@UCDomen@@@std@@@std@@SAXAAV?$allocator@UCDomen@@@1@PAUCDomen@@ABU3@@Z 10053fb0 f i StructDictLib:ItemsContainer.obj
 0001:00053000       ??$construct@UCDomen@@U1@@?$_Wrap_alloc@V?$allocator@UCDomen@@@std@@@std@@QAEXPAUCDomen@@$$QAU2@@Z 10054000 f i StructDictLib:ItemsContainer.obj
 0001:00053060       ??$construct@UCDomen@@U1@@?$allocator@UCDomen@@@std@@QAEXPAUCDomen@@$$QAU2@@Z 10054060 f i StructDictLib:ItemsContainer.obj
 0001:00053130       ??$construct@UCDomen@@U1@@?$allocator_traits@V?$allocator@UCDomen@@@std@@@std@@SAXAAV?$allocator@UCDomen@@@1@PAUCDomen@@$$QAU3@@Z 10054130 f i StructDictLib:ItemsContainer.obj
 0001:00053180       ??$construct@UCField@@$$$V@?$allocator_traits@V?$allocator@UCField@@@std@@@std@@SAXAAV?$allocator@UCField@@@1@PAUCField@@@Z 10054180 f i StructDictLib:ItemsContainer.obj
 0001:000531c0       ??$construct@UCField@@U1@@?$_Wrap_alloc@V?$allocator@UCField@@@std@@@std@@QAEXPAUCField@@$$QAU2@@Z 100541c0 f i StructDictLib:ItemsContainer.obj
 0001:00053220       ??$construct@UCField@@U1@@?$allocator@UCField@@@std@@QAEXPAUCField@@$$QAU2@@Z 10054220 f i StructDictLib:ItemsContainer.obj
 0001:000532f0       ??$construct@UCField@@U1@@?$allocator_traits@V?$allocator@UCField@@@std@@@std@@SAXAAV?$allocator@UCField@@@1@PAUCField@@$$QAU3@@Z 100542f0 f i StructDictLib:ItemsContainer.obj
 0001:00053340       ??$construct@UTDomItem@@AAU1@@?$_Wrap_alloc@V?$allocator@UTDomItem@@@std@@@std@@QAEXPAUTDomItem@@AAU2@@Z 10054340 f i StructDictLib:ItemsContainer.obj
 0001:000533a0       ??$construct@UTDomItem@@AAU1@@?$allocator@UTDomItem@@@std@@QAEXPAUTDomItem@@AAU2@@Z 100543a0 f i StructDictLib:ItemsContainer.obj
 0001:00053470       ??$construct@UTDomItem@@AAU1@@?$allocator_traits@V?$allocator@UTDomItem@@@std@@@std@@SAXAAV?$allocator@UTDomItem@@@1@PAUTDomItem@@AAU3@@Z 10054470 f i StructDictLib:ItemsContainer.obj
 0001:000534c0       ??$construct@UTDomItem@@ABU1@@?$_Wrap_alloc@V?$allocator@UTDomItem@@@std@@@std@@QAEXPAUTDomItem@@ABU2@@Z 100544c0 f i StructDictLib:ItemsContainer.obj
 0001:00053520       ??$construct@UTDomItem@@ABU1@@?$allocator_traits@V?$allocator@UTDomItem@@@std@@@std@@SAXAAV?$allocator@UTDomItem@@@1@PAUTDomItem@@ABU3@@Z 10054520 f i StructDictLib:ItemsContainer.obj
 0001:00053570       ??$construct@UTDomItem@@U1@@?$_Wrap_alloc@V?$allocator@UTDomItem@@@std@@@std@@QAEXPAUTDomItem@@$$QAU2@@Z 10054570 f i StructDictLib:ItemsContainer.obj
 0001:000535d0       ??$construct@UTDomItem@@U1@@?$allocator@UTDomItem@@@std@@QAEXPAUTDomItem@@$$QAU2@@Z 100545d0 f i StructDictLib:ItemsContainer.obj
 0001:000536a0       ??$construct@UTDomItem@@U1@@?$allocator_traits@V?$allocator@UTDomItem@@@std@@@std@@SAXAAV?$allocator@UTDomItem@@@1@PAUTDomItem@@$$QAU3@@Z 100546a0 f i StructDictLib:ItemsContainer.obj
 0001:000536f0       ??$destroy@PAU?$_Tree_node@U?$pair@$$CBV?$basic_string@DU?$char_traits@D@std@@V?$allocator@D@2@@std@@V12@@std@@PAX@std@@@?$_Wrap_alloc@V?$allocator@U?$_Tree_node@U?$pair@$$CBV?$basic_string@DU?$char_traits@D@std@@V?$allocator@D@2@@std@@V12@@std@@PAX@std@@@std@@@std@@QAEXPAPAU?$_Tree_node@U?$pair@$$CBV?$basic_string@DU?$char_traits@D@std@@V?$allocator@D@2@@std@@V12@@std@@PAX@1@@Z 100546f0 f i StructDictLib:ItemsContainer.obj
 0001:00053740       ??$destroy@PAU?$_Tree_node@U?$pair@$$CBV?$basic_string@DU?$char_traits@D@std@@V?$allocator@D@2@@std@@V12@@std@@PAX@std@@@?$allocator@U?$_Tree_node@U?$pair@$$CBV?$basic_string@DU?$char_traits@D@std@@V?$allocator@D@2@@std@@V12@@std@@PAX@std@@@std@@QAEXPAPAU?$_Tree_node@U?$pair@$$CBV?$basic_string@DU?$char_traits@D@std@@V?$allocator@D@2@@std@@V12@@std@@PAX@1@@Z 10054740 f i StructDictLib:ItemsContainer.obj
 0001:00053770       ??$destroy@PAU?$_Tree_node@U?$pair@$$CBV?$basic_string@DU?$char_traits@D@std@@V?$allocator@D@2@@std@@V12@@std@@PAX@std@@@?$allocator_traits@V?$allocator@U?$_Tree_node@U?$pair@$$CBV?$basic_string@DU?$char_traits@D@std@@V?$allocator@D@2@@std@@V12@@std@@PAX@std@@@std@@@std@@SAXAAV?$allocator@U?$_Tree_node@U?$pair@$$CBV?$basic_string@DU?$char_traits@D@std@@V?$allocator@D@2@@std@@V12@@std@@PAX@std@@@1@PAPAU?$_Tree_node@U?$pair@$$CBV?$basic_string@DU?$char_traits@D@std@@V?$allocator@D@2@@std@@V12@@std@@PAX@1@@Z 10054770 f i StructDictLib:ItemsContainer.obj
 0001:000537b0       ??$destroy@U?$pair@$$CBV?$basic_string@DU?$char_traits@D@std@@V?$allocator@D@2@@std@@V12@@std@@@?$_Wrap_alloc@V?$allocator@U?$_Tree_node@U?$pair@$$CBV?$basic_string@DU?$char_traits@D@std@@V?$allocator@D@2@@std@@V12@@std@@PAX@std@@@std@@@std@@QAEXPAU?$pair@$$CBV?$basic_string@DU?$char_traits@D@std@@V?$allocator@D@2@@std@@V12@@1@@Z 100547b0 f i StructDictLib:ItemsContainer.obj
 0001:00053800       ??$destroy@U?$pair@$$CBV?$basic_string@DU?$char_traits@D@std@@V?$allocator@D@2@@std@@V12@@std@@@?$allocator@U?$_Tree_node@U?$pair@$$CBV?$basic_string@DU?$char_traits@D@std@@V?$allocator@D@2@@std@@V12@@std@@PAX@std@@@std@@QAEXPAU?$pair@$$CBV?$basic_string@DU?$char_traits@D@std@@V?$allocator@D@2@@std@@V12@@1@@Z 10054800 f i StructDictLib:ItemsContainer.obj
 0001:00053850       ??$destroy@U?$pair@$$CBV?$basic_string@DU?$char_traits@D@std@@V?$allocator@D@2@@std@@V12@@std@@@?$allocator_traits@V?$allocator@U?$_Tree_node@U?$pair@$$CBV?$basic_string@DU?$char_traits@D@std@@V?$allocator@D@2@@std@@V12@@std@@PAX@std@@@std@@@std@@SAXAAV?$allocator@U?$_Tree_node@U?$pair@$$CBV?$basic_string@DU?$char_traits@D@std@@V?$allocator@D@2@@std@@V12@@std@@PAX@std@@@1@PAU?$pair@$$CBV?$basic_string@DU?$char_traits@D@std@@V?$allocator@D@2@@std@@V12@@1@@Z 10054850 f i StructDictLib:ItemsContainer.obj
 0001:00053890       ??$destroy@UCDomen@@@?$_Wrap_alloc@V?$allocator@UCDomen@@@std@@@std@@QAEXPAUCDomen@@@Z 10054890 f i StructDictLib:ItemsContainer.obj
 0001:000538e0       ??$destroy@UCDomen@@@?$allocator@UCDomen@@@std@@QAEXPAUCDomen@@@Z 100548e0 f i StructDictLib:ItemsContainer.obj
 0001:00053930       ??$destroy@UCDomen@@@?$allocator_traits@V?$allocator@UCDomen@@@std@@@std@@SAXAAV?$allocator@UCDomen@@@1@PAUCDomen@@@Z 10054930 f i StructDictLib:ItemsContainer.obj
 0001:00053970       ??$destroy@UCField@@@?$_Wrap_alloc@V?$allocator@UCField@@@std@@@std@@QAEXPAUCField@@@Z 10054970 f i StructDictLib:ItemsContainer.obj
 0001:000539c0       ??$destroy@UCField@@@?$allocator@UCField@@@std@@QAEXPAUCField@@@Z 100549c0 f i StructDictLib:ItemsContainer.obj
 0001:00053a10       ??$destroy@UCField@@@?$allocator_traits@V?$allocator@UCField@@@std@@@std@@SAXAAV?$allocator@UCField@@@1@PAUCField@@@Z 10054a10 f i StructDictLib:ItemsContainer.obj
 0001:00053a50       ??$destroy@UTDomItem@@@?$_Wrap_alloc@V?$allocator@UTDomItem@@@std@@@std@@QAEXPAUTDomItem@@@Z 10054a50 f i StructDictLib:ItemsContainer.obj
 0001:00053aa0       ??$destroy@UTDomItem@@@?$allocator@UTDomItem@@@std@@QAEXPAUTDomItem@@@Z 10054aa0 f i StructDictLib:ItemsContainer.obj
 0001:00053ad0       ??$destroy@UTDomItem@@@?$allocator_traits@V?$allocator@UTDomItem@@@std@@@std@@SAXAAV?$allocator@UTDomItem@@@1@PAUTDomItem@@@Z 10054ad0 f i StructDictLib:ItemsContainer.obj
 0001:00053b10       ??$emplace_hint@ABUpiecewise_construct_t@std@@V?$tuple@$$QAV?$basic_string@DU?$char_traits@D@std@@V?$allocator@D@2@@std@@@2@V?$tuple@$$$V@2@@?$_Tree@V?$_Tmap_traits@V?$basic_string@DU?$char_traits@D@std@@V?$allocator@D@2@@std@@V12@U?$less@V?$basic_string@DU?$char_traits@D@std@@V?$allocator@D@2@@std@@@2@V?$allocator@U?$pair@$$CBV?$basic_string@DU?$char_traits@D@std@@V?$allocator@D@2@@std@@V12@@std@@@2@$0A@@std@@@std@@QAE?AV?$_Tree_iterator@V?$_Tree_val@U?$_Tree_simple_types@U?$pair@$$CBV?$basic_string@DU?$char_traits@D@std@@V?$allocator@D@2@@std@@V12@@std@@@std@@@std@@@1@V?$_Tree_const_iterator@V?$_Tree_val@U?$_Tree_simple_types@U?$pair@$$CBV?$basic_string@DU?$char_traits@D@std@@V?$allocator@D@2@@std@@V12@@std@@@std@@@std@@@1@ABUpiecewise_construct_t@1@$$QAV?$tuple@$$QAV?$basic_string@DU?$char_traits@D@std@@V?$allocator@D@2@@std@@@1@$$QAV?$tuple@$$$V@1@@Z 10054b10 f i StructDictLib:ItemsContainer.obj
 0001:00053c20       ??$forward@$$QAV?$basic_string@DU?$char_traits@D@std@@V?$allocator@D@2@@std@@@std@@YA$$QAV?$basic_string@DU?$char_traits@D@std@@V?$allocator@D@2@@0@AAV10@@Z 10054c20 f i StructDictLib:ItemsContainer.obj
 0001:00053c50       ??$forward@AAE@std@@YAAAEAAE@Z 10054c50 f i StructDictLib:ItemsContainer.obj
 0001:00053c80       ??$forward@AAPAU?$_Tree_node@U?$pair@$$CBV?$basic_string@DU?$char_traits@D@std@@V?$allocator@D@2@@std@@V12@@std@@PAX@std@@@std@@YAAAPAU?$_Tree_node@U?$pair@$$CBV?$basic_string@DU?$char_traits@D@std@@V?$allocator@D@2@@std@@V12@@std@@PAX@0@AAPAU10@@Z 10054c80 f i StructDictLib:ItemsContainer.obj
 0001:00053cb0       ??$forward@AAPAUCSignat@@@std@@YAAAPAUCSignat@@AAPAU1@@Z 10054cb0 f i StructDictLib:ItemsContainer.obj
 0001:00053ce0       ??$forward@AAU?$pair@$$CBV?$basic_string@DU?$char_traits@D@std@@V?$allocator@D@2@@std@@V12@@std@@@std@@YAAAU?$pair@$$CBV?$basic_string@DU?$char_traits@D@std@@V?$allocator@D@2@@std@@V12@@0@AAU10@@Z 10054ce0 f i StructDictLib:ItemsContainer.obj
 0001:00053d10       ??$forward@AAUCDomen@@@std@@YAAAUCDomen@@AAU1@@Z 10054d10 f i StructDictLib:ItemsContainer.obj
 0001:00053d40       ??$forward@AAUTDomItem@@@std@@YAAAUTDomItem@@AAU1@@Z 10054d40 f i StructDictLib:ItemsContainer.obj
 0001:00053d70       ??$forward@AAV?$_Tree_iterator@V?$_Tree_val@U?$_Tree_simple_types@U?$pair@$$CBV?$basic_string@DU?$char_traits@D@std@@V?$allocator@D@2@@std@@V12@@std@@@std@@@std@@@std@@@std@@YAAAV?$_Tree_iterator@V?$_Tree_val@U?$_Tree_simple_types@U?$pair@$$CBV?$basic_string@DU?$char_traits@D@std@@V?$allocator@D@2@@std@@V12@@std@@@std@@@std@@@0@AAV10@@Z 10054d70 f i StructDictLib:ItemsContainer.obj
 0001:00053da0       ??$forward@ABE@std@@YAABEABE@Z 10054da0 f i StructDictLib:ItemsContainer.obj
 0001:00053dd0       ??$forward@ABUCDomen@@@std@@YAABUCDomen@@ABU1@@Z 10054dd0 f i StructDictLib:ItemsContainer.obj
 0001:00053e00       ??$forward@ABUTDomItem@@@std@@YAABUTDomItem@@ABU1@@Z 10054e00 f i StructDictLib:ItemsContainer.obj
 0001:00053e30       ??$forward@UCDomen@@@std@@YA$$QAUCDomen@@AAU1@@Z 10054e30 f i StructDictLib:ItemsContainer.obj
 0001:00053e60       ??$forward@UCField@@@std@@YA$$QAUCField@@AAU1@@Z 10054e60 f i StructDictLib:ItemsContainer.obj
 0001:00053e90       ??$forward@UTDomItem@@@std@@YA$$QAUTDomItem@@AAU1@@Z 10054e90 f i StructDictLib:ItemsContainer.obj
 0001:00053ec0       ??$forward@V?$_Tree_iterator@V?$_Tree_val@U?$_Tree_simple_types@U?$pair@$$CBV?$basic_string@DU?$char_traits@D@std@@V?$allocator@D@2@@std@@V12@@std@@@std@@@std@@@std@@@std@@YA$$QAV?$_Tree_iterator@V?$_Tree_val@U?$_Tree_simple_types@U?$pair@$$CBV?$basic_string@DU?$char_traits@D@std@@V?$allocator@D@2@@std@@V12@@std@@@std@@@std@@@0@AAV10@@Z 10054ec0 f i StructDictLib:ItemsContainer.obj
 0001:00053ef0       ??$forward@V?$tuple@$$QAV?$basic_string@DU?$char_traits@D@std@@V?$allocator@D@2@@std@@@std@@@std@@YA$$QAV?$tuple@$$QAV?$basic_string@DU?$char_traits@D@std@@V?$allocator@D@2@@std@@@0@AAV10@@Z 10054ef0 f i StructDictLib:ItemsContainer.obj
 0001:00053f20       ??$forward_as_tuple@V?$basic_string@DU?$char_traits@D@std@@V?$allocator@D@2@@std@@@std@@YA?AV?$tuple@$$QAV?$basic_string@DU?$char_traits@D@std@@V?$allocator@D@2@@std@@@0@$$QAV?$basic_string@DU?$char_traits@D@std@@V?$allocator@D@2@@0@@Z 10054f20 f i StructDictLib:ItemsContainer.obj
 0001:00053f70       ??$get@$0A@$$QAV?$basic_string@DU?$char_traits@D@std@@V?$allocator@D@2@@std@@@std@@YA$$QAV?$basic_string@DU?$char_traits@D@std@@V?$allocator@D@2@@0@$$QAV?$tuple@$$QAV?$basic_string@DU?$char_traits@D@std@@V?$allocator@D@2@@std@@@0@@Z 10054f70 f i StructDictLib:ItemsContainer.obj
 0001:00053fb0       ??$iter_swap@PAUCSignat@@PAU1@@std@@YAXPAUCSignat@@0@Z 10054fb0 f i StructDictLib:ItemsContainer.obj
 0001:00054000       ??$lower_bound@V?$_Vector_const_iterator@V?$_Vector_val@U?$_Simple_types@UTDomItem@@@std@@@std@@@std@@UTDomNoItemStr@@VIsLessByNotStableItemStrNew@@@std@@YA?AV?$_Vector_const_iterator@V?$_Vector_val@U?$_Simple_types@UTDomItem@@@std@@@std@@@0@V10@0ABUTDomNoItemStr@@VIsLessByNotStableItemStrNew@@@Z 10055000 f i StructDictLib:ItemsContainer.obj
 0001:00054160       ??$make_heap@PAUCSignat@@U?$less@X@std@@@std@@YAXPAUCSignat@@0U?$less@X@0@@Z 10055160 f i StructDictLib:ItemsContainer.obj
 0001:00054220       ??$move@AAUCSignat@@@std@@YA$$QAUCSignat@@AAU1@@Z 10055220 f i StructDictLib:ItemsContainer.obj
 0001:00054250       ??$move@AAV?$tuple@$$QAV?$basic_string@DU?$char_traits@D@std@@V?$allocator@D@2@@std@@@std@@@std@@YA$$QAV?$tuple@$$QAV?$basic_string@DU?$char_traits@D@std@@V?$allocator@D@2@@std@@@0@AAV10@@Z 10055250 f i StructDictLib:ItemsContainer.obj
 0001:00054280       ??$sort@V?$_Vector_iterator@V?$_Vector_val@U?$_Simple_types@UCSignat@@@std@@@std@@@std@@@std@@YAXV?$_Vector_iterator@V?$_Vector_val@U?$_Simple_types@UCSignat@@@std@@@std@@@0@0@Z 10055280 f i StructDictLib:ItemsContainer.obj
 0001:00054360       ??$sort@V?$_Vector_iterator@V?$_Vector_val@U?$_Simple_types@UCSignat@@@std@@@std@@@std@@U?$less@X@2@@std@@YAXV?$_Vector_iterator@V?$_Vector_val@U?$_Simple_types@UCSignat@@@std@@@std@@@0@0U?$less@X@0@@Z 10055360 f i StructDictLib:ItemsContainer.obj
 0001:000544d0       ??$sort_heap@PAUCSignat@@U?$less@X@std@@@std@@YAXPAUCSignat@@0U?$less@X@0@@Z 100554d0 f i StructDictLib:ItemsContainer.obj
 0001:00054580       ??$swap@UCSignat@@@std@@YAXAAUCSignat@@0@Z 10055580 f i StructDictLib:ItemsContainer.obj
 0001:00054680       ??0?$_Iterator012@Ubidirectional_iterator_tag@std@@U?$pair@$$CBV?$basic_string@DU?$char_traits@D@std@@V?$allocator@D@2@@std@@V12@@2@HPBU32@ABU32@U_Iterator_base12@2@@std@@QAE@ABU01@@Z 10055680 f i StructDictLib:ItemsContainer.obj
 0001:000546d0       ??0?$_Iterator012@Ubidirectional_iterator_tag@std@@U?$pair@$$CBV?$basic_string@DU?$char_traits@D@std@@V?$allocator@D@2@@std@@V12@@2@HPBU32@ABU32@U_Iterator_base12@2@@std@@QAE@XZ 100556d0 f i StructDictLib:ItemsContainer.obj
 0001:00054720       ??0?$_Iterator012@Urandom_access_iterator_tag@std@@UCSignat@@HPBU3@ABU3@U_Iterator_base12@2@@std@@QAE@ABU01@@Z 10055720 f i StructDictLib:ItemsContainer.obj
 0001:00054770       ??0?$_Iterator012@Urandom_access_iterator_tag@std@@UCSignat@@HPBU3@ABU3@U_Iterator_base12@2@@std@@QAE@XZ 10055770 f i StructDictLib:ItemsContainer.obj
 0001:000547c0       ??0?$_Iterator012@Urandom_access_iterator_tag@std@@UTDomItem@@HPBU3@ABU3@U_Iterator_base12@2@@std@@QAE@ABU01@@Z 100557c0 f i StructDictLib:ItemsContainer.obj
 0001:00054810       ??0?$_Iterator012@Urandom_access_iterator_tag@std@@UTDomItem@@HPBU3@ABU3@U_Iterator_base12@2@@std@@QAE@XZ 10055810 f i StructDictLib:ItemsContainer.obj
 0001:00054860       ??0?$_Tree@V?$_Tmap_traits@V?$basic_string@DU?$char_traits@D@std@@V?$allocator@D@2@@std@@V12@U?$less@V?$basic_string@DU?$char_traits@D@std@@V?$allocator@D@2@@std@@@2@V?$allocator@U?$pair@$$CBV?$basic_string@DU?$char_traits@D@std@@V?$allocator@D@2@@std@@V12@@std@@@2@$0A@@std@@@std@@QAE@ABU?$less@V?$basic_string@DU?$char_traits@D@std@@V?$allocator@D@2@@std@@@1@ABV?$allocator@U?$pair@$$CBV?$basic_string@DU?$char_traits@D@std@@V?$allocator@D@2@@std@@V12@@std@@@1@@Z 10055860 f i StructDictLib:ItemsContainer.obj
 0001:000548b0       ??0?$_Tree_alloc@$0A@U?$_Tree_base_types@U?$pair@$$CBV?$basic_string@DU?$char_traits@D@std@@V?$allocator@D@2@@std@@V12@@std@@V?$allocator@U?$pair@$$CBV?$basic_string@DU?$char_traits@D@std@@V?$allocator@D@2@@std@@V12@@std@@@2@@std@@@std@@QAE@ABV?$allocator@U?$pair@$$CBV?$basic_string@DU?$char_traits@D@std@@V?$allocator@D@2@@std@@V12@@std@@@1@@Z 100558b0 f i StructDictLib:ItemsContainer.obj
 0001:00054980       ??0?$_Tree_buy@U?$pair@$$CBV?$basic_string@DU?$char_traits@D@std@@V?$allocator@D@2@@std@@V12@@std@@V?$allocator@U?$pair@$$CBV?$basic_string@DU?$char_traits@D@std@@V?$allocator@D@2@@std@@V12@@std@@@2@@std@@QAE@ABV?$allocator@U?$pair@$$CBV?$basic_string@DU?$char_traits@D@std@@V?$allocator@D@2@@std@@V12@@std@@@1@@Z 10055980 f i StructDictLib:ItemsContainer.obj
 0001:000549d0       ??0?$_Tree_comp@$0A@V?$_Tmap_traits@V?$basic_string@DU?$char_traits@D@std@@V?$allocator@D@2@@std@@V12@U?$less@V?$basic_string@DU?$char_traits@D@std@@V?$allocator@D@2@@std@@@2@V?$allocator@U?$pair@$$CBV?$basic_string@DU?$char_traits@D@std@@V?$allocator@D@2@@std@@V12@@std@@@2@$0A@@std@@@std@@QAE@ABU?$less@V?$basic_string@DU?$char_traits@D@std@@V?$allocator@D@2@@std@@@1@ABV?$allocator@U?$pair@$$CBV?$basic_string@DU?$char_traits@D@std@@V?$allocator@D@2@@std@@V12@@std@@@1@@Z 100559d0 f i StructDictLib:ItemsContainer.obj
 0001:00054a20       ??0?$_Tree_const_iterator@V?$_Tree_val@U?$_Tree_simple_types@U?$pair@$$CBV?$basic_string@DU?$char_traits@D@std@@V?$allocator@D@2@@std@@V12@@std@@@std@@@std@@@std@@QAE@ABV01@@Z 10055a20 f i StructDictLib:ItemsContainer.obj
 0001:00054a70       ??0?$_Tree_const_iterator@V?$_Tree_val@U?$_Tree_simple_types@U?$pair@$$CBV?$basic_string@DU?$char_traits@D@std@@V?$allocator@D@2@@std@@V12@@std@@@std@@@std@@@std@@QAE@PAU?$_Tree_node@U?$pair@$$CBV?$basic_string@DU?$char_traits@D@std@@V?$allocator@D@2@@std@@V12@@std@@PAX@1@PBV?$_Tree_val@U?$_Tree_simple_types@U?$pair@$$CBV?$basic_string@DU?$char_traits@D@std@@V?$allocator@D@2@@std@@V12@@std@@@std@@@1@@Z 10055a70 f i StructDictLib:ItemsContainer.obj
 0001:00054ac0       ??0?$_Tree_const_iterator@V?$_Tree_val@U?$_Tree_simple_types@U?$pair@$$CBV?$basic_string@DU?$char_traits@D@std@@V?$allocator@D@2@@std@@V12@@std@@@std@@@std@@@std@@QAE@XZ 10055ac0 f i StructDictLib:ItemsContainer.obj
 0001:00054b10       ??0?$_Tree_iterator@V?$_Tree_val@U?$_Tree_simple_types@U?$pair@$$CBV?$basic_string@DU?$char_traits@D@std@@V?$allocator@D@2@@std@@V12@@std@@@std@@@std@@@std@@QAE@ABV01@@Z 10055b10 f i StructDictLib:ItemsContainer.obj
 0001:00054b60       ??0?$_Tree_iterator@V?$_Tree_val@U?$_Tree_simple_types@U?$pair@$$CBV?$basic_string@DU?$char_traits@D@std@@V?$allocator@D@2@@std@@V12@@std@@@std@@@std@@@std@@QAE@PAU?$_Tree_node@U?$pair@$$CBV?$basic_string@DU?$char_traits@D@std@@V?$allocator@D@2@@std@@V12@@std@@PAX@1@PBV?$_Tree_val@U?$_Tree_simple_types@U?$pair@$$CBV?$basic_string@DU?$char_traits@D@std@@V?$allocator@D@2@@std@@V12@@std@@@std@@@1@@Z 10055b60 f i StructDictLib:ItemsContainer.obj
 0001:00054bb0       ??0?$_Tree_unchecked_const_iterator@V?$_Tree_val@U?$_Tree_simple_types@U?$pair@$$CBV?$basic_string@DU?$char_traits@D@std@@V?$allocator@D@2@@std@@V12@@std@@@std@@@std@@U_Iterator_base12@2@@std@@QAE@ABV01@@Z 10055bb0 f i StructDictLib:ItemsContainer.obj
 0001:00054c10       ??0?$_Tree_unchecked_const_iterator@V?$_Tree_val@U?$_Tree_simple_types@U?$pair@$$CBV?$basic_string@DU?$char_traits@D@std@@V?$allocator@D@2@@std@@V12@@std@@@std@@@std@@U_Iterator_base12@2@@std@@QAE@PAU?$_Tree_node@U?$pair@$$CBV?$basic_string@DU?$char_traits@D@std@@V?$allocator@D@2@@std@@V12@@std@@PAX@1@PBV?$_Tree_val@U?$_Tree_simple_types@U?$pair@$$CBV?$basic_string@DU?$char_traits@D@std@@V?$allocator@D@2@@std@@V12@@std@@@std@@@1@@Z 10055c10 f i StructDictLib:ItemsContainer.obj
 0001:00054cb0       ??0?$_Tree_unchecked_const_iterator@V?$_Tree_val@U?$_Tree_simple_types@U?$pair@$$CBV?$basic_string@DU?$char_traits@D@std@@V?$allocator@D@2@@std@@V12@@std@@@std@@@std@@U_Iterator_base12@2@@std@@QAE@XZ 10055cb0 f i StructDictLib:ItemsContainer.obj
 0001:00054d00       ??0?$_Tree_val@U?$_Tree_simple_types@U?$pair@$$CBV?$basic_string@DU?$char_traits@D@std@@V?$allocator@D@2@@std@@V12@@std@@@std@@@std@@QAE@XZ 10055d00 f i StructDictLib:ItemsContainer.obj
 0001:00054d60       ??0?$_Vector_alloc@$0A@U?$_Vec_base_types@UCDomen@@V?$allocator@UCDomen@@@std@@@std@@@std@@QAE@ABV?$allocator@UCDomen@@@1@@Z 10055d60 f i StructDictLib:ItemsContainer.obj
 0001:00054df0       ??0?$_Vector_alloc@$0A@U?$_Vec_base_types@UCField@@V?$allocator@UCField@@@std@@@std@@@std@@QAE@ABV?$allocator@UCField@@@1@@Z 10055df0 f i StructDictLib:ItemsContainer.obj
 0001:00054e80       ??0?$_Vector_alloc@$0A@U?$_Vec_base_types@UCSignat@@V?$allocator@UCSignat@@@std@@@std@@@std@@QAE@ABV?$allocator@UCSignat@@@1@@Z 10055e80 f i StructDictLib:ItemsContainer.obj
 0001:00054f10       ??0?$_Vector_alloc@$0A@U?$_Vec_base_types@UTDomItem@@V?$allocator@UTDomItem@@@std@@@std@@@std@@QAE@ABV?$allocator@UTDomItem@@@1@@Z 10055f10 f i StructDictLib:ItemsContainer.obj
 0001:00054fa0       ??0?$_Vector_const_iterator@V?$_Vector_val@U?$_Simple_types@UCSignat@@@std@@@std@@@std@@QAE@ABV01@@Z 10055fa0 f i StructDictLib:ItemsContainer.obj
 0001:00055000       ??0?$_Vector_const_iterator@V?$_Vector_val@U?$_Simple_types@UCSignat@@@std@@@std@@@std@@QAE@PAUCSignat@@PBU_Container_base12@1@@Z 10056000 f i StructDictLib:ItemsContainer.obj
 0001:000550a0       ??0?$_Vector_const_iterator@V?$_Vector_val@U?$_Simple_types@UTDomItem@@@std@@@std@@@std@@QAE@ABV01@@Z 100560a0 f i StructDictLib:ItemsContainer.obj
 0001:00055100       ??0?$_Vector_const_iterator@V?$_Vector_val@U?$_Simple_types@UTDomItem@@@std@@@std@@@std@@QAE@PAUTDomItem@@PBU_Container_base12@1@@Z 10056100 f i StructDictLib:ItemsContainer.obj
 0001:000551a0       ??0?$_Vector_iterator@V?$_Vector_val@U?$_Simple_types@UCSignat@@@std@@@std@@@std@@QAE@ABV01@@Z 100561a0 f i StructDictLib:ItemsContainer.obj
 0001:000551f0       ??0?$_Vector_iterator@V?$_Vector_val@U?$_Simple_types@UCSignat@@@std@@@std@@@std@@QAE@PAUCSignat@@PBU_Container_base12@1@@Z 100561f0 f i StructDictLib:ItemsContainer.obj
 0001:00055240       ??0?$_Vector_val@U?$_Simple_types@UCDomen@@@std@@@std@@QAE@XZ 10056240 f i StructDictLib:ItemsContainer.obj
 0001:000552b0       ??0?$_Vector_val@U?$_Simple_types@UCField@@@std@@@std@@QAE@XZ 100562b0 f i StructDictLib:ItemsContainer.obj
 0001:00055320       ??0?$_Vector_val@U?$_Simple_types@UCSignat@@@std@@@std@@QAE@XZ 10056320 f i StructDictLib:ItemsContainer.obj
 0001:00055390       ??0?$_Vector_val@U?$_Simple_types@UTDomItem@@@std@@@std@@QAE@XZ 10056390 f i StructDictLib:ItemsContainer.obj
 0001:00055400       ??0?$_Wrap_alloc@V?$allocator@U?$_Tree_node@U?$pair@$$CBV?$basic_string@DU?$char_traits@D@std@@V?$allocator@D@2@@std@@V12@@std@@PAX@std@@@std@@@std@@QAE@XZ 10056400 f i StructDictLib:ItemsContainer.obj
 0001:00055450       ??0?$_Wrap_alloc@V?$allocator@UCDomen@@@std@@@std@@QAE@XZ 10056450 f i StructDictLib:ItemsContainer.obj
 0001:000554a0       ??0?$_Wrap_alloc@V?$allocator@UCField@@@std@@@std@@QAE@XZ 100564a0 f i StructDictLib:ItemsContainer.obj
 0001:000554f0       ??0?$_Wrap_alloc@V?$allocator@UCSignat@@@std@@@std@@QAE@ABV?$allocator@UCSignat@@@1@@Z 100564f0 f i StructDictLib:ItemsContainer.obj
 0001:00055540       ??0?$_Wrap_alloc@V?$allocator@UTDomItem@@@std@@@std@@QAE@XZ 10056540 f i StructDictLib:ItemsContainer.obj
 0001:00055590       ??0?$allocator@U?$_Tree_node@U?$pair@$$CBV?$basic_string@DU?$char_traits@D@std@@V?$allocator@D@2@@std@@V12@@std@@PAX@std@@@std@@QAE@XZ 10056590 f i StructDictLib:ItemsContainer.obj
 0001:000555c0       ??0?$allocator@U?$pair@$$CBV?$basic_string@DU?$char_traits@D@std@@V?$allocator@D@2@@std@@V12@@std@@@std@@QAE@XZ 100565c0 f i StructDictLib:ItemsContainer.obj
 0001:000555f0       ??0?$allocator@UCDomen@@@std@@QAE@XZ 100565f0 f i StructDictLib:ItemsContainer.obj
 0001:00055620       ??0?$allocator@UCField@@@std@@QAE@XZ 10056620 f i StructDictLib:ItemsContainer.obj
 0001:00055650       ??0?$allocator@UTDomItem@@@std@@QAE@XZ 10056650 f i StructDictLib:ItemsContainer.obj
 0001:00055680       ??0?$map@V?$basic_string@DU?$char_traits@D@std@@V?$allocator@D@2@@std@@V12@U?$less@V?$basic_string@DU?$char_traits@D@std@@V?$allocator@D@2@@std@@@2@V?$allocator@U?$pair@$$CBV?$basic_string@DU?$char_traits@D@std@@V?$allocator@D@2@@std@@V12@@std@@@2@@std@@QAE@XZ 10056680 f i StructDictLib:ItemsContainer.obj
 0001:000556e0       ??0?$vector@UCDomen@@V?$allocator@UCDomen@@@std@@@std@@QAE@XZ 100566e0 f i StructDictLib:ItemsContainer.obj
 0001:00055730       ??0?$vector@UCField@@V?$allocator@UCField@@@std@@@std@@QAE@XZ 10056730 f i StructDictLib:ItemsContainer.obj
 0001:00055780       ??0?$vector@UCSignat@@V?$allocator@UCSignat@@@std@@@std@@QAE@ABV01@@Z 10056780 f i StructDictLib:ItemsContainer.obj
 0001:000558c0       ??0?$vector@UCSignat@@V?$allocator@UCSignat@@@std@@@std@@QAE@XZ 100568c0 f i StructDictLib:ItemsContainer.obj
 0001:00055910       ??0?$vector@UTDomItem@@V?$allocator@UTDomItem@@@std@@@std@@QAE@XZ 10056910 f i StructDictLib:ItemsContainer.obj
 0001:00055960       ??0CDomen@@QAE@XZ          10056960 f   StructDictLib:ItemsContainer.obj
 0001:000559d0       ??0CField@@QAE@ABU0@@Z     100569d0 f i StructDictLib:ItemsContainer.obj
 0001:00055a70       ??0CField@@QAE@XZ          10056a70 f i StructDictLib:ItemsContainer.obj
 0001:00055ac0       ??0IsLessByNotStableItemStrNew@@QAE@PBVTItemContainer@@@Z 10056ac0 f i StructDictLib:ItemsContainer.obj
 0001:00055b00       ??0TItemContainer@@QAE@XZ  10056b00 f   StructDictLib:ItemsContainer.obj
 0001:00056b10       ??0TSignatItem@@QAE@E_N@Z  10057b10 f i StructDictLib:ItemsContainer.obj
 0001:00056b50       ??1?$_Iterator012@Ubidirectional_iterator_tag@std@@U?$pair@$$CBV?$basic_string@DU?$char_traits@D@std@@V?$allocator@D@2@@std@@V12@@2@HPBU32@ABU32@U_Iterator_base12@2@@std@@QAE@XZ 10057b50 f i StructDictLib:ItemsContainer.obj
 0001:00056b90       ??1?$_Iterator012@Urandom_access_iterator_tag@std@@UCSignat@@HPBU3@ABU3@U_Iterator_base12@2@@std@@QAE@XZ 10057b90 f i StructDictLib:ItemsContainer.obj
 0001:00056bd0       ??1?$_Iterator012@Urandom_access_iterator_tag@std@@UTDomItem@@HPBU3@ABU3@U_Iterator_base12@2@@std@@QAE@XZ 10057bd0 f i StructDictLib:ItemsContainer.obj
 0001:00056c10       ??1?$_Tree@V?$_Tmap_traits@V?$basic_string@DU?$char_traits@D@std@@V?$allocator@D@2@@std@@V12@U?$less@V?$basic_string@DU?$char_traits@D@std@@V?$allocator@D@2@@std@@@2@V?$allocator@U?$pair@$$CBV?$basic_string@DU?$char_traits@D@std@@V?$allocator@D@2@@std@@V12@@std@@@2@$0A@@std@@@std@@QAE@XZ 10057c10 f i StructDictLib:ItemsContainer.obj
 0001:00056c60       ??1?$_Tree_alloc@$0A@U?$_Tree_base_types@U?$pair@$$CBV?$basic_string@DU?$char_traits@D@std@@V?$allocator@D@2@@std@@V12@@std@@V?$allocator@U?$pair@$$CBV?$basic_string@DU?$char_traits@D@std@@V?$allocator@D@2@@std@@V12@@std@@@2@@std@@@std@@QAE@XZ 10057c60 f i StructDictLib:ItemsContainer.obj
 0001:00056cc0       ??1?$_Tree_buy@U?$pair@$$CBV?$basic_string@DU?$char_traits@D@std@@V?$allocator@D@2@@std@@V12@@std@@V?$allocator@U?$pair@$$CBV?$basic_string@DU?$char_traits@D@std@@V?$allocator@D@2@@std@@V12@@std@@@2@@std@@QAE@XZ 10057cc0 f i StructDictLib:ItemsContainer.obj
 0001:00056d00       ??1?$_Tree_comp@$0A@V?$_Tmap_traits@V?$basic_string@DU?$char_traits@D@std@@V?$allocator@D@2@@std@@V12@U?$less@V?$basic_string@DU?$char_traits@D@std@@V?$allocator@D@2@@std@@@2@V?$allocator@U?$pair@$$CBV?$basic_string@DU?$char_traits@D@std@@V?$allocator@D@2@@std@@V12@@std@@@2@$0A@@std@@@std@@QAE@XZ 10057d00 f i StructDictLib:ItemsContainer.obj
 0001:00056d40       ??1?$_Tree_const_iterator@V?$_Tree_val@U?$_Tree_simple_types@U?$pair@$$CBV?$basic_string@DU?$char_traits@D@std@@V?$allocator@D@2@@std@@V12@@std@@@std@@@std@@@std@@QAE@XZ 10057d40 f i StructDictLib:ItemsContainer.obj
 0001:00056d80       ??1?$_Tree_iterator@V?$_Tree_val@U?$_Tree_simple_types@U?$pair@$$CBV?$basic_string@DU?$char_traits@D@std@@V?$allocator@D@2@@std@@V12@@std@@@std@@@std@@@std@@QAE@XZ 10057d80 f i StructDictLib:ItemsContainer.obj
 0001:00056dc0       ??1?$_Tree_unchecked_const_iterator@V?$_Tree_val@U?$_Tree_simple_types@U?$pair@$$CBV?$basic_string@DU?$char_traits@D@std@@V?$allocator@D@2@@std@@V12@@std@@@std@@@std@@U_Iterator_base12@2@@std@@QAE@XZ 10057dc0 f i StructDictLib:ItemsContainer.obj
 0001:00056e00       ??1?$_Tree_val@U?$_Tree_simple_types@U?$pair@$$CBV?$basic_string@DU?$char_traits@D@std@@V?$allocator@D@2@@std@@V12@@std@@@std@@@std@@QAE@XZ 10057e00 f i StructDictLib:ItemsContainer.obj
 0001:00056e50       ??1?$_Vector_alloc@$0A@U?$_Vec_base_types@UCDomen@@V?$allocator@UCDomen@@@std@@@std@@@std@@QAE@XZ 10057e50 f i StructDictLib:ItemsContainer.obj
 0001:00056ea0       ??1?$_Vector_alloc@$0A@U?$_Vec_base_types@UCField@@V?$allocator@UCField@@@std@@@std@@@std@@QAE@XZ 10057ea0 f i StructDictLib:ItemsContainer.obj
 0001:00056ef0       ??1?$_Vector_alloc@$0A@U?$_Vec_base_types@UCSignat@@V?$allocator@UCSignat@@@std@@@std@@@std@@QAE@XZ 10057ef0 f i StructDictLib:ItemsContainer.obj
 0001:00056f40       ??1?$_Vector_alloc@$0A@U?$_Vec_base_types@UTDomItem@@V?$allocator@UTDomItem@@@std@@@std@@@std@@QAE@XZ 10057f40 f i StructDictLib:ItemsContainer.obj
 0001:00056f90       ??1?$_Vector_const_iterator@V?$_Vector_val@U?$_Simple_types@UCSignat@@@std@@@std@@@std@@QAE@XZ 10057f90 f i StructDictLib:ItemsContainer.obj
 0001:00056fd0       ??1?$_Vector_const_iterator@V?$_Vector_val@U?$_Simple_types@UTDomItem@@@std@@@std@@@std@@QAE@XZ 10057fd0 f i StructDictLib:ItemsContainer.obj
 0001:00057010       ??1?$_Vector_iterator@V?$_Vector_val@U?$_Simple_types@UCSignat@@@std@@@std@@@std@@QAE@XZ 10058010 f i StructDictLib:ItemsContainer.obj
 0001:00057050       ??1?$_Vector_val@U?$_Simple_types@UCDomen@@@std@@@std@@QAE@XZ 10058050 f i StructDictLib:ItemsContainer.obj
 0001:000570a0       ??1?$_Vector_val@U?$_Simple_types@UCField@@@std@@@std@@QAE@XZ 100580a0 f i StructDictLib:ItemsContainer.obj
 0001:000570f0       ??1?$_Vector_val@U?$_Simple_types@UCSignat@@@std@@@std@@QAE@XZ 100580f0 f i StructDictLib:ItemsContainer.obj
 0001:00057140       ??1?$_Vector_val@U?$_Simple_types@UTDomItem@@@std@@@std@@QAE@XZ 10058140 f i StructDictLib:ItemsContainer.obj
 0001:00057190       ??1?$map@V?$basic_string@DU?$char_traits@D@std@@V?$allocator@D@2@@std@@V12@U?$less@V?$basic_string@DU?$char_traits@D@std@@V?$allocator@D@2@@std@@@2@V?$allocator@U?$pair@$$CBV?$basic_string@DU?$char_traits@D@std@@V?$allocator@D@2@@std@@V12@@std@@@2@@std@@QAE@XZ 10058190 f i StructDictLib:ItemsContainer.obj
 0001:000571d0       ??1?$pair@$$CBV?$basic_string@DU?$char_traits@D@std@@V?$allocator@D@2@@std@@V12@@std@@QAE@XZ 100581d0 f i StructDictLib:ItemsContainer.obj
 0001:00057220       ??1?$pair@V?$_Tree_iterator@V?$_Tree_val@U?$_Tree_simple_types@U?$pair@$$CBV?$basic_string@DU?$char_traits@D@std@@V?$allocator@D@2@@std@@V12@@std@@@std@@@std@@@std@@_N@std@@QAE@XZ 10058220 f i StructDictLib:ItemsContainer.obj
 0001:00057260       ??1?$vector@UCDomen@@V?$allocator@UCDomen@@@std@@@std@@QAE@XZ 10058260 f i StructDictLib:ItemsContainer.obj
 0001:000572b0       ??1?$vector@UCField@@V?$allocator@UCField@@@std@@@std@@QAE@XZ 100582b0 f i StructDictLib:ItemsContainer.obj
 0001:00057300       ??1?$vector@UCSignat@@V?$allocator@UCSignat@@@std@@@std@@QAE@XZ 10058300 f i StructDictLib:ItemsContainer.obj
 0001:00057350       ??1?$vector@UTDomItem@@V?$allocator@UTDomItem@@@std@@@std@@QAE@XZ 10058350 f i StructDictLib:ItemsContainer.obj
 0001:000573a0       ??1CDomen@@QAE@XZ          100583a0 f   StructDictLib:ItemsContainer.obj
 0001:00057400       ??1CField@@QAE@XZ          10058400 f i StructDictLib:ItemsContainer.obj
 0001:00057450       ??4?$_Iterator012@Ubidirectional_iterator_tag@std@@U?$pair@$$CBV?$basic_string@DU?$char_traits@D@std@@V?$allocator@D@2@@std@@V12@@2@HPBU32@ABU32@U_Iterator_base12@2@@std@@QAEAAU01@ABU01@@Z 10058450 f i StructDictLib:ItemsContainer.obj
 0001:000574a0       ??4?$_Tree_const_iterator@V?$_Tree_val@U?$_Tree_simple_types@U?$pair@$$CBV?$basic_string@DU?$char_traits@D@std@@V?$allocator@D@2@@std@@V12@@std@@@std@@@std@@@std@@QAEAAV01@ABV01@@Z 100584a0 f i StructDictLib:ItemsContainer.obj
 0001:000574f0       ??4?$_Tree_iterator@V?$_Tree_val@U?$_Tree_simple_types@U?$pair@$$CBV?$basic_string@DU?$char_traits@D@std@@V?$allocator@D@2@@std@@V12@@std@@@std@@@std@@@std@@QAEAAV01@ABV01@@Z 100584f0 f i StructDictLib:ItemsContainer.obj
 0001:00057540       ??4?$_Tree_unchecked_const_iterator@V?$_Tree_val@U?$_Tree_simple_types@U?$pair@$$CBV?$basic_string@DU?$char_traits@D@std@@V?$allocator@D@2@@std@@V12@@std@@@std@@@std@@U_Iterator_base12@2@@std@@QAEAAV01@ABV01@@Z 10058540 f i StructDictLib:ItemsContainer.obj
 0001:000575a0       ??8?$_Tree_const_iterator@V?$_Tree_val@U?$_Tree_simple_types@U?$pair@$$CBV?$basic_string@DU?$char_traits@D@std@@V?$allocator@D@2@@std@@V12@@std@@@std@@@std@@@std@@QBE_NABV01@@Z 100585a0 f i StructDictLib:ItemsContainer.obj
 0001:000576b0       ??8?$_Vector_const_iterator@V?$_Vector_val@U?$_Simple_types@UCSignat@@@std@@@std@@@std@@QBE_NABV01@@Z 100586b0 f i StructDictLib:ItemsContainer.obj
 0001:00057720       ??8?$_Vector_const_iterator@V?$_Vector_val@U?$_Simple_types@UTDomItem@@@std@@@std@@@std@@QBE_NABV01@@Z 10058720 f i StructDictLib:ItemsContainer.obj
 0001:00057790       ??9?$_Tree_const_iterator@V?$_Tree_val@U?$_Tree_simple_types@U?$pair@$$CBV?$basic_string@DU?$char_traits@D@std@@V?$allocator@D@2@@std@@V12@@std@@@std@@@std@@@std@@QBE_NABV01@@Z 10058790 f i StructDictLib:ItemsContainer.obj
 0001:00057800       ??9?$_Vector_const_iterator@V?$_Vector_val@U?$_Simple_types@UCSignat@@@std@@@std@@@std@@QBE_NABV01@@Z 10058800 f i StructDictLib:ItemsContainer.obj
 0001:00057870       ??A?$map@V?$basic_string@DU?$char_traits@D@std@@V?$allocator@D@2@@std@@V12@U?$less@V?$basic_string@DU?$char_traits@D@std@@V?$allocator@D@2@@std@@@2@V?$allocator@U?$pair@$$CBV?$basic_string@DU?$char_traits@D@std@@V?$allocator@D@2@@std@@V12@@std@@@2@@std@@QAEAAV?$basic_string@DU?$char_traits@D@std@@V?$allocator@D@2@@1@$$QAV21@@Z 10058870 f i StructDictLib:ItemsContainer.obj
 0001:00057ab0       ??A?$vector@UCField@@V?$allocator@UCField@@@std@@@std@@QBEABUCField@@I@Z 10058ab0 f i StructDictLib:ItemsContainer.obj
 0001:00057b90       ??A?$vector@UCSignat@@V?$allocator@UCSignat@@@std@@@std@@QBEABUCSignat@@I@Z 10058b90 f i StructDictLib:ItemsContainer.obj
 0001:00057c70       ??A?$vector@UTDomItem@@V?$allocator@UTDomItem@@@std@@@std@@QBEABUTDomItem@@I@Z 10058c70 f i StructDictLib:ItemsContainer.obj
 0001:00057d50       ??C?$_Tree_iterator@V?$_Tree_val@U?$_Tree_simple_types@U?$pair@$$CBV?$basic_string@DU?$char_traits@D@std@@V?$allocator@D@2@@std@@V12@@std@@@std@@@std@@@std@@QBEPAU?$pair@$$CBV?$basic_string@DU?$char_traits@D@std@@V?$allocator@D@2@@std@@V12@@1@XZ 10058d50 f i StructDictLib:ItemsContainer.obj
 0001:00057da0       ??D?$_Tree_const_iterator@V?$_Tree_val@U?$_Tree_simple_types@U?$pair@$$CBV?$basic_string@DU?$char_traits@D@std@@V?$allocator@D@2@@std@@V12@@std@@@std@@@std@@@std@@QBEABU?$pair@$$CBV?$basic_string@DU?$char_traits@D@std@@V?$allocator@D@2@@std@@V12@@1@XZ 10058da0 f i StructDictLib:ItemsContainer.obj
 0001:00057ea0       ??D?$_Tree_iterator@V?$_Tree_val@U?$_Tree_simple_types@U?$pair@$$CBV?$basic_string@DU?$char_traits@D@std@@V?$allocator@D@2@@std@@V12@@std@@@std@@@std@@@std@@QBEAAU?$pair@$$CBV?$basic_string@DU?$char_traits@D@std@@V?$allocator@D@2@@std@@V12@@1@XZ 10058ea0 f i StructDictLib:ItemsContainer.obj
 0001:00057ee0       ??D?$_Vector_const_iterator@V?$_Vector_val@U?$_Simple_types@UTDomItem@@@std@@@std@@@std@@QBEABUTDomItem@@XZ 10058ee0 f i StructDictLib:ItemsContainer.obj
 0001:00057fe0       ??E?$_Tree_const_iterator@V?$_Tree_val@U?$_Tree_simple_types@U?$pair@$$CBV?$basic_string@DU?$char_traits@D@std@@V?$allocator@D@2@@std@@V12@@std@@@std@@@std@@@std@@QAE?AV01@H@Z 10058fe0 f i StructDictLib:ItemsContainer.obj
 0001:000580d0       ??E?$_Tree_const_iterator@V?$_Tree_val@U?$_Tree_simple_types@U?$pair@$$CBV?$basic_string@DU?$char_traits@D@std@@V?$allocator@D@2@@std@@V12@@std@@@std@@@std@@@std@@QAEAAV01@XZ 100590d0 f i StructDictLib:ItemsContainer.obj
 0001:000581d0       ??E?$_Tree_unchecked_const_iterator@V?$_Tree_val@U?$_Tree_simple_types@U?$pair@$$CBV?$basic_string@DU?$char_traits@D@std@@V?$allocator@D@2@@std@@V12@@std@@@std@@@std@@U_Iterator_base12@2@@std@@QAEAAV01@XZ 100591d0 f i StructDictLib:ItemsContainer.obj
 0001:000582c0       ??F?$_Tree_const_iterator@V?$_Tree_val@U?$_Tree_simple_types@U?$pair@$$CBV?$basic_string@DU?$char_traits@D@std@@V?$allocator@D@2@@std@@V12@@std@@@std@@@std@@@std@@QAEAAV01@XZ 100592c0 f i StructDictLib:ItemsContainer.obj
 0001:00058440       ??F?$_Tree_iterator@V?$_Tree_val@U?$_Tree_simple_types@U?$pair@$$CBV?$basic_string@DU?$char_traits@D@std@@V?$allocator@D@2@@std@@V12@@std@@@std@@@std@@@std@@QAEAAV01@XZ 10059440 f i StructDictLib:ItemsContainer.obj
 0001:00058490       ??F?$_Tree_unchecked_const_iterator@V?$_Tree_val@U?$_Tree_simple_types@U?$pair@$$CBV?$basic_string@DU?$char_traits@D@std@@V?$allocator@D@2@@std@@V12@@std@@@std@@@std@@U_Iterator_base12@2@@std@@QAEAAV01@XZ 10059490 f i StructDictLib:ItemsContainer.obj
 0001:000585b0       ??G?$_Vector_const_iterator@V?$_Vector_val@U?$_Simple_types@UCSignat@@@std@@@std@@@std@@QBEHABV01@@Z 100595b0 f i StructDictLib:ItemsContainer.obj
 0001:00058610       ??G?$_Vector_const_iterator@V?$_Vector_val@U?$_Simple_types@UTDomItem@@@std@@@std@@@std@@QBEHABV01@@Z 10059610 f i StructDictLib:ItemsContainer.obj
 0001:00058670       ??G?$_Vector_iterator@V?$_Vector_val@U?$_Simple_types@UCSignat@@@std@@@std@@@std@@QBEHABV?$_Vector_const_iterator@V?$_Vector_val@U?$_Simple_types@UCSignat@@@std@@@std@@@1@@Z 10059670 f i StructDictLib:ItemsContainer.obj
 0001:000586c0       ??M?$_Vector_const_iterator@V?$_Vector_val@U?$_Simple_types@UCSignat@@@std@@@std@@@std@@QBE_NABV01@@Z 100596c0 f i StructDictLib:ItemsContainer.obj
 0001:00058730       ??MCSignat@@QBE_NABU0@@Z   10059730 f i StructDictLib:ItemsContainer.obj
 0001:00058790       ??RIsLessByNotStableItemStrNew@@QBE_NABUTDomItem@@ABUTDomNoItemStr@@@Z 10059790 f i StructDictLib:ItemsContainer.obj
 0001:00058850       ??_G?$pair@$$CBV?$basic_string@DU?$char_traits@D@std@@V?$allocator@D@2@@std@@V12@@std@@QAEPAXI@Z 10059850 f i StructDictLib:ItemsContainer.obj
 0001:000588b0       ??_GCDomen@@QAEPAXI@Z      100598b0 f i StructDictLib:ItemsContainer.obj
 0001:00058910       ??_GCField@@QAEPAXI@Z      10059910 f i StructDictLib:ItemsContainer.obj
 0001:00058970       ?AddItem@CDomen@@QAEHPBDH@Z 10059970 f   StructDictLib:ItemsContainer.obj
 0001:00058a40       ?AreEqualDomItems@TItemContainer@@QBE_NABUTDomItem@@ABUTDomNoItemStr@@@Z 10059a40 f   StructDictLib:ItemsContainer.obj
 0001:00058ad0       ?BuildDomItems@TItemContainer@@QAE_NXZ 10059ad0 f   StructDictLib:ItemsContainer.obj
 0001:000591c0       ?BuildDomens@TItemContainer@@QAE_NPAD@Z 1005a1c0 f   StructDictLib:ItemsContainer.obj
 0001:00059830       ?BuildFields@TItemContainer@@QAE_NE@Z 1005a830 f   StructDictLib:ItemsContainer.obj
 0001:00059fb0       ?BuildFormats@TItemContainer@@QAE_NE@Z 1005afb0 f   StructDictLib:ItemsContainer.obj
 0001:0005a3a0       ?BuildOneFieldFormat@TItemContainer@@QAE_NAAUCSignat@@PAD1E@Z 1005b3a0 f   StructDictLib:ItemsContainer.obj
 0001:0005a970       ?CanBeRusAbbr@TItemContainer@@QBE_NPBD@Z 1005b970 f i StructDictLib:ItemsContainer.obj
 0001:0005ab20       ?CanBeRusColloc@TItemContainer@@QBE_NPBD@Z 1005bb20 f i StructDictLib:ItemsContainer.obj
 0001:0005ac40       ?ClearFields@TItemContainer@@QAE_NXZ 1005bc40 f   StructDictLib:ItemsContainer.obj
 0001:0005acd0       ?DelItem@CDomen@@QAEXHH@Z  1005bcd0 f   StructDictLib:ItemsContainer.obj
 0001:0005ade0       ?ErrorMessage@TItemContainer@@QBEXV?$basic_string@DU?$char_traits@D@std@@V?$allocator@D@2@@std@@@Z 1005bde0 f   StructDictLib:ItemsContainer.obj
 0001:0005aea0       ?GetDomNoForLePlus@TItemContainer@@QBEEPBD@Z 1005bea0 f   StructDictLib:ItemsContainer.obj
 0001:0005afd0       ?GetDomenNoByDomStr@TItemContainer@@QBEEPBD@Z 1005bfd0 f   StructDictLib:ItemsContainer.obj
 0001:0005b060       ?GetFieldNoByFieldStrInner@TItemContainer@@QBEEPBD@Z 1005c060 f   StructDictLib:ItemsContainer.obj
 0001:0005b110       ?GetItemNoByItemStr@TItemContainer@@QBEHPBDE@Z 1005c110 f   StructDictLib:ItemsContainer.obj
 0001:0005b510       ?GetItemStrLen@TDomItem@@QBEEXZ 1005c510 f i StructDictLib:ItemsContainer.obj
 0001:0005b550       ?InitDomensConsts@TItemContainer@@QAE_NXZ 1005c550 f   StructDictLib:ItemsContainer.obj
 0001:0005b700       ?IsEmpty@CDomen@@QBE_NXZ   1005c700 f   StructDictLib:ItemsContainer.obj
 0001:0005b760       ?IsStandardRusLexeme@TItemContainer@@QBE_NPBD@Z 1005c760 f   StructDictLib:ItemsContainer.obj
 0001:0005b870       ?UpdateConstDomens@TItemContainer@@QAEXXZ 1005c870 f   StructDictLib:ItemsContainer.obj
 0001:0005ba20       ?WriteDomItems@TItemContainer@@QBE_NXZ 1005ca20 f   StructDictLib:ItemsContainer.obj
 0001:0005bc20       ?WriteDomens@TItemContainer@@QBE_NXZ 1005cc20 f   StructDictLib:ItemsContainer.obj
 0001:0005be60       ?WriteFields@TItemContainer@@QBE_NXZ 1005ce60 f   StructDictLib:ItemsContainer.obj
 0001:0005c100       ?_Alloc_proxy@?$_Tree_alloc@$0A@U?$_Tree_base_types@U?$pair@$$CBV?$basic_string@DU?$char_traits@D@std@@V?$allocator@D@2@@std@@V12@@std@@V?$allocator@U?$pair@$$CBV?$basic_string@DU?$char_traits@D@std@@V?$allocator@D@2@@std@@V12@@std@@@2@@std@@@std@@QAEXXZ 1005d100 f i StructDictLib:ItemsContainer.obj
 0001:0005c1c0       ?_Alloc_proxy@?$_Vector_alloc@$0A@U?$_Vec_base_types@UCDomen@@V?$allocator@UCDomen@@@std@@@std@@@std@@QAEXXZ 1005d1c0 f i StructDictLib:ItemsContainer.obj
 0001:0005c270       ?_Alloc_proxy@?$_Vector_alloc@$0A@U?$_Vec_base_types@UCField@@V?$allocator@UCField@@@std@@@std@@@std@@QAEXXZ 1005d270 f i StructDictLib:ItemsContainer.obj
 0001:0005c320       ?_Alloc_proxy@?$_Vector_alloc@$0A@U?$_Vec_base_types@UCSignat@@V?$allocator@UCSignat@@@std@@@std@@@std@@QAEXXZ 1005d320 f i StructDictLib:ItemsContainer.obj
 0001:0005c3d0       ?_Alloc_proxy@?$_Vector_alloc@$0A@U?$_Vec_base_types@UTDomItem@@V?$allocator@UTDomItem@@@std@@@std@@@std@@QAEXXZ 1005d3d0 f i StructDictLib:ItemsContainer.obj
 0001:0005c480       ?_Buyheadnode@?$_Tree_alloc@$0A@U?$_Tree_base_types@U?$pair@$$CBV?$basic_string@DU?$char_traits@D@std@@V?$allocator@D@2@@std@@V12@@std@@V?$allocator@U?$pair@$$CBV?$basic_string@DU?$char_traits@D@std@@V?$allocator@D@2@@std@@V12@@std@@@2@@std@@@std@@QAEPAU?$_Tree_node@U?$pair@$$CBV?$basic_string@DU?$char_traits@D@std@@V?$allocator@D@2@@std@@V12@@std@@PAX@2@XZ 1005d480 f i StructDictLib:ItemsContainer.obj
 0001:0005c670       ?_Buynode0@?$_Tree_buy@U?$pair@$$CBV?$basic_string@DU?$char_traits@D@std@@V?$allocator@D@2@@std@@V12@@std@@V?$allocator@U?$pair@$$CBV?$basic_string@DU?$char_traits@D@std@@V?$allocator@D@2@@std@@V12@@std@@@2@@std@@QAEPAU?$_Tree_node@U?$pair@$$CBV?$basic_string@DU?$char_traits@D@std@@V?$allocator@D@2@@std@@V12@@std@@PAX@2@XZ 1005d670 f i StructDictLib:ItemsContainer.obj
 0001:0005c820       ?_Color@?$_Tree_val@U?$_Tree_simple_types@U?$pair@$$CBV?$basic_string@DU?$char_traits@D@std@@V?$allocator@D@2@@std@@V12@@std@@@std@@@std@@SAAADPAU?$_Tree_node@U?$pair@$$CBV?$basic_string@DU?$char_traits@D@std@@V?$allocator@D@2@@std@@V12@@std@@PAX@2@@Z 1005d820 f i StructDictLib:ItemsContainer.obj
 0001:0005c850       ?_Compat@?$_Vector_const_iterator@V?$_Vector_val@U?$_Simple_types@UCSignat@@@std@@@std@@@std@@QBEXABV12@@Z 1005d850 f i StructDictLib:ItemsContainer.obj
 0001:0005c940       ?_Compat@?$_Vector_const_iterator@V?$_Vector_val@U?$_Simple_types@UTDomItem@@@std@@@std@@@std@@QBEXABV12@@Z 1005d940 f i StructDictLib:ItemsContainer.obj
 0001:0005ca30       ?_Destroy@?$vector@UCDomen@@V?$allocator@UCDomen@@@std@@@std@@IAEXPAUCDomen@@0@Z 1005da30 f i StructDictLib:ItemsContainer.obj
 0001:0005cac0       ?_Destroy@?$vector@UCField@@V?$allocator@UCField@@@std@@@std@@IAEXPAUCField@@0@Z 1005dac0 f i StructDictLib:ItemsContainer.obj
 0001:0005cb50       ?_Destroy@?$vector@UTDomItem@@V?$allocator@UTDomItem@@@std@@@std@@IAEXPAUTDomItem@@0@Z 1005db50 f i StructDictLib:ItemsContainer.obj
 0001:0005cbe0       ?_Destroy_if_not_nil@?$_Tree@V?$_Tmap_traits@V?$basic_string@DU?$char_traits@D@std@@V?$allocator@D@2@@std@@V12@U?$less@V?$basic_string@DU?$char_traits@D@std@@V?$allocator@D@2@@std@@@2@V?$allocator@U?$pair@$$CBV?$basic_string@DU?$char_traits@D@std@@V?$allocator@D@2@@std@@V12@@std@@@2@$0A@@std@@@std@@IAEXPAU?$_Tree_node@U?$pair@$$CBV?$basic_string@DU?$char_traits@D@std@@V?$allocator@D@2@@std@@V12@@std@@PAX@2@@Z 1005dbe0 f i StructDictLib:ItemsContainer.obj
 0001:0005cc70       ?_Erase@?$_Tree@V?$_Tmap_traits@V?$basic_string@DU?$char_traits@D@std@@V?$allocator@D@2@@std@@V12@U?$less@V?$basic_string@DU?$char_traits@D@std@@V?$allocator@D@2@@std@@@2@V?$allocator@U?$pair@$$CBV?$basic_string@DU?$char_traits@D@std@@V?$allocator@D@2@@std@@V12@@std@@@2@$0A@@std@@@std@@IAEXPAU?$_Tree_node@U?$pair@$$CBV?$basic_string@DU?$char_traits@D@std@@V?$allocator@D@2@@std@@V12@@std@@PAX@2@@Z 1005dc70 f i StructDictLib:ItemsContainer.obj
 0001:0005cd40       ?_Free_proxy@?$_Tree_alloc@$0A@U?$_Tree_base_types@U?$pair@$$CBV?$basic_string@DU?$char_traits@D@std@@V?$allocator@D@2@@std@@V12@@std@@V?$allocator@U?$pair@$$CBV?$basic_string@DU?$char_traits@D@std@@V?$allocator@D@2@@std@@V12@@std@@@2@@std@@@std@@QAEXXZ 1005dd40 f i StructDictLib:ItemsContainer.obj
 0001:0005ce00       ?_Free_proxy@?$_Vector_alloc@$0A@U?$_Vec_base_types@UCDomen@@V?$allocator@UCDomen@@@std@@@std@@@std@@QAEXXZ 1005de00 f i StructDictLib:ItemsContainer.obj
 0001:0005ceb0       ?_Free_proxy@?$_Vector_alloc@$0A@U?$_Vec_base_types@UCField@@V?$allocator@UCField@@@std@@@std@@@std@@QAEXXZ 1005deb0 f i StructDictLib:ItemsContainer.obj
 0001:0005cf60       ?_Free_proxy@?$_Vector_alloc@$0A@U?$_Vec_base_types@UCSignat@@V?$allocator@UCSignat@@@std@@@std@@@std@@QAEXXZ 1005df60 f i StructDictLib:ItemsContainer.obj
 0001:0005d010       ?_Free_proxy@?$_Vector_alloc@$0A@U?$_Vec_base_types@UTDomItem@@V?$allocator@UTDomItem@@@std@@@std@@@std@@QAEXXZ 1005e010 f i StructDictLib:ItemsContainer.obj
 0001:0005d0c0       ?_Freeheadnode@?$_Tree_alloc@$0A@U?$_Tree_base_types@U?$pair@$$CBV?$basic_string@DU?$char_traits@D@std@@V?$allocator@D@2@@std@@V12@@std@@V?$allocator@U?$pair@$$CBV?$basic_string@DU?$char_traits@D@std@@V?$allocator@D@2@@std@@V12@@std@@@2@@std@@@std@@QAEXPAU?$_Tree_node@U?$pair@$$CBV?$basic_string@DU?$char_traits@D@std@@V?$allocator@D@2@@std@@V12@@std@@PAX@2@@Z 1005e0c0 f i StructDictLib:ItemsContainer.obj
 0001:0005d1a0       ?_Freenode0@?$_Tree_buy@U?$pair@$$CBV?$basic_string@DU?$char_traits@D@std@@V?$allocator@D@2@@std@@V12@@std@@V?$allocator@U?$pair@$$CBV?$basic_string@DU?$char_traits@D@std@@V?$allocator@D@2@@std@@V12@@std@@@2@@std@@QAEXPAU?$_Tree_node@U?$pair@$$CBV?$basic_string@DU?$char_traits@D@std@@V?$allocator@D@2@@std@@V12@@std@@PAX@2@@Z 1005e1a0 f i StructDictLib:ItemsContainer.obj
 0001:0005d280       ?_Get_rest@?$tuple@$$QAV?$basic_string@DU?$char_traits@D@std@@V?$allocator@D@2@@std@@@std@@QAEAAV?$tuple@$$$V@2@XZ 1005e280 f i StructDictLib:ItemsContainer.obj
 0001:0005d2b0       ?_Getal@?$_Tree_alloc@$0A@U?$_Tree_base_types@U?$pair@$$CBV?$basic_string@DU?$char_traits@D@std@@V?$allocator@D@2@@std@@V12@@std@@V?$allocator@U?$pair@$$CBV?$basic_string@DU?$char_traits@D@std@@V?$allocator@D@2@@std@@V12@@std@@@2@@std@@@std@@QBE?AU?$_Wrap_alloc@V?$allocator@U?$_Tree_node@U?$pair@$$CBV?$basic_string@DU?$char_traits@D@std@@V?$allocator@D@2@@std@@V12@@std@@PAX@std@@@std@@@2@XZ 1005e2b0 f i StructDictLib:ItemsContainer.obj
 0001:0005d300       ?_Getal@?$_Vector_alloc@$0A@U?$_Vec_base_types@UCDomen@@V?$allocator@UCDomen@@@std@@@std@@@std@@QBE?AU?$_Wrap_alloc@V?$allocator@UCDomen@@@std@@@2@XZ 1005e300 f i StructDictLib:ItemsContainer.obj
 0001:0005d350       ?_Getal@?$_Vector_alloc@$0A@U?$_Vec_base_types@UCField@@V?$allocator@UCField@@@std@@@std@@@std@@QBE?AU?$_Wrap_alloc@V?$allocator@UCField@@@std@@@2@XZ 1005e350 f i StructDictLib:ItemsContainer.obj
 0001:0005d3a0       ?_Getal@?$_Vector_alloc@$0A@U?$_Vec_base_types@UTDomItem@@V?$allocator@UTDomItem@@@std@@@std@@@std@@QBE?AU?$_Wrap_alloc@V?$allocator@UTDomItem@@@std@@@2@XZ 1005e3a0 f i StructDictLib:ItemsContainer.obj
 0001:0005d3f0       ?_Getcomp@?$_Tree_comp@$0A@V?$_Tmap_traits@V?$basic_string@DU?$char_traits@D@std@@V?$allocator@D@2@@std@@V12@U?$less@V?$basic_string@DU?$char_traits@D@std@@V?$allocator@D@2@@std@@@2@V?$allocator@U?$pair@$$CBV?$basic_string@DU?$char_traits@D@std@@V?$allocator@D@2@@std@@V12@@std@@@2@$0A@@std@@@std@@QBE?AU?$less@V?$basic_string@DU?$char_traits@D@std@@V?$allocator@D@2@@std@@@2@XZ 1005e3f0 f i StructDictLib:ItemsContainer.obj
 0001:0005d420       ?_Grow_to@?$vector@UCDomen@@V?$allocator@UCDomen@@@std@@@std@@IBEII@Z 1005e420 f i StructDictLib:ItemsContainer.obj
 0001:0005d4b0       ?_Grow_to@?$vector@UCField@@V?$allocator@UCField@@@std@@@std@@IBEII@Z 1005e4b0 f i StructDictLib:ItemsContainer.obj
 0001:0005d540       ?_Grow_to@?$vector@UTDomItem@@V?$allocator@UTDomItem@@@std@@@std@@IBEII@Z 1005e540 f i StructDictLib:ItemsContainer.obj
 0001:0005d5d0       ?_Inside@?$vector@EV?$allocator@E@std@@@std@@IBE_NPBE@Z 1005e5d0 f i StructDictLib:ItemsContainer.obj
 0001:0005d630       ?_Inside@?$vector@UCDomen@@V?$allocator@UCDomen@@@std@@@std@@IBE_NPBUCDomen@@@Z 1005e630 f i StructDictLib:ItemsContainer.obj
 0001:0005d690       ?_Inside@?$vector@UTDomItem@@V?$allocator@UTDomItem@@@std@@@std@@IBE_NPBUTDomItem@@@Z 1005e690 f i StructDictLib:ItemsContainer.obj
 0001:0005d6f0       ?_Inside@?$vector@UTSignatItem@@V?$allocator@UTSignatItem@@@std@@@std@@IBE_NPBUTSignatItem@@@Z 1005e6f0 f i StructDictLib:ItemsContainer.obj
 0001:0005d750       ?_Isnil@?$_Tree_val@U?$_Tree_simple_types@U?$pair@$$CBV?$basic_string@DU?$char_traits@D@std@@V?$allocator@D@2@@std@@V12@@std@@@std@@@std@@SAAADPAU?$_Tree_node@U?$pair@$$CBV?$basic_string@DU?$char_traits@D@std@@V?$allocator@D@2@@std@@V12@@std@@PAX@2@@Z 1005e750 f i StructDictLib:ItemsContainer.obj
 0001:0005d780       ?_Key@?$_Tree@V?$_Tmap_traits@V?$basic_string@DU?$char_traits@D@std@@V?$allocator@D@2@@std@@V12@U?$less@V?$basic_string@DU?$char_traits@D@std@@V?$allocator@D@2@@std@@@2@V?$allocator@U?$pair@$$CBV?$basic_string@DU?$char_traits@D@std@@V?$allocator@D@2@@std@@V12@@std@@@2@$0A@@std@@@std@@IBEABV?$basic_string@DU?$char_traits@D@std@@V?$allocator@D@2@@2@PAU?$_Tree_node@U?$pair@$$CBV?$basic_string@DU?$char_traits@D@std@@V?$allocator@D@2@@std@@V12@@std@@PAX@2@@Z 1005e780 f i StructDictLib:ItemsContainer.obj
 0001:0005d7d0       ?_Kfn@?$_Tree@V?$_Tmap_traits@V?$basic_string@DU?$char_traits@D@std@@V?$allocator@D@2@@std@@V12@U?$less@V?$basic_string@DU?$char_traits@D@std@@V?$allocator@D@2@@std@@@2@V?$allocator@U?$pair@$$CBV?$basic_string@DU?$char_traits@D@std@@V?$allocator@D@2@@std@@V12@@std@@@2@$0A@@std@@@std@@IBEABV?$basic_string@DU?$char_traits@D@std@@V?$allocator@D@2@@2@ABU?$pair@$$CBV?$basic_string@DU?$char_traits@D@std@@V?$allocator@D@2@@std@@V12@@2@@Z 1005e7d0 f i StructDictLib:ItemsContainer.obj
 0001:0005d820       ?_Lbound@?$_Tree@V?$_Tmap_traits@V?$basic_string@DU?$char_traits@D@std@@V?$allocator@D@2@@std@@V12@U?$less@V?$basic_string@DU?$char_traits@D@std@@V?$allocator@D@2@@std@@@2@V?$allocator@U?$pair@$$CBV?$basic_string@DU?$char_traits@D@std@@V?$allocator@D@2@@std@@V12@@std@@@2@$0A@@std@@@std@@IAEPAU?$_Tree_node@U?$pair@$$CBV?$basic_string@DU?$char_traits@D@std@@V?$allocator@D@2@@std@@V12@@std@@PAX@2@ABV?$basic_string@DU?$char_traits@D@std@@V?$allocator@D@2@@2@@Z 1005e820 f i StructDictLib:ItemsContainer.obj
 0001:0005d8f0       ?_Left@?$_Tree_val@U?$_Tree_simple_types@U?$pair@$$CBV?$basic_string@DU?$char_traits@D@std@@V?$allocator@D@2@@std@@V12@@std@@@std@@@std@@SAAAPAU?$_Tree_node@U?$pair@$$CBV?$basic_string@DU?$char_traits@D@std@@V?$allocator@D@2@@std@@V12@@std@@PAX@2@PAU32@@Z 1005e8f0 f i StructDictLib:ItemsContainer.obj
 0001:0005d920       ?_Lmost@?$_Tree@V?$_Tmap_traits@V?$basic_string@DU?$char_traits@D@std@@V?$allocator@D@2@@std@@V12@U?$less@V?$basic_string@DU?$char_traits@D@std@@V?$allocator@D@2@@std@@@2@V?$allocator@U?$pair@$$CBV?$basic_string@DU?$char_traits@D@std@@V?$allocator@D@2@@std@@V12@@std@@@2@$0A@@std@@@std@@IBEAAPAU?$_Tree_node@U?$pair@$$CBV?$basic_string@DU?$char_traits@D@std@@V?$allocator@D@2@@std@@V12@@std@@PAX@2@XZ 1005e920 f i StructDictLib:ItemsContainer.obj
 0001:0005d970       ?_Lrotate@?$_Tree@V?$_Tmap_traits@V?$basic_string@DU?$char_traits@D@std@@V?$allocator@D@2@@std@@V12@U?$less@V?$basic_string@DU?$char_traits@D@std@@V?$allocator@D@2@@std@@@2@V?$allocator@U?$pair@$$CBV?$basic_string@DU?$char_traits@D@std@@V?$allocator@D@2@@std@@V12@@std@@@2@$0A@@std@@@std@@IAEXPAU?$_Tree_node@U?$pair@$$CBV?$basic_string@DU?$char_traits@D@std@@V?$allocator@D@2@@std@@V12@@std@@PAX@2@@Z 1005e970 f i StructDictLib:ItemsContainer.obj
 0001:0005dad0       ?_Max@?$_Tree_val@U?$_Tree_simple_types@U?$pair@$$CBV?$basic_string@DU?$char_traits@D@std@@V?$allocator@D@2@@std@@V12@@std@@@std@@@std@@SAPAU?$_Tree_node@U?$pair@$$CBV?$basic_string@DU?$char_traits@D@std@@V?$allocator@D@2@@std@@V12@@std@@PAX@2@PAU32@@Z 1005ead0 f i StructDictLib:ItemsContainer.obj
 0001:0005db40       ?_Min@?$_Tree_val@U?$_Tree_simple_types@U?$pair@$$CBV?$basic_string@DU?$char_traits@D@std@@V?$allocator@D@2@@std@@V12@@std@@@std@@@std@@SAPAU?$_Tree_node@U?$pair@$$CBV?$basic_string@DU?$char_traits@D@std@@V?$allocator@D@2@@std@@V12@@std@@PAX@2@PAU32@@Z 1005eb40 f i StructDictLib:ItemsContainer.obj
 0001:0005dbb0       ?_Mynode@?$_Tree_unchecked_const_iterator@V?$_Tree_val@U?$_Tree_simple_types@U?$pair@$$CBV?$basic_string@DU?$char_traits@D@std@@V?$allocator@D@2@@std@@V12@@std@@@std@@@std@@U_Iterator_base12@2@@std@@QBEPAU?$_Tree_node@U?$pair@$$CBV?$basic_string@DU?$char_traits@D@std@@V?$allocator@D@2@@std@@V12@@std@@PAX@2@XZ 1005ebb0 f i StructDictLib:ItemsContainer.obj
 0001:0005dbe0       ?_Myval@?$_Tree_val@U?$_Tree_simple_types@U?$pair@$$CBV?$basic_string@DU?$char_traits@D@std@@V?$allocator@D@2@@std@@V12@@std@@@std@@@std@@SAAAU?$pair@$$CBV?$basic_string@DU?$char_traits@D@std@@V?$allocator@D@2@@std@@V12@@2@PAU?$_Tree_node@U?$pair@$$CBV?$basic_string@DU?$char_traits@D@std@@V?$allocator@D@2@@std@@V12@@std@@PAX@2@@Z 1005ebe0 f i StructDictLib:ItemsContainer.obj
 0001:0005dc10       ?_Orphan_ptr@?$_Tree@V?$_Tmap_traits@V?$basic_string@DU?$char_traits@D@std@@V?$allocator@D@2@@std@@V12@U?$less@V?$basic_string@DU?$char_traits@D@std@@V?$allocator@D@2@@std@@@2@V?$allocator@U?$pair@$$CBV?$basic_string@DU?$char_traits@D@std@@V?$allocator@D@2@@std@@V12@@std@@@2@$0A@@std@@@std@@IBEXAAV12@PAU?$_Tree_node@U?$pair@$$CBV?$basic_string@DU?$char_traits@D@std@@V?$allocator@D@2@@std@@V12@@std@@PAX@2@@Z 1005ec10 f i StructDictLib:ItemsContainer.obj
 0001:0005dd50       ?_Orphan_range@?$vector@UCDomen@@V?$allocator@UCDomen@@@std@@@std@@IBEXPAUCDomen@@0@Z 1005ed50 f i StructDictLib:ItemsContainer.obj
 0001:0005de80       ?_Orphan_range@?$vector@UCField@@V?$allocator@UCField@@@std@@@std@@IBEXPAUCField@@0@Z 1005ee80 f i StructDictLib:ItemsContainer.obj
 0001:0005dfb0       ?_Orphan_range@?$vector@UTDomItem@@V?$allocator@UTDomItem@@@std@@@std@@IBEXPAUTDomItem@@0@Z 1005efb0 f i StructDictLib:ItemsContainer.obj
 0001:0005e0e0       ?_Parent@?$_Tree_val@U?$_Tree_simple_types@U?$pair@$$CBV?$basic_string@DU?$char_traits@D@std@@V?$allocator@D@2@@std@@V12@@std@@@std@@@std@@SAAAPAU?$_Tree_node@U?$pair@$$CBV?$basic_string@DU?$char_traits@D@std@@V?$allocator@D@2@@std@@V12@@std@@PAX@2@PAU32@@Z 1005f0e0 f i StructDictLib:ItemsContainer.obj
 0001:0005e110       ?_Pop_back_n@?$vector@UCField@@V?$allocator@UCField@@@std@@@std@@QAEXI@Z 1005f110 f i StructDictLib:ItemsContainer.obj
 0001:0005e190       ?_Reallocate@?$vector@UCDomen@@V?$allocator@UCDomen@@@std@@@std@@IAEXI@Z 1005f190 f i StructDictLib:ItemsContainer.obj
 0001:0005e310       ?_Reallocate@?$vector@UCField@@V?$allocator@UCField@@@std@@@std@@IAEXI@Z 1005f310 f i StructDictLib:ItemsContainer.obj
 0001:0005e490       ?_Reallocate@?$vector@UTDomItem@@V?$allocator@UTDomItem@@@std@@@std@@IAEXI@Z 1005f490 f i StructDictLib:ItemsContainer.obj
 0001:0005e610       ?_Rechecked@?$_Vector_const_iterator@V?$_Vector_val@U?$_Simple_types@UTDomItem@@@std@@@std@@@std@@QAEAAV12@PBUTDomItem@@@Z 1005f610 f i StructDictLib:ItemsContainer.obj
 0001:0005e650       ?_Reserve@?$vector@UCDomen@@V?$allocator@UCDomen@@@std@@@std@@IAEXI@Z 1005f650 f i StructDictLib:ItemsContainer.obj
 0001:0005e6e0       ?_Reserve@?$vector@UCField@@V?$allocator@UCField@@@std@@@std@@IAEXI@Z 1005f6e0 f i StructDictLib:ItemsContainer.obj
 0001:0005e770       ?_Reserve@?$vector@UTDomItem@@V?$allocator@UTDomItem@@@std@@@std@@IAEXI@Z 1005f770 f i StructDictLib:ItemsContainer.obj
 0001:0005e800       ?_Right@?$_Tree_val@U?$_Tree_simple_types@U?$pair@$$CBV?$basic_string@DU?$char_traits@D@std@@V?$allocator@D@2@@std@@V12@@std@@@std@@@std@@SAAAPAU?$_Tree_node@U?$pair@$$CBV?$basic_string@DU?$char_traits@D@std@@V?$allocator@D@2@@std@@V12@@std@@PAX@2@PAU32@@Z 1005f800 f i StructDictLib:ItemsContainer.obj
 0001:0005e830       ?_Rmost@?$_Tree@V?$_Tmap_traits@V?$basic_string@DU?$char_traits@D@std@@V?$allocator@D@2@@std@@V12@U?$less@V?$basic_string@DU?$char_traits@D@std@@V?$allocator@D@2@@std@@@2@V?$allocator@U?$pair@$$CBV?$basic_string@DU?$char_traits@D@std@@V?$allocator@D@2@@std@@V12@@std@@@2@$0A@@std@@@std@@IBEAAPAU?$_Tree_node@U?$pair@$$CBV?$basic_string@DU?$char_traits@D@std@@V?$allocator@D@2@@std@@V12@@std@@PAX@2@XZ 1005f830 f i StructDictLib:ItemsContainer.obj
 0001:0005e880       ?_Root@?$_Tree@V?$_Tmap_traits@V?$basic_string@DU?$char_traits@D@std@@V?$allocator@D@2@@std@@V12@U?$less@V?$basic_string@DU?$char_traits@D@std@@V?$allocator@D@2@@std@@@2@V?$allocator@U?$pair@$$CBV?$basic_string@DU?$char_traits@D@std@@V?$allocator@D@2@@std@@V12@@std@@@2@$0A@@std@@@std@@IBEAAPAU?$_Tree_node@U?$pair@$$CBV?$basic_string@DU?$char_traits@D@std@@V?$allocator@D@2@@std@@V12@@std@@PAX@2@XZ 1005f880 f i StructDictLib:ItemsContainer.obj
 0001:0005e8d0       ?_Rrotate@?$_Tree@V?$_Tmap_traits@V?$basic_string@DU?$char_traits@D@std@@V?$allocator@D@2@@std@@V12@U?$less@V?$basic_string@DU?$char_traits@D@std@@V?$allocator@D@2@@std@@@2@V?$allocator@U?$pair@$$CBV?$basic_string@DU?$char_traits@D@std@@V?$allocator@D@2@@std@@V12@@std@@@2@$0A@@std@@@std@@IAEXPAU?$_Tree_node@U?$pair@$$CBV?$basic_string@DU?$char_traits@D@std@@V?$allocator@D@2@@std@@V12@@std@@PAX@2@@Z 1005f8d0 f i StructDictLib:ItemsContainer.obj
 0001:0005ea30       ?_Tidy@?$_Tree@V?$_Tmap_traits@V?$basic_string@DU?$char_traits@D@std@@V?$allocator@D@2@@std@@V12@U?$less@V?$basic_string@DU?$char_traits@D@std@@V?$allocator@D@2@@std@@@2@V?$allocator@U?$pair@$$CBV?$basic_string@DU?$char_traits@D@std@@V?$allocator@D@2@@std@@V12@@std@@@2@$0A@@std@@@std@@IAEXXZ 1005fa30 f i StructDictLib:ItemsContainer.obj
 0001:0005eb70       ?_Tidy@?$vector@UCDomen@@V?$allocator@UCDomen@@@std@@@std@@IAEXXZ 1005fb70 f i StructDictLib:ItemsContainer.obj
 0001:0005ec30       ?_Tidy@?$vector@UCField@@V?$allocator@UCField@@@std@@@std@@IAEXXZ 1005fc30 f i StructDictLib:ItemsContainer.obj
 0001:0005ecf0       ?_Tidy@?$vector@UTDomItem@@V?$allocator@UTDomItem@@@std@@@std@@IAEXXZ 1005fcf0 f i StructDictLib:ItemsContainer.obj
 0001:0005edb0       ?_Unchecked@?$_Vector_const_iterator@V?$_Vector_val@U?$_Simple_types@UCSignat@@@std@@@std@@@std@@QBEPBUCSignat@@XZ 1005fdb0 f i StructDictLib:ItemsContainer.obj
 0001:0005ede0       ?_Unchecked@?$_Vector_const_iterator@V?$_Vector_val@U?$_Simple_types@UTDomItem@@@std@@@std@@@std@@QBEPBUTDomItem@@XZ 1005fde0 f i StructDictLib:ItemsContainer.obj
 0001:0005ee10       ?_Unchecked@?$_Vector_iterator@V?$_Vector_val@U?$_Simple_types@UCSignat@@@std@@@std@@@std@@QBEPAUCSignat@@XZ 1005fe10 f i StructDictLib:ItemsContainer.obj
 0001:0005ee40       ?_Unused_capacity@?$vector@UCDomen@@V?$allocator@UCDomen@@@std@@@std@@QBEIXZ 1005fe40 f i StructDictLib:ItemsContainer.obj
 0001:0005ee80       ?_Unused_capacity@?$vector@UCField@@V?$allocator@UCField@@@std@@@std@@QBEIXZ 1005fe80 f i StructDictLib:ItemsContainer.obj
 0001:0005eec0       ?_Unused_capacity@?$vector@UTDomItem@@V?$allocator@UTDomItem@@@std@@@std@@QBEIXZ 1005fec0 f i StructDictLib:ItemsContainer.obj
 0001:0005ef00       ?_Xlen@?$vector@UCDomen@@V?$allocator@UCDomen@@@std@@@std@@IBEXXZ 1005ff00 f i StructDictLib:ItemsContainer.obj
 0001:0005ef50       ?_Xlen@?$vector@UCField@@V?$allocator@UCField@@@std@@@std@@IBEXXZ 1005ff50 f i StructDictLib:ItemsContainer.obj
 0001:0005efa0       ?_Xlen@?$vector@UTDomItem@@V?$allocator@UTDomItem@@@std@@@std@@IBEXXZ 1005ffa0 f i StructDictLib:ItemsContainer.obj
 0001:0005eff0       ?allocate@?$_Wrap_alloc@V?$allocator@U?$_Tree_node@U?$pair@$$CBV?$basic_string@DU?$char_traits@D@std@@V?$allocator@D@2@@std@@V12@@std@@PAX@std@@@std@@@std@@QAEPAU?$_Tree_node@U?$pair@$$CBV?$basic_string@DU?$char_traits@D@std@@V?$allocator@D@2@@std@@V12@@std@@PAX@2@I@Z 1005fff0 f i StructDictLib:ItemsContainer.obj
 0001:0005f040       ?allocate@?$_Wrap_alloc@V?$allocator@UCDomen@@@std@@@std@@QAEPAUCDomen@@I@Z 10060040 f i StructDictLib:ItemsContainer.obj
 0001:0005f090       ?allocate@?$_Wrap_alloc@V?$allocator@UCField@@@std@@@std@@QAEPAUCField@@I@Z 10060090 f i StructDictLib:ItemsContainer.obj
 0001:0005f0e0       ?allocate@?$_Wrap_alloc@V?$allocator@UTDomItem@@@std@@@std@@QAEPAUTDomItem@@I@Z 100600e0 f i StructDictLib:ItemsContainer.obj
 0001:0005f130       ?allocate@?$allocator@U?$_Tree_node@U?$pair@$$CBV?$basic_string@DU?$char_traits@D@std@@V?$allocator@D@2@@std@@V12@@std@@PAX@std@@@std@@QAEPAU?$_Tree_node@U?$pair@$$CBV?$basic_string@DU?$char_traits@D@std@@V?$allocator@D@2@@std@@V12@@std@@PAX@2@I@Z 10060130 f i StructDictLib:ItemsContainer.obj
 0001:0005f180       ?allocate@?$allocator@UCDomen@@@std@@QAEPAUCDomen@@I@Z 10060180 f i StructDictLib:ItemsContainer.obj
 0001:0005f1d0       ?allocate@?$allocator@UCField@@@std@@QAEPAUCField@@I@Z 100601d0 f i StructDictLib:ItemsContainer.obj
 0001:0005f220       ?allocate@?$allocator@UTDomItem@@@std@@QAEPAUTDomItem@@I@Z 10060220 f i StructDictLib:ItemsContainer.obj
 0001:0005f270       ?begin@?$_Tree@V?$_Tmap_traits@V?$basic_string@DU?$char_traits@D@std@@V?$allocator@D@2@@std@@V12@U?$less@V?$basic_string@DU?$char_traits@D@std@@V?$allocator@D@2@@std@@@2@V?$allocator@U?$pair@$$CBV?$basic_string@DU?$char_traits@D@std@@V?$allocator@D@2@@std@@V12@@std@@@2@$0A@@std@@@std@@QAE?AV?$_Tree_iterator@V?$_Tree_val@U?$_Tree_simple_types@U?$pair@$$CBV?$basic_string@DU?$char_traits@D@std@@V?$allocator@D@2@@std@@V12@@std@@@std@@@std@@@2@XZ 10060270 f i StructDictLib:ItemsContainer.obj
 0001:0005f2d0       ?begin@?$vector@UCSignat@@V?$allocator@UCSignat@@@std@@@std@@QAE?AV?$_Vector_iterator@V?$_Vector_val@U?$_Simple_types@UCSignat@@@std@@@std@@@2@XZ 100602d0 f i StructDictLib:ItemsContainer.obj
 0001:0005f320       ?begin@?$vector@UCSignat@@V?$allocator@UCSignat@@@std@@@std@@QBE?AV?$_Vector_const_iterator@V?$_Vector_val@U?$_Simple_types@UCSignat@@@std@@@std@@@2@XZ 10060320 f i StructDictLib:ItemsContainer.obj
 0001:0005f370       ?begin@?$vector@UTDomItem@@V?$allocator@UTDomItem@@@std@@@std@@QBE?AV?$_Vector_const_iterator@V?$_Vector_val@U?$_Simple_types@UTDomItem@@@std@@@std@@@2@XZ 10060370 f i StructDictLib:ItemsContainer.obj
 0001:0005f3c0       ?capacity@?$basic_string@DU?$char_traits@D@std@@V?$allocator@D@2@@std@@QBEIXZ 100603c0 f i StructDictLib:ItemsContainer.obj
 0001:0005f3f0       ?capacity@?$vector@UCDomen@@V?$allocator@UCDomen@@@std@@@std@@QBEIXZ 100603f0 f i StructDictLib:ItemsContainer.obj
 0001:0005f430       ?capacity@?$vector@UCField@@V?$allocator@UCField@@@std@@@std@@QBEIXZ 10060430 f i StructDictLib:ItemsContainer.obj
 0001:0005f470       ?capacity@?$vector@UTDomItem@@V?$allocator@UTDomItem@@@std@@@std@@QBEIXZ 10060470 f i StructDictLib:ItemsContainer.obj
 0001:0005f4b0       ?clear@?$_Tree@V?$_Tmap_traits@V?$basic_string@DU?$char_traits@D@std@@V?$allocator@D@2@@std@@V12@U?$less@V?$basic_string@DU?$char_traits@D@std@@V?$allocator@D@2@@std@@@2@V?$allocator@U?$pair@$$CBV?$basic_string@DU?$char_traits@D@std@@V?$allocator@D@2@@std@@V12@@std@@@2@$0A@@std@@@std@@QAEXXZ 100604b0 f i StructDictLib:ItemsContainer.obj
 0001:0005f550       ?clear@?$vector@UCDomen@@V?$allocator@UCDomen@@@std@@@std@@QAEXXZ 10060550 f i StructDictLib:ItemsContainer.obj
 0001:0005f5c0       ?clear@?$vector@UCField@@V?$allocator@UCField@@@std@@@std@@QAEXXZ 100605c0 f i StructDictLib:ItemsContainer.obj
 0001:0005f630       ?clear@?$vector@UTDomItem@@V?$allocator@UTDomItem@@@std@@@std@@QAEXXZ 10060630 f i StructDictLib:ItemsContainer.obj
 0001:0005f6a0       ?construct@?$_Wrap_alloc@V?$allocator@UCField@@@std@@@std@@QAEXPAUCField@@@Z 100606a0 f i StructDictLib:ItemsContainer.obj
 0001:0005f6f0       ?construct@?$allocator@E@std@@QAEXPAEABE@Z 100606f0 f i StructDictLib:ItemsContainer.obj
 0001:0005f770       ?construct@?$allocator@UCDomen@@@std@@QAEXPAUCDomen@@ABU3@@Z 10060770 f i StructDictLib:ItemsContainer.obj
 0001:0005f800       ?construct@?$allocator@UCField@@@std@@QAEXPAUCField@@@Z 10060800 f i StructDictLib:ItemsContainer.obj
 0001:0005f8c0       ?construct@?$allocator@UTDomItem@@@std@@QAEXPAUTDomItem@@ABU3@@Z 100608c0 f i StructDictLib:ItemsContainer.obj
 0001:0005f950       ?deallocate@?$_Wrap_alloc@V?$allocator@U?$_Tree_node@U?$pair@$$CBV?$basic_string@DU?$char_traits@D@std@@V?$allocator@D@2@@std@@V12@@std@@PAX@std@@@std@@@std@@QAEXPAU?$_Tree_node@U?$pair@$$CBV?$basic_string@DU?$char_traits@D@std@@V?$allocator@D@2@@std@@V12@@std@@PAX@2@I@Z 10060950 f i StructDictLib:ItemsContainer.obj
 0001:0005f9a0       ?deallocate@?$_Wrap_alloc@V?$allocator@UCDomen@@@std@@@std@@QAEXPAUCDomen@@I@Z 100609a0 f i StructDictLib:ItemsContainer.obj
 0001:0005f9f0       ?deallocate@?$_Wrap_alloc@V?$allocator@UCField@@@std@@@std@@QAEXPAUCField@@I@Z 100609f0 f i StructDictLib:ItemsContainer.obj
 0001:0005fa40       ?deallocate@?$_Wrap_alloc@V?$allocator@UTDomItem@@@std@@@std@@QAEXPAUTDomItem@@I@Z 10060a40 f i StructDictLib:ItemsContainer.obj
 0001:0005fa90       ?deallocate@?$allocator@U?$_Tree_node@U?$pair@$$CBV?$basic_string@DU?$char_traits@D@std@@V?$allocator@D@2@@std@@V12@@std@@PAX@std@@@std@@QAEXPAU?$_Tree_node@U?$pair@$$CBV?$basic_string@DU?$char_traits@D@std@@V?$allocator@D@2@@std@@V12@@std@@PAX@2@I@Z 10060a90 f i StructDictLib:ItemsContainer.obj
 0001:0005fae0       ?deallocate@?$allocator@UCDomen@@@std@@QAEXPAUCDomen@@I@Z 10060ae0 f i StructDictLib:ItemsContainer.obj
 0001:0005fb30       ?deallocate@?$allocator@UCField@@@std@@QAEXPAUCField@@I@Z 10060b30 f i StructDictLib:ItemsContainer.obj
 0001:0005fb80       ?deallocate@?$allocator@UTDomItem@@@std@@QAEXPAUTDomItem@@I@Z 10060b80 f i StructDictLib:ItemsContainer.obj
 0001:0005fbd0       ?end@?$_Tree@V?$_Tmap_traits@V?$basic_string@DU?$char_traits@D@std@@V?$allocator@D@2@@std@@V12@U?$less@V?$basic_string@DU?$char_traits@D@std@@V?$allocator@D@2@@std@@@2@V?$allocator@U?$pair@$$CBV?$basic_string@DU?$char_traits@D@std@@V?$allocator@D@2@@std@@V12@@std@@@2@$0A@@std@@@std@@QAE?AV?$_Tree_iterator@V?$_Tree_val@U?$_Tree_simple_types@U?$pair@$$CBV?$basic_string@DU?$char_traits@D@std@@V?$allocator@D@2@@std@@V12@@std@@@std@@@std@@@2@XZ 10060bd0 f i StructDictLib:ItemsContainer.obj
 0001:0005fc20       ?end@?$vector@UCSignat@@V?$allocator@UCSignat@@@std@@@std@@QAE?AV?$_Vector_iterator@V?$_Vector_val@U?$_Simple_types@UCSignat@@@std@@@std@@@2@XZ 10060c20 f i StructDictLib:ItemsContainer.obj
 0001:0005fc70       ?end@?$vector@UCSignat@@V?$allocator@UCSignat@@@std@@@std@@QBE?AV?$_Vector_const_iterator@V?$_Vector_val@U?$_Simple_types@UCSignat@@@std@@@std@@@2@XZ 10060c70 f i StructDictLib:ItemsContainer.obj
 0001:0005fcc0       ?end@?$vector@UTDomItem@@V?$allocator@UTDomItem@@@std@@@std@@QBE?AV?$_Vector_const_iterator@V?$_Vector_val@U?$_Simple_types@UTDomItem@@@std@@@std@@@2@XZ 10060cc0 f i StructDictLib:ItemsContainer.obj
 0001:0005fd10       ?erase@?$_Tree@V?$_Tmap_traits@V?$basic_string@DU?$char_traits@D@std@@V?$allocator@D@2@@std@@V12@U?$less@V?$basic_string@DU?$char_traits@D@std@@V?$allocator@D@2@@std@@@2@V?$allocator@U?$pair@$$CBV?$basic_string@DU?$char_traits@D@std@@V?$allocator@D@2@@std@@V12@@std@@@2@$0A@@std@@@std@@QAE?AV?$_Tree_iterator@V?$_Tree_val@U?$_Tree_simple_types@U?$pair@$$CBV?$basic_string@DU?$char_traits@D@std@@V?$allocator@D@2@@std@@V12@@std@@@std@@@std@@@2@V?$_Tree_const_iterator@V?$_Tree_val@U?$_Tree_simple_types@U?$pair@$$CBV?$basic_string@DU?$char_traits@D@std@@V?$allocator@D@2@@std@@V12@@std@@@std@@@std@@@2@0@Z 10060d10 f i StructDictLib:ItemsContainer.obj
 0001:0005ff90       ?erase@?$_Tree@V?$_Tmap_traits@V?$basic_string@DU?$char_traits@D@std@@V?$allocator@D@2@@std@@V12@U?$less@V?$basic_string@DU?$char_traits@D@std@@V?$allocator@D@2@@std@@@2@V?$allocator@U?$pair@$$CBV?$basic_string@DU?$char_traits@D@std@@V?$allocator@D@2@@std@@V12@@std@@@2@$0A@@std@@@std@@QAE?AV?$_Tree_iterator@V?$_Tree_val@U?$_Tree_simple_types@U?$pair@$$CBV?$basic_string@DU?$char_traits@D@std@@V?$allocator@D@2@@std@@V12@@std@@@std@@@std@@@2@V?$_Tree_const_iterator@V?$_Tree_val@U?$_Tree_simple_types@U?$pair@$$CBV?$basic_string@DU?$char_traits@D@std@@V?$allocator@D@2@@std@@V12@@std@@@std@@@std@@@2@@Z 10060f90 f i StructDictLib:ItemsContainer.obj
 0001:000607f0       ?insert@?$basic_string@DU?$char_traits@D@std@@V?$allocator@D@2@@std@@QAEAAV12@IABV12@@Z 100617f0 f i StructDictLib:ItemsContainer.obj
 0001:00060840       ?insert@?$basic_string@DU?$char_traits@D@std@@V?$allocator@D@2@@std@@QAEAAV12@IABV12@II@Z 10061840 f i StructDictLib:ItemsContainer.obj
 0001:000609b0       ?lower_bound@?$_Tree@V?$_Tmap_traits@V?$basic_string@DU?$char_traits@D@std@@V?$allocator@D@2@@std@@V12@U?$less@V?$basic_string@DU?$char_traits@D@std@@V?$allocator@D@2@@std@@@2@V?$allocator@U?$pair@$$CBV?$basic_string@DU?$char_traits@D@std@@V?$allocator@D@2@@std@@V12@@std@@@2@$0A@@std@@@std@@QAE?AV?$_Tree_iterator@V?$_Tree_val@U?$_Tree_simple_types@U?$pair@$$CBV?$basic_string@DU?$char_traits@D@std@@V?$allocator@D@2@@std@@V12@@std@@@std@@@std@@@2@ABV?$basic_string@DU?$char_traits@D@std@@V?$allocator@D@2@@2@@Z 100619b0 f i StructDictLib:ItemsContainer.obj
 0001:00060a20       ?max_size@?$_Tree@V?$_Tmap_traits@V?$basic_string@DU?$char_traits@D@std@@V?$allocator@D@2@@std@@V12@U?$less@V?$basic_string@DU?$char_traits@D@std@@V?$allocator@D@2@@std@@@2@V?$allocator@U?$pair@$$CBV?$basic_string@DU?$char_traits@D@std@@V?$allocator@D@2@@std@@V12@@std@@@2@$0A@@std@@@std@@QBEIXZ 10061a20 f i StructDictLib:ItemsContainer.obj
 0001:00060a70       ?max_size@?$_Wrap_alloc@V?$allocator@U?$_Tree_node@U?$pair@$$CBV?$basic_string@DU?$char_traits@D@std@@V?$allocator@D@2@@std@@V12@@std@@PAX@std@@@std@@@std@@QBEIXZ 10061a70 f i StructDictLib:ItemsContainer.obj
 0001:00060ac0       ?max_size@?$_Wrap_alloc@V?$allocator@UCDomen@@@std@@@std@@QBEIXZ 10061ac0 f i StructDictLib:ItemsContainer.obj
 0001:00060b10       ?max_size@?$_Wrap_alloc@V?$allocator@UCField@@@std@@@std@@QBEIXZ 10061b10 f i StructDictLib:ItemsContainer.obj
 0001:00060b60       ?max_size@?$_Wrap_alloc@V?$allocator@UTDomItem@@@std@@@std@@QBEIXZ 10061b60 f i StructDictLib:ItemsContainer.obj
 0001:00060bb0       ?max_size@?$allocator@U?$_Tree_node@U?$pair@$$CBV?$basic_string@DU?$char_traits@D@std@@V?$allocator@D@2@@std@@V12@@std@@PAX@std@@@std@@QBEIXZ 10061bb0 f i StructDictLib:ItemsContainer.obj
 0001:00060be0       ?max_size@?$allocator@UCDomen@@@std@@QBEIXZ 10061be0 f i StructDictLib:ItemsContainer.obj
 0001:00060c10       ?max_size@?$allocator@UCField@@@std@@QBEIXZ 10061c10 f i StructDictLib:ItemsContainer.obj
 0001:00060c40       ?max_size@?$allocator@UTDomItem@@@std@@QBEIXZ 10061c40 f i StructDictLib:ItemsContainer.obj
 0001:00060c70       ?max_size@?$allocator_traits@V?$allocator@U?$_Tree_node@U?$pair@$$CBV?$basic_string@DU?$char_traits@D@std@@V?$allocator@D@2@@std@@V12@@std@@PAX@std@@@std@@@std@@SAIABV?$allocator@U?$_Tree_node@U?$pair@$$CBV?$basic_string@DU?$char_traits@D@std@@V?$allocator@D@2@@std@@V12@@std@@PAX@std@@@2@@Z 10061c70 f i StructDictLib:ItemsContainer.obj
 0001:00060cb0       ?max_size@?$allocator_traits@V?$allocator@UCDomen@@@std@@@std@@SAIABV?$allocator@UCDomen@@@2@@Z 10061cb0 f i StructDictLib:ItemsContainer.obj
 0001:00060cf0       ?max_size@?$allocator_traits@V?$allocator@UCField@@@std@@@std@@SAIABV?$allocator@UCField@@@2@@Z 10061cf0 f i StructDictLib:ItemsContainer.obj
 0001:00060d30       ?max_size@?$allocator_traits@V?$allocator@UTDomItem@@@std@@@std@@SAIABV?$allocator@UTDomItem@@@2@@Z 10061d30 f i StructDictLib:ItemsContainer.obj
 0001:00060d70       ?max_size@?$vector@UCDomen@@V?$allocator@UCDomen@@@std@@@std@@QBEIXZ 10061d70 f i StructDictLib:ItemsContainer.obj
 0001:00060dc0       ?max_size@?$vector@UCField@@V?$allocator@UCField@@@std@@@std@@QBEIXZ 10061dc0 f i StructDictLib:ItemsContainer.obj
 0001:00060e10       ?max_size@?$vector@UTDomItem@@V?$allocator@UTDomItem@@@std@@@std@@QBEIXZ 10061e10 f i StructDictLib:ItemsContainer.obj
 0001:00060e60       ?pointer_to@?$pointer_traits@PAU?$pair@$$CBV?$basic_string@DU?$char_traits@D@std@@V?$allocator@D@2@@std@@V12@@std@@@std@@SAPAU?$pair@$$CBV?$basic_string@DU?$char_traits@D@std@@V?$allocator@D@2@@std@@V12@@2@AAU32@@Z 10061e60 f i StructDictLib:ItemsContainer.obj
 0001:00060ea0       ?push_back@?$vector@EV?$allocator@E@std@@@std@@QAEXABE@Z 10061ea0 f i StructDictLib:ItemsContainer.obj
 0001:00060fd0       ?push_back@?$vector@UCDomen@@V?$allocator@UCDomen@@@std@@@std@@QAEXABUCDomen@@@Z 10061fd0 f i StructDictLib:ItemsContainer.obj
 0001:00061120       ?push_back@?$vector@UTDomItem@@V?$allocator@UTDomItem@@@std@@@std@@QAEXABUTDomItem@@@Z 10062120 f i StructDictLib:ItemsContainer.obj
 0001:00061260       ?push_back@?$vector@UTSignatItem@@V?$allocator@UTSignatItem@@@std@@@std@@QAEX$$QAUTSignatItem@@@Z 10062260 f i StructDictLib:ItemsContainer.obj
 0001:000613b0       ?resize@?$vector@UCField@@V?$allocator@UCField@@@std@@@std@@QAEXI@Z 100623b0 f i StructDictLib:ItemsContainer.obj
 0001:00061510       ?select_on_container_copy_construction@?$_Wrap_alloc@V?$allocator@UCSignat@@@std@@@std@@QBE?AU12@XZ 10062510 f i StructDictLib:ItemsContainer.obj
 0001:00061570       ?select_on_container_copy_construction@?$allocator@UCSignat@@@std@@QBE?AV12@XZ 10062570 f i StructDictLib:ItemsContainer.obj
 0001:000615c0       ?select_on_container_copy_construction@?$allocator_traits@V?$allocator@UCSignat@@@std@@@std@@SA?AV?$allocator@UCSignat@@@2@ABV32@@Z 100625c0 f i StructDictLib:ItemsContainer.obj
 0001:00061610       ?size@?$_Tree@V?$_Tmap_traits@V?$basic_string@DU?$char_traits@D@std@@V?$allocator@D@2@@std@@V12@U?$less@V?$basic_string@DU?$char_traits@D@std@@V?$allocator@D@2@@std@@@2@V?$allocator@U?$pair@$$CBV?$basic_string@DU?$char_traits@D@std@@V?$allocator@D@2@@std@@V12@@std@@@2@$0A@@std@@@std@@QBEIXZ 10062610 f i StructDictLib:ItemsContainer.obj
 0001:00061640       ??$?0AAPAVCStructEntry@@AAPAV0@X@?$pair@PAVCStructEntry@@PAV1@@std@@QAE@AAPAVCStructEntry@@0@Z 10062640 f i StructDictLib:Ross.obj
 0001:000616b0       ??$?0AAPAVTUnitComment@@AAPAV0@X@?$pair@PAVTUnitComment@@PAV1@@std@@QAE@AAPAVTUnitComment@@0@Z 100626b0 f i StructDictLib:Ross.obj
 0001:00061720       ??$?HDU?$char_traits@D@std@@V?$allocator@D@1@@std@@YA?AV?$basic_string@DU?$char_traits@D@std@@V?$allocator@D@2@@0@ABV10@$$QAV10@@Z 10062720 f i StructDictLib:Ross.obj
 0001:00061790       ??$?RAAVCStructEntry@@AAV0@@?$less@X@std@@QBE_NAAVCStructEntry@@0@Z 10062790 f i StructDictLib:Ross.obj
 0001:000617e0       ??$?RAAVCStructEntry@@ABV0@@?$less@X@std@@QBE_NAAVCStructEntry@@ABV2@@Z 100627e0 f i StructDictLib:Ross.obj
 0001:00061830       ??$?RAAVTUnitComment@@AAV0@@?$less@X@std@@QBE_NAAVTUnitComment@@0@Z 10062830 f i StructDictLib:Ross.obj
 0001:00061880       ??$?RAAVTUnitComment@@ABV0@@?$less@X@std@@QBE_NAAVTUnitComment@@ABV2@@Z 10062880 f i StructDictLib:Ross.obj
 0001:000618d0       ??$?RABVTUnitComment@@ABV0@@?$less@X@std@@QBE_NABVTUnitComment@@0@Z 100628d0 f i StructDictLib:Ross.obj
 0001:00061920       ??$ReadVector@U?$TBasicCortege@$02@@@@YAXABV?$basic_string@DU?$char_traits@D@std@@V?$allocator@D@2@@std@@AAV?$vector@U?$TBasicCortege@$02@@V?$allocator@U?$TBasicCortege@$02@@@std@@@1@@Z 10062920 f i StructDictLib:Ross.obj
 0001:00061aa0       ??$ReadVector@U?$TBasicCortege@$09@@@@YAXABV?$basic_string@DU?$char_traits@D@std@@V?$allocator@D@2@@std@@AAV?$vector@U?$TBasicCortege@$09@@V?$allocator@U?$TBasicCortege@$09@@@std@@@1@@Z 10062aa0 f i StructDictLib:Ross.obj
 0001:00061c20       ??$ReadVector@VCStructEntry@@@@YAXABV?$basic_string@DU?$char_traits@D@std@@V?$allocator@D@2@@std@@AAV?$vector@VCStructEntry@@V?$allocator@VCStructEntry@@@std@@@1@@Z 10062c20 f i StructDictLib:Ross.obj
 0001:00061dc0       ??$ReadVector@VTUnitComment@@@@YAXABV?$basic_string@DU?$char_traits@D@std@@V?$allocator@D@2@@std@@AAV?$vector@VTUnitComment@@V?$allocator@VTUnitComment@@@std@@@1@@Z 10062dc0 f i StructDictLib:Ross.obj
 0001:00061f50       ??$ReadVectorInner@U?$TBasicCortege@$02@@@@YAXPAU_iobuf@@AAV?$vector@U?$TBasicCortege@$02@@V?$allocator@U?$TBasicCortege@$02@@@std@@@std@@I@Z 10062f50 f i StructDictLib:Ross.obj
 0001:00062340       ??$ReadVectorInner@U?$TBasicCortege@$09@@@@YAXPAU_iobuf@@AAV?$vector@U?$TBasicCortege@$09@@V?$allocator@U?$TBasicCortege@$09@@@std@@@std@@I@Z 10063340 f i StructDictLib:Ross.obj
 0001:00062730       ??$ReadVectorInner@VCStructEntry@@@@YAXPAU_iobuf@@AAV?$vector@VCStructEntry@@V?$allocator@VCStructEntry@@@std@@@std@@I@Z 10063730 f i StructDictLib:Ross.obj
 0001:00062b30       ??$ReadVectorInner@VTUnitComment@@@@YAXPAU_iobuf@@AAV?$vector@VTUnitComment@@V?$allocator@VTUnitComment@@@std@@@std@@I@Z 10063b30 f i StructDictLib:Ross.obj
 0001:00062f40       ??$WriteVector@U?$TBasicCortege@$02@@@@YA_NABV?$basic_string@DU?$char_traits@D@std@@V?$allocator@D@2@@std@@ABV?$vector@U?$TBasicCortege@$02@@V?$allocator@U?$TBasicCortege@$02@@@std@@@1@@Z 10063f40 f i StructDictLib:Ross.obj
 0001:00063060       ??$WriteVector@U?$TBasicCortege@$09@@@@YA_NABV?$basic_string@DU?$char_traits@D@std@@V?$allocator@D@2@@std@@ABV?$vector@U?$TBasicCortege@$09@@V?$allocator@U?$TBasicCortege@$09@@@std@@@1@@Z 10064060 f i StructDictLib:Ross.obj
 0001:00063180       ??$WriteVector@VCStructEntry@@@@YA_NABV?$basic_string@DU?$char_traits@D@std@@V?$allocator@D@2@@std@@ABV?$vector@VCStructEntry@@V?$allocator@VCStructEntry@@@std@@@1@@Z 10064180 f i StructDictLib:Ross.obj
 0001:000632a0       ??$WriteVector@VTUnitComment@@@@YA_NABV?$basic_string@DU?$char_traits@D@std@@V?$allocator@D@2@@std@@ABV?$vector@VTUnitComment@@V?$allocator@VTUnitComment@@@std@@@1@@Z 100642a0 f i StructDictLib:Ross.obj
 0001:000633c0       ??$WriteVectorInner@U?$TBasicCortege@$02@@@@YA_NPAU_iobuf@@ABV?$vector@U?$TBasicCortege@$02@@V?$allocator@U?$TBasicCortege@$02@@@std@@@std@@@Z 100643c0 f i StructDictLib:Ross.obj
 0001:000635d0       ??$WriteVectorInner@U?$TBasicCortege@$09@@@@YA_NPAU_iobuf@@ABV?$vector@U?$TBasicCortege@$09@@V?$allocator@U?$TBasicCortege@$09@@@std@@@std@@@Z 100645d0 f i StructDictLib:Ross.obj
 0001:000637e0       ??$WriteVectorInner@VCStructEntry@@@@YA_NPAU_iobuf@@ABV?$vector@VCStructEntry@@V?$allocator@VCStructEntry@@@std@@@std@@@Z 100647e0 f i StructDictLib:Ross.obj
 0001:00063a00       ??$WriteVectorInner@VTUnitComment@@@@YA_NPAU_iobuf@@ABV?$vector@VTUnitComment@@V?$allocator@VTUnitComment@@@std@@@std@@@Z 10064a00 f i StructDictLib:Ross.obj
 0001:00063c20       ??$_Adjust_heap@PAVCStructEntry@@HV1@U?$less@X@std@@@std@@YAXPAVCStructEntry@@HH$$QAV1@U?$less@X@0@@Z 10064c20 f i StructDictLib:Ross.obj
 0001:00063d40       ??$_Adjust_heap@PAVTUnitComment@@HV1@U?$less@X@std@@@std@@YAXPAVTUnitComment@@HH$$QAV1@U?$less@X@0@@Z 10064d40 f i StructDictLib:Ross.obj
 0001:00063e70       ??$_Advance@PAUTDomItem@@H@std@@YAXAAPAUTDomItem@@HUrandom_access_iterator_tag@0@@Z 10064e70 f i StructDictLib:Ross.obj
 0001:00063eb0       ??$_Advance@PAVCStructEntry@@H@std@@YAXAAPAVCStructEntry@@HUrandom_access_iterator_tag@0@@Z 10064eb0 f i StructDictLib:Ross.obj
 0001:00063ef0       ??$_Advance@PAVTUnitComment@@H@std@@YAXAAPAVTUnitComment@@HUrandom_access_iterator_tag@0@@Z 10064ef0 f i StructDictLib:Ross.obj
 0001:00063f30       ??$_Advance@PBVTUnitComment@@H@std@@YAXAAPBVTUnitComment@@HUrandom_access_iterator_tag@0@@Z 10064f30 f i StructDictLib:Ross.obj
 0001:00063f70       ??$_Allocate@U?$TBasicCortege@$02@@@std@@YAPAU?$TBasicCortege@$02@@IPAU1@@Z 10064f70 f i StructDictLib:Ross.obj
 0001:00063ff0       ??$_Allocate@U?$TBasicCortege@$09@@@std@@YAPAU?$TBasicCortege@$09@@IPAU1@@Z 10064ff0 f i StructDictLib:Ross.obj
 0001:00064070       ??$_Allocate@UCSourceLine@@@std@@YAPAUCSourceLine@@IPAU1@@Z 10065070 f i StructDictLib:Ross.obj
 0001:000640f0       ??$_Allocate@UTItemStr@@@std@@YAPAUTItemStr@@IPAU1@@Z 100650f0 f i StructDictLib:Ross.obj
 0001:00064170       ??$_Allocate@VCStructEntry@@@std@@YAPAVCStructEntry@@IPAV1@@Z 10065170 f i StructDictLib:Ross.obj
 0001:000641f0       ??$_Allocate@VTUnitComment@@@std@@YAPAVTUnitComment@@IPAV1@@Z 100651f0 f i StructDictLib:Ross.obj
 0001:00064270       ??$_Copy_backward@PAUTDomItem@@PAU1@@std@@YAPAUTDomItem@@PAU1@00@Z 10065270 f i StructDictLib:Ross.obj
 0001:000642e0       ??$_Copy_backward@PAUTDomItem@@PAU1@@std@@YAPAUTDomItem@@PAU1@00U_Nonscalar_ptr_iterator_tag@0@@Z 100652e0 f i StructDictLib:Ross.obj
 0001:00064340       ??$_Copy_backward@PAVCStructEntry@@PAV1@@std@@YAPAVCStructEntry@@PAV1@00@Z 10065340 f i StructDictLib:Ross.obj
 0001:000643b0       ??$_Copy_backward@PAVCStructEntry@@PAV1@@std@@YAPAVCStructEntry@@PAV1@00U_Nonscalar_ptr_iterator_tag@0@@Z 100653b0 f i StructDictLib:Ross.obj
 0001:00064410       ??$_Copy_backward@PAVTUnitComment@@PAV1@@std@@YAPAVTUnitComment@@PAV1@00@Z 10065410 f i StructDictLib:Ross.obj
 0001:00064480       ??$_Copy_backward@PAVTUnitComment@@PAV1@@std@@YAPAVTUnitComment@@PAV1@00U_Nonscalar_ptr_iterator_tag@0@@Z 10065480 f i StructDictLib:Ross.obj
 0001:000644e0       ??$_Debug_heap@PAVCStructEntry@@U?$less@X@std@@@std@@YAXPAVCStructEntry@@0U?$less@X@0@@Z 100654e0 f i StructDictLib:Ross.obj
 0001:000645f0       ??$_Debug_heap@PAVTUnitComment@@U?$less@X@std@@@std@@YAXPAVTUnitComment@@0U?$less@X@0@@Z 100655f0 f i StructDictLib:Ross.obj
 0001:00064710       ??$_Debug_lt_pred@U?$less@X@std@@AAVCStructEntry@@AAV3@@std@@YA_NU?$less@X@0@AAVCStructEntry@@1PB_WI@Z 10065710 f i StructDictLib:Ross.obj
 0001:000647c0       ??$_Debug_lt_pred@U?$less@X@std@@AAVTUnitComment@@AAV3@@std@@YA_NU?$less@X@0@AAVTUnitComment@@1PB_WI@Z 100657c0 f i StructDictLib:Ross.obj
 0001:00064870       ??$_Debug_pointer@U?$TBasicCortege@$02@@@std@@YAXPAU?$TBasicCortege@$02@@PB_WI@Z 10065870 f i StructDictLib:Ross.obj
 0001:000648d0       ??$_Debug_pointer@U?$TBasicCortege@$09@@@std@@YAXPAU?$TBasicCortege@$09@@PB_WI@Z 100658d0 f i StructDictLib:Ross.obj
 0001:00064930       ??$_Debug_pointer@UCSourceLine@@@std@@YAXPAUCSourceLine@@PB_WI@Z 10065930 f i StructDictLib:Ross.obj
 0001:00064990       ??$_Debug_pointer@UTItemStr@@@std@@YAXPAUTItemStr@@PB_WI@Z 10065990 f i StructDictLib:Ross.obj
 0001:000649f0       ??$_Debug_pointer@V?$_Vector_iterator@V?$_Vector_val@U?$_Simple_types@VCStructEntry@@@std@@@std@@@std@@@std@@YAXAAV?$_Vector_iterator@V?$_Vector_val@U?$_Simple_types@VCStructEntry@@@std@@@std@@@0@PB_WI@Z 100659f0 f i StructDictLib:Ross.obj
 0001:00064a20       ??$_Debug_pointer@V?$_Vector_iterator@V?$_Vector_val@U?$_Simple_types@VTUnitComment@@@std@@@std@@@std@@@std@@YAXAAV?$_Vector_iterator@V?$_Vector_val@U?$_Simple_types@VTUnitComment@@@std@@@std@@@0@PB_WI@Z 10065a20 f i StructDictLib:Ross.obj
 0001:00064a50       ??$_Debug_pointer@VCStructEntry@@@std@@YAXPAVCStructEntry@@PB_WI@Z 10065a50 f i StructDictLib:Ross.obj
 0001:00064ab0       ??$_Debug_pointer@VTUnitComment@@@std@@YAXPAVTUnitComment@@PB_WI@Z 10065ab0 f i StructDictLib:Ross.obj
 0001:00064b10       ??$_Debug_pointer@VTUnitComment@@@std@@YAXPBVTUnitComment@@PB_WI@Z 10065b10 f i StructDictLib:Ross.obj
 0001:00064b70       ??$_Debug_range2@PAU?$TBasicCortege@$02@@@std@@YAXPAU?$TBasicCortege@$02@@0PB_WIUrandom_access_iterator_tag@0@@Z 10065b70 f i StructDictLib:Ross.obj
 0001:00064c00       ??$_Debug_range2@PAU?$TBasicCortege@$09@@@std@@YAXPAU?$TBasicCortege@$09@@0PB_WIUrandom_access_iterator_tag@0@@Z 10065c00 f i StructDictLib:Ross.obj
 0001:00064c90       ??$_Debug_range2@PAUCSourceLine@@@std@@YAXPAUCSourceLine@@0PB_WIUrandom_access_iterator_tag@0@@Z 10065c90 f i StructDictLib:Ross.obj
 0001:00064d20       ??$_Debug_range2@PAUTItemStr@@@std@@YAXPAUTItemStr@@0PB_WIUrandom_access_iterator_tag@0@@Z 10065d20 f i StructDictLib:Ross.obj
 0001:00064db0       ??$_Debug_range2@PAVCStructEntry@@@std@@YAXPAVCStructEntry@@0PB_WIUrandom_access_iterator_tag@0@@Z 10065db0 f i StructDictLib:Ross.obj
 0001:00064e40       ??$_Debug_range2@PAVTUnitComment@@@std@@YAXPAVTUnitComment@@0PB_WIUrandom_access_iterator_tag@0@@Z 10065e40 f i StructDictLib:Ross.obj
 0001:00064ed0       ??$_Debug_range2@V?$_Vector_iterator@V?$_Vector_val@U?$_Simple_types@VCStructEntry@@@std@@@std@@@std@@@std@@YAXV?$_Vector_iterator@V?$_Vector_val@U?$_Simple_types@VCStructEntry@@@std@@@std@@@0@0PB_WIUrandom_access_iterator_tag@0@@Z 10065ed0 f i StructDictLib:Ross.obj
 0001:00064fc0       ??$_Debug_range2@V?$_Vector_iterator@V?$_Vector_val@U?$_Simple_types@VTUnitComment@@@std@@@std@@@std@@@std@@YAXV?$_Vector_iterator@V?$_Vector_val@U?$_Simple_types@VTUnitComment@@@std@@@std@@@0@0PB_WIUrandom_access_iterator_tag@0@@Z 10065fc0 f i StructDictLib:Ross.obj
 0001:000650b0       ??$_Debug_range@PAU?$TBasicCortege@$02@@@std@@YAXPAU?$TBasicCortege@$02@@0PB_WI@Z 100660b0 f i StructDictLib:Ross.obj
 0001:00065120       ??$_Debug_range@PAU?$TBasicCortege@$09@@@std@@YAXPAU?$TBasicCortege@$09@@0PB_WI@Z 10066120 f i StructDictLib:Ross.obj
 0001:00065190       ??$_Debug_range@PAUCSourceLine@@@std@@YAXPAUCSourceLine@@0PB_WI@Z 10066190 f i StructDictLib:Ross.obj
 0001:00065200       ??$_Debug_range@PAUTItemStr@@@std@@YAXPAUTItemStr@@0PB_WI@Z 10066200 f i StructDictLib:Ross.obj
 0001:00065270       ??$_Debug_range@PAVCStructEntry@@@std@@YAXPAVCStructEntry@@0PB_WI@Z 10066270 f i StructDictLib:Ross.obj
 0001:000652e0       ??$_Debug_range@PAVTUnitComment@@@std@@YAXPAVTUnitComment@@0PB_WI@Z 100662e0 f i StructDictLib:Ross.obj
 0001:00065350       ??$_Debug_range@V?$_Vector_iterator@V?$_Vector_val@U?$_Simple_types@VCStructEntry@@@std@@@std@@@std@@@std@@YAXV?$_Vector_iterator@V?$_Vector_val@U?$_Simple_types@VCStructEntry@@@std@@@std@@@0@0PB_WI@Z 10066350 f i StructDictLib:Ross.obj
 0001:00065440       ??$_Debug_range@V?$_Vector_iterator@V?$_Vector_val@U?$_Simple_types@VTUnitComment@@@std@@@std@@@std@@@std@@YAXV?$_Vector_iterator@V?$_Vector_val@U?$_Simple_types@VTUnitComment@@@std@@@std@@@0@0PB_WI@Z 10066440 f i StructDictLib:Ross.obj
 0001:00065530       ??$_Destroy_range@U?$_Wrap_alloc@V?$allocator@U?$TBasicCortege@$02@@@std@@@std@@@std@@YAXPAU?$TBasicCortege@$02@@0AAU?$_Wrap_alloc@V?$allocator@U?$TBasicCortege@$02@@@std@@@0@@Z 10066530 f i StructDictLib:Ross.obj
 0001:000655a0       ??$_Destroy_range@U?$_Wrap_alloc@V?$allocator@U?$TBasicCortege@$02@@@std@@@std@@@std@@YAXPAU?$TBasicCortege@$02@@0AAU?$_Wrap_alloc@V?$allocator@U?$TBasicCortege@$02@@@std@@@0@U_Nonscalar_ptr_iterator_tag@0@@Z 100665a0 f i StructDictLib:Ross.obj
 0001:00065600       ??$_Destroy_range@U?$_Wrap_alloc@V?$allocator@U?$TBasicCortege@$09@@@std@@@std@@@std@@YAXPAU?$TBasicCortege@$09@@0AAU?$_Wrap_alloc@V?$allocator@U?$TBasicCortege@$09@@@std@@@0@@Z 10066600 f i StructDictLib:Ross.obj
 0001:00065670       ??$_Destroy_range@U?$_Wrap_alloc@V?$allocator@U?$TBasicCortege@$09@@@std@@@std@@@std@@YAXPAU?$TBasicCortege@$09@@0AAU?$_Wrap_alloc@V?$allocator@U?$TBasicCortege@$09@@@std@@@0@U_Nonscalar_ptr_iterator_tag@0@@Z 10066670 f i StructDictLib:Ross.obj
 0001:000656d0       ??$_Destroy_range@U?$_Wrap_alloc@V?$allocator@UCSourceLine@@@std@@@std@@@std@@YAXPAUCSourceLine@@0AAU?$_Wrap_alloc@V?$allocator@UCSourceLine@@@std@@@0@@Z 100666d0 f i StructDictLib:Ross.obj
 0001:00065740       ??$_Destroy_range@U?$_Wrap_alloc@V?$allocator@UCSourceLine@@@std@@@std@@@std@@YAXPAUCSourceLine@@0AAU?$_Wrap_alloc@V?$allocator@UCSourceLine@@@std@@@0@U_Nonscalar_ptr_iterator_tag@0@@Z 10066740 f i StructDictLib:Ross.obj
 0001:000657a0       ??$_Destroy_range@U?$_Wrap_alloc@V?$allocator@UTItemStr@@@std@@@std@@@std@@YAXPAUTItemStr@@0AAU?$_Wrap_alloc@V?$allocator@UTItemStr@@@std@@@0@@Z 100667a0 f i StructDictLib:Ross.obj
 0001:00065810       ??$_Destroy_range@U?$_Wrap_alloc@V?$allocator@UTItemStr@@@std@@@std@@@std@@YAXPAUTItemStr@@0AAU?$_Wrap_alloc@V?$allocator@UTItemStr@@@std@@@0@U_Nonscalar_ptr_iterator_tag@0@@Z 10066810 f i StructDictLib:Ross.obj
 0001:00065870       ??$_Destroy_range@U?$_Wrap_alloc@V?$allocator@VCStructEntry@@@std@@@std@@@std@@YAXPAVCStructEntry@@0AAU?$_Wrap_alloc@V?$allocator@VCStructEntry@@@std@@@0@@Z 10066870 f i StructDictLib:Ross.obj
 0001:000658e0       ??$_Destroy_range@U?$_Wrap_alloc@V?$allocator@VCStructEntry@@@std@@@std@@@std@@YAXPAVCStructEntry@@0AAU?$_Wrap_alloc@V?$allocator@VCStructEntry@@@std@@@0@U_Nonscalar_ptr_iterator_tag@0@@Z 100668e0 f i StructDictLib:Ross.obj
 0001:00065940       ??$_Destroy_range@U?$_Wrap_alloc@V?$allocator@VTUnitComment@@@std@@@std@@@std@@YAXPAVTUnitComment@@0AAU?$_Wrap_alloc@V?$allocator@VTUnitComment@@@std@@@0@@Z 10066940 f i StructDictLib:Ross.obj
 0001:000659b0       ??$_Destroy_range@U?$_Wrap_alloc@V?$allocator@VTUnitComment@@@std@@@std@@@std@@YAXPAVTUnitComment@@0AAU?$_Wrap_alloc@V?$allocator@VTUnitComment@@@std@@@0@U_Nonscalar_ptr_iterator_tag@0@@Z 100669b0 f i StructDictLib:Ross.obj
 0001:00065a10       ??$_Dist_type@PAVCStructEntry@@@std@@YAPAHPAVCStructEntry@@@Z 10066a10 f i StructDictLib:Ross.obj
 0001:00065a40       ??$_Dist_type@PAVTUnitComment@@@std@@YAPAHPAVTUnitComment@@@Z 10066a40 f i StructDictLib:Ross.obj
 0001:00065a70       ??$_Dist_type@V?$_Vector_const_iterator@V?$_Vector_val@U?$_Simple_types@VTUnitComment@@@std@@@std@@@std@@@std@@YAPAHV?$_Vector_const_iterator@V?$_Vector_val@U?$_Simple_types@VTUnitComment@@@std@@@std@@@0@@Z 10066a70 f i StructDictLib:Ross.obj
 0001:00065ac0       ??$_Dist_type@V?$_Vector_iterator@V?$_Vector_val@U?$_Simple_types@UTDomItem@@@std@@@std@@@std@@@std@@YAPAHV?$_Vector_iterator@V?$_Vector_val@U?$_Simple_types@UTDomItem@@@std@@@std@@@0@@Z 10066ac0 f i StructDictLib:Ross.obj
 0001:00065b10       ??$_Dist_type@V?$_Vector_iterator@V?$_Vector_val@U?$_Simple_types@VCStructEntry@@@std@@@std@@@std@@@std@@YAPAHV?$_Vector_iterator@V?$_Vector_val@U?$_Simple_types@VCStructEntry@@@std@@@std@@@0@@Z 10066b10 f i StructDictLib:Ross.obj
 0001:00065b60       ??$_Dist_type@V?$_Vector_iterator@V?$_Vector_val@U?$_Simple_types@VTUnitComment@@@std@@@std@@@std@@@std@@YAPAHV?$_Vector_iterator@V?$_Vector_val@U?$_Simple_types@VTUnitComment@@@std@@@std@@@0@@Z 10066b60 f i StructDictLib:Ross.obj
 0001:00065bb0       ??$_Distance2@PAUTDomItem@@H@std@@YAXPAUTDomItem@@0AAHUrandom_access_iterator_tag@0@@Z 10066bb0 f i StructDictLib:Ross.obj
 0001:00065c30       ??$_Distance2@PAVCStructEntry@@H@std@@YAXPAVCStructEntry@@0AAHUrandom_access_iterator_tag@0@@Z 10066c30 f i StructDictLib:Ross.obj
 0001:00065cb0       ??$_Distance2@PAVTUnitComment@@H@std@@YAXPAVTUnitComment@@0AAHUrandom_access_iterator_tag@0@@Z 10066cb0 f i StructDictLib:Ross.obj
 0001:00065d30       ??$_Distance2@PBVTUnitComment@@H@std@@YAXPBVTUnitComment@@0AAHUrandom_access_iterator_tag@0@@Z 10066d30 f i StructDictLib:Ross.obj
 0001:00065db0       ??$_Distance@PAUTDomItem@@H@std@@YAXPAUTDomItem@@0AAH@Z 10066db0 f i StructDictLib:Ross.obj
 0001:00065e10       ??$_Distance@PAVCStructEntry@@H@std@@YAXPAVCStructEntry@@0AAH@Z 10066e10 f i StructDictLib:Ross.obj
 0001:00065e70       ??$_Distance@PAVTUnitComment@@H@std@@YAXPAVTUnitComment@@0AAH@Z 10066e70 f i StructDictLib:Ross.obj
 0001:00065ed0       ??$_Distance@PBVTUnitComment@@H@std@@YAXPBVTUnitComment@@0AAH@Z 10066ed0 f i StructDictLib:Ross.obj
 0001:00065f30       ??$_Fill@PAUTDomItem@@U1@@std@@YAXPAUTDomItem@@0ABU1@@Z 10066f30 f i StructDictLib:Ross.obj
 0001:00065f80       ??$_Fill@PAVCStructEntry@@V1@@std@@YAXPAVCStructEntry@@0ABV1@@Z 10066f80 f i StructDictLib:Ross.obj
 0001:00065fd0       ??$_Fill@PAVTUnitComment@@V1@@std@@YAXPAVTUnitComment@@0ABV1@@Z 10066fd0 f i StructDictLib:Ross.obj
 0001:00066020       ??$_Find@PAUCSignat@@U1@@std@@YAPAUCSignat@@PAU1@0ABU1@@Z 10067020 f i StructDictLib:Ross.obj
 0001:00066080       ??$_Find@PAUCSignat@@U1@@std@@YAPAUCSignat@@PAU1@0ABU1@U?$integral_constant@_N$0A@@0@@Z 10067080 f i StructDictLib:Ross.obj
 0001:000660f0       ??$_Insertion_sort1@PAVCStructEntry@@U?$less@X@std@@V1@@std@@YAXPAVCStructEntry@@0U?$less@X@0@0@Z 100670f0 f i StructDictLib:Ross.obj
 0001:00066280       ??$_Insertion_sort1@PAVTUnitComment@@U?$less@X@std@@V1@@std@@YAXPAVTUnitComment@@0U?$less@X@0@0@Z 10067280 f i StructDictLib:Ross.obj
 0001:00066440       ??$_Insertion_sort@PAVCStructEntry@@U?$less@X@std@@@std@@YAXPAVCStructEntry@@0U?$less@X@0@@Z 10067440 f i StructDictLib:Ross.obj
 0001:000664a0       ??$_Insertion_sort@PAVTUnitComment@@U?$less@X@std@@@std@@YAXPAVTUnitComment@@0U?$less@X@0@@Z 100674a0 f i StructDictLib:Ross.obj
 0001:00066500       ??$_Iter_cat@PAU?$TBasicCortege@$02@@@std@@YA?AUrandom_access_iterator_tag@0@ABQAU?$TBasicCortege@$02@@@Z 10067500 f i StructDictLib:Ross.obj
 0001:00066560       ??$_Iter_cat@PAU?$TBasicCortege@$09@@@std@@YA?AUrandom_access_iterator_tag@0@ABQAU?$TBasicCortege@$09@@@Z 10067560 f i StructDictLib:Ross.obj
 0001:000665c0       ??$_Iter_cat@PAUCSourceLine@@@std@@YA?AUrandom_access_iterator_tag@0@ABQAUCSourceLine@@@Z 100675c0 f i StructDictLib:Ross.obj
 0001:00066620       ??$_Iter_cat@PAUTItemStr@@@std@@YA?AUrandom_access_iterator_tag@0@ABQAUTItemStr@@@Z 10067620 f i StructDictLib:Ross.obj
 0001:00066680       ??$_Iter_cat@PAVCStructEntry@@@std@@YA?AUrandom_access_iterator_tag@0@ABQAVCStructEntry@@@Z 10067680 f i StructDictLib:Ross.obj
 0001:000666e0       ??$_Iter_cat@PAVTUnitComment@@@std@@YA?AUrandom_access_iterator_tag@0@ABQAVTUnitComment@@@Z 100676e0 f i StructDictLib:Ross.obj
 0001:00066740       ??$_Iter_cat@PBVTUnitComment@@@std@@YA?AUrandom_access_iterator_tag@0@ABQBVTUnitComment@@@Z 10067740 f i StructDictLib:Ross.obj
 0001:000667a0       ??$_Iter_cat@V?$_Vector_iterator@V?$_Vector_val@U?$_Simple_types@VCStructEntry@@@std@@@std@@@std@@@std@@YA?AUrandom_access_iterator_tag@0@ABV?$_Vector_iterator@V?$_Vector_val@U?$_Simple_types@VCStructEntry@@@std@@@std@@@0@@Z 100677a0 f i StructDictLib:Ross.obj
 0001:00066800       ??$_Iter_cat@V?$_Vector_iterator@V?$_Vector_val@U?$_Simple_types@VTUnitComment@@@std@@@std@@@std@@@std@@YA?AUrandom_access_iterator_tag@0@ABV?$_Vector_iterator@V?$_Vector_val@U?$_Simple_types@VTUnitComment@@@std@@@std@@@0@@Z 10067800 f i StructDictLib:Ross.obj
 0001:00066860       ??$_Lower_bound@PAUTDomItem@@U1@HVIsLessByItemStrNew@@@std@@YAPAUTDomItem@@PAU1@0ABU1@VIsLessByItemStrNew@@PAH@Z 10067860 f i StructDictLib:Ross.obj
 0001:00066960       ??$_Lower_bound@PAVCStructEntry@@V1@HU?$less@X@std@@@std@@YAPAVCStructEntry@@PAV1@0ABV1@U?$less@X@0@PAH@Z 10067960 f i StructDictLib:Ross.obj
 0001:00066a60       ??$_Lower_bound@PAVTUnitComment@@V1@HU?$less@X@std@@@std@@YAPAVTUnitComment@@PAV1@0ABV1@U?$less@X@0@PAH@Z 10067a60 f i StructDictLib:Ross.obj
 0001:00066b60       ??$_Lower_bound@PBVTUnitComment@@V1@HU?$less@X@std@@@std@@YAPBVTUnitComment@@PBV1@0ABV1@U?$less@X@0@PAH@Z 10067b60 f i StructDictLib:Ross.obj
 0001:00066c60       ??$_Make_heap@PAVCStructEntry@@HV1@U?$less@X@std@@@std@@YAXPAVCStructEntry@@0U?$less@X@0@PAH0@Z 10067c60 f i StructDictLib:Ross.obj
 0001:00066d50       ??$_Make_heap@PAVTUnitComment@@HV1@U?$less@X@std@@@std@@YAXPAVTUnitComment@@0U?$less@X@0@PAH0@Z 10067d50 f i StructDictLib:Ross.obj
 0001:00066e40       ??$_Med3@PAVCStructEntry@@U?$less@X@std@@@std@@YAXPAVCStructEntry@@00U?$less@X@0@@Z 10067e40 f i StructDictLib:Ross.obj
 0001:00066f20       ??$_Med3@PAVTUnitComment@@U?$less@X@std@@@std@@YAXPAVTUnitComment@@00U?$less@X@0@@Z 10067f20 f i StructDictLib:Ross.obj
 0001:00067000       ??$_Median@PAVCStructEntry@@U?$less@X@std@@@std@@YAXPAVCStructEntry@@00U?$less@X@0@@Z 10068000 f i StructDictLib:Ross.obj
 0001:00067120       ??$_Median@PAVTUnitComment@@U?$less@X@std@@@std@@YAXPAVTUnitComment@@00U?$less@X@0@@Z 10068120 f i StructDictLib:Ross.obj
 0001:00067250       ??$_Move@AAVCStructEntry@@@std@@YA$$QAVCStructEntry@@AAV1@@Z 10068250 f i StructDictLib:Ross.obj
 0001:00067280       ??$_Move@AAVTUnitComment@@@std@@YA$$QAVTUnitComment@@AAV1@@Z 10068280 f i StructDictLib:Ross.obj
 0001:000672b0       ??$_Move@PAU?$TBasicCortege@$02@@PAU1@@std@@YAPAU?$TBasicCortege@$02@@PAU1@00@Z 100682b0 f i StructDictLib:Ross.obj
 0001:00067320       ??$_Move@PAU?$TBasicCortege@$02@@PAU1@@std@@YAPAU?$TBasicCortege@$02@@PAU1@00U_Nonscalar_ptr_iterator_tag@0@@Z 10068320 f i StructDictLib:Ross.obj
 0001:000673a0       ??$_Move@PAU?$TBasicCortege@$09@@PAU1@@std@@YAPAU?$TBasicCortege@$09@@PAU1@00@Z 100683a0 f i StructDictLib:Ross.obj
 0001:00067410       ??$_Move@PAU?$TBasicCortege@$09@@PAU1@@std@@YAPAU?$TBasicCortege@$09@@PAU1@00U_Nonscalar_ptr_iterator_tag@0@@Z 10068410 f i StructDictLib:Ross.obj
 0001:00067480       ??$_Move@PAUCSourceLine@@PAU1@@std@@YAPAUCSourceLine@@PAU1@00@Z 10068480 f i StructDictLib:Ross.obj
 0001:000674f0       ??$_Move@PAUCSourceLine@@PAU1@@std@@YAPAUCSourceLine@@PAU1@00U_Nonscalar_ptr_iterator_tag@0@@Z 100684f0 f i StructDictLib:Ross.obj
 0001:00067560       ??$_Move@PAUTDomItem@@PAU1@@std@@YAPAUTDomItem@@PAU1@00@Z 10068560 f i StructDictLib:Ross.obj
 0001:000675d0       ??$_Move@PAUTDomItem@@PAU1@@std@@YAPAUTDomItem@@PAU1@00U_Nonscalar_ptr_iterator_tag@0@@Z 100685d0 f i StructDictLib:Ross.obj
 0001:00067640       ??$_Move@PAVCStructEntry@@PAV1@@std@@YAPAVCStructEntry@@PAV1@00@Z 10068640 f i StructDictLib:Ross.obj
 0001:000676b0       ??$_Move@PAVCStructEntry@@PAV1@@std@@YAPAVCStructEntry@@PAV1@00U_Nonscalar_ptr_iterator_tag@0@@Z 100686b0 f i StructDictLib:Ross.obj
 0001:00067720       ??$_Move@PAVTUnitComment@@PAV1@@std@@YAPAVTUnitComment@@PAV1@00@Z 10068720 f i StructDictLib:Ross.obj
 0001:00067790       ??$_Move@PAVTUnitComment@@PAV1@@std@@YAPAVTUnitComment@@PAV1@00U_Nonscalar_ptr_iterator_tag@0@@Z 10068790 f i StructDictLib:Ross.obj
 0001:00067800       ??$_Move_backward@PAVCStructEntry@@PAV1@@std@@YAPAVCStructEntry@@PAV1@00@Z 10068800 f i StructDictLib:Ross.obj
 0001:00067870       ??$_Move_backward@PAVCStructEntry@@PAV1@@std@@YAPAVCStructEntry@@PAV1@00U_Nonscalar_ptr_iterator_tag@0@@Z 10068870 f i StructDictLib:Ross.obj
 0001:000678e0       ??$_Move_backward@PAVTUnitComment@@PAV1@@std@@YAPAVTUnitComment@@PAV1@00@Z 100688e0 f i StructDictLib:Ross.obj
 0001:00067950       ??$_Move_backward@PAVTUnitComment@@PAV1@@std@@YAPAVTUnitComment@@PAV1@00U_Nonscalar_ptr_iterator_tag@0@@Z 10068950 f i StructDictLib:Ross.obj
 0001:000679c0       ??$_Pop_heap@PAVCStructEntry@@HV1@U?$less@X@std@@@std@@YAXPAVCStructEntry@@00$$QAV1@U?$less@X@0@PAH@Z 100689c0 f i StructDictLib:Ross.obj
 0001:00067a40       ??$_Pop_heap@PAVCStructEntry@@U?$less@X@std@@@std@@YAXPAVCStructEntry@@0U?$less@X@0@@Z 10068a40 f i StructDictLib:Ross.obj
 0001:00067ab0       ??$_Pop_heap@PAVTUnitComment@@HV1@U?$less@X@std@@@std@@YAXPAVTUnitComment@@00$$QAV1@U?$less@X@0@PAH@Z 10068ab0 f i StructDictLib:Ross.obj
 0001:00067b30       ??$_Pop_heap@PAVTUnitComment@@U?$less@X@std@@@std@@YAXPAVTUnitComment@@0U?$less@X@0@@Z 10068b30 f i StructDictLib:Ross.obj
 0001:00067ba0       ??$_Pop_heap_0@PAVCStructEntry@@V1@U?$less@X@std@@@std@@YAXPAVCStructEntry@@0U?$less@X@0@0@Z 10068ba0 f i StructDictLib:Ross.obj
 0001:00067c70       ??$_Pop_heap_0@PAVTUnitComment@@V1@U?$less@X@std@@@std@@YAXPAVTUnitComment@@0U?$less@X@0@0@Z 10068c70 f i StructDictLib:Ross.obj
 0001:00067d50       ??$_Ptr_cat@U?$TBasicCortege@$02@@U1@@std@@YA?AU_Nonscalar_ptr_iterator_tag@0@PAU?$TBasicCortege@$02@@0@Z 10068d50 f i StructDictLib:Ross.obj
 0001:00067db0       ??$_Ptr_cat@U?$TBasicCortege@$09@@U1@@std@@YA?AU_Nonscalar_ptr_iterator_tag@0@PAU?$TBasicCortege@$09@@0@Z 10068db0 f i StructDictLib:Ross.obj
 0001:00067e10       ??$_Ptr_cat@UCSourceLine@@U1@@std@@YA?AU_Nonscalar_ptr_iterator_tag@0@PAUCSourceLine@@0@Z 10068e10 f i StructDictLib:Ross.obj
 0001:00067e70       ??$_Ptr_cat@UTItemStr@@U1@@std@@YA?AU_Nonscalar_ptr_iterator_tag@0@PAUTItemStr@@0@Z 10068e70 f i StructDictLib:Ross.obj
 0001:00067ed0       ??$_Ptr_cat@VCStructEntry@@V1@@std@@YA?AU_Nonscalar_ptr_iterator_tag@0@PAVCStructEntry@@0@Z 10068ed0 f i StructDictLib:Ross.obj
 0001:00067f30       ??$_Ptr_cat@VTUnitComment@@V1@@std@@YA?AU_Nonscalar_ptr_iterator_tag@0@PAVTUnitComment@@0@Z 10068f30 f i StructDictLib:Ross.obj
 0001:00067f90       ??$_Push_heap@PAVCStructEntry@@HV1@U?$less@X@std@@@std@@YAXPAVCStructEntry@@HH$$QAV1@U?$less@X@0@@Z 10068f90 f i StructDictLib:Ross.obj
 0001:00068060       ??$_Push_heap@PAVTUnitComment@@HV1@U?$less@X@std@@@std@@YAXPAVTUnitComment@@HH$$QAV1@U?$less@X@0@@Z 10069060 f i StructDictLib:Ross.obj
 0001:00068140       ??$_Rechecked@PAU?$TBasicCortege@$02@@PAU1@@std@@YAAAPAU?$TBasicCortege@$02@@AAPAU1@PAU1@@Z 10069140 f i StructDictLib:Ross.obj
 0001:00068170       ??$_Rechecked@PAU?$TBasicCortege@$09@@PAU1@@std@@YAAAPAU?$TBasicCortege@$09@@AAPAU1@PAU1@@Z 10069170 f i StructDictLib:Ross.obj
 0001:000681a0       ??$_Rechecked@PAUCSourceLine@@PAU1@@std@@YAAAPAUCSourceLine@@AAPAU1@PAU1@@Z 100691a0 f i StructDictLib:Ross.obj
 0001:000681d0       ??$_Rechecked@PAUTItemStr@@PAU1@@std@@YAAAPAUTItemStr@@AAPAU1@PAU1@@Z 100691d0 f i StructDictLib:Ross.obj
 0001:00068200       ??$_Rechecked@PAVCStructEntry@@PAV1@@std@@YAAAPAVCStructEntry@@AAPAV1@PAV1@@Z 10069200 f i StructDictLib:Ross.obj
 0001:00068230       ??$_Rechecked@PAVTUnitComment@@PAV1@@std@@YAAAPAVTUnitComment@@AAPAV1@PAV1@@Z 10069230 f i StructDictLib:Ross.obj
 0001:00068260       ??$_Rechecked@V?$_Vector_val@U?$_Simple_types@UCSignat@@@std@@@std@@@std@@YAAAV?$_Vector_iterator@V?$_Vector_val@U?$_Simple_types@UCSignat@@@std@@@std@@@0@AAV10@PAUCSignat@@@Z 10069260 f i StructDictLib:Ross.obj
 0001:000682a0       ??$_Rechecked@V?$_Vector_val@U?$_Simple_types@UTDomItem@@@std@@@std@@@std@@YAAAV?$_Vector_iterator@V?$_Vector_val@U?$_Simple_types@UTDomItem@@@std@@@std@@@0@AAV10@PAUTDomItem@@@Z 100692a0 f i StructDictLib:Ross.obj
 0001:000682e0       ??$_Rechecked@V?$_Vector_val@U?$_Simple_types@VCStructEntry@@@std@@@std@@@std@@YAAAV?$_Vector_iterator@V?$_Vector_val@U?$_Simple_types@VCStructEntry@@@std@@@std@@@0@AAV10@PAVCStructEntry@@@Z 100692e0 f i StructDictLib:Ross.obj
 0001:00068320       ??$_Rechecked@V?$_Vector_val@U?$_Simple_types@VTUnitComment@@@std@@@std@@@std@@YAAAV?$_Vector_const_iterator@V?$_Vector_val@U?$_Simple_types@VTUnitComment@@@std@@@std@@@0@AAV10@PBVTUnitComment@@@Z 10069320 f i StructDictLib:Ross.obj
 0001:00068360       ??$_Rechecked@V?$_Vector_val@U?$_Simple_types@VTUnitComment@@@std@@@std@@@std@@YAAAV?$_Vector_iterator@V?$_Vector_val@U?$_Simple_types@VTUnitComment@@@std@@@std@@@0@AAV10@PAVTUnitComment@@@Z 10069360 f i StructDictLib:Ross.obj
 0001:000683a0       ??$_Sort@PAVCStructEntry@@HU?$less@X@std@@@std@@YAXPAVCStructEntry@@0HU?$less@X@0@@Z 100693a0 f i StructDictLib:Ross.obj
 0001:00068510       ??$_Sort@PAVTUnitComment@@HU?$less@X@std@@@std@@YAXPAVTUnitComment@@0HU?$less@X@0@@Z 10069510 f i StructDictLib:Ross.obj
 0001:00068680       ??$_Sort_heap@PAVCStructEntry@@U?$less@X@std@@@std@@YAXPAVCStructEntry@@0U?$less@X@0@@Z 10069680 f i StructDictLib:Ross.obj
 0001:000686f0       ??$_Sort_heap@PAVTUnitComment@@U?$less@X@std@@@std@@YAXPAVTUnitComment@@0U?$less@X@0@@Z 100696f0 f i StructDictLib:Ross.obj
 0001:00068760       ??$_Umove@PAU?$TBasicCortege@$02@@@?$vector@U?$TBasicCortege@$02@@V?$allocator@U?$TBasicCortege@$02@@@std@@@std@@IAEPAU?$TBasicCortege@$02@@PAU2@00@Z 10069760 f i StructDictLib:Ross.obj
 0001:000687f0       ??$_Umove@PAU?$TBasicCortege@$09@@@?$vector@U?$TBasicCortege@$09@@V?$allocator@U?$TBasicCortege@$09@@@std@@@std@@IAEPAU?$TBasicCortege@$09@@PAU2@00@Z 100697f0 f i StructDictLib:Ross.obj
 0001:00068880       ??$_Umove@PAUCSourceLine@@@?$vector@UCSourceLine@@V?$allocator@UCSourceLine@@@std@@@std@@IAEPAUCSourceLine@@PAU2@00@Z 10069880 f i StructDictLib:Ross.obj
 0001:00068910       ??$_Umove@PAUTItemStr@@@?$vector@UTItemStr@@V?$allocator@UTItemStr@@@std@@@std@@IAEPAUTItemStr@@PAU2@00@Z 10069910 f i StructDictLib:Ross.obj
 0001:000689a0       ??$_Umove@PAVCStructEntry@@@?$vector@VCStructEntry@@V?$allocator@VCStructEntry@@@std@@@std@@IAEPAVCStructEntry@@PAV2@00@Z 100699a0 f i StructDictLib:Ross.obj
 0001:00068a30       ??$_Umove@PAVTUnitComment@@@?$vector@VTUnitComment@@V?$allocator@VTUnitComment@@@std@@@std@@IAEPAVTUnitComment@@PAV2@00@Z 10069a30 f i StructDictLib:Ross.obj
 0001:00068ac0       ??$_Unchecked@PAU?$TBasicCortege@$02@@@std@@YAPAU?$TBasicCortege@$02@@PAU1@@Z 10069ac0 f i StructDictLib:Ross.obj
 0001:00068af0       ??$_Unchecked@PAU?$TBasicCortege@$09@@@std@@YAPAU?$TBasicCortege@$09@@PAU1@@Z 10069af0 f i StructDictLib:Ross.obj
 0001:00068b20       ??$_Unchecked@PAUCSourceLine@@@std@@YAPAUCSourceLine@@PAU1@@Z 10069b20 f i StructDictLib:Ross.obj
 0001:00068b50       ??$_Unchecked@PAUTItemStr@@@std@@YAPAUTItemStr@@PAU1@@Z 10069b50 f i StructDictLib:Ross.obj
 0001:00068b80       ??$_Unchecked@PAVCStructEntry@@@std@@YAPAVCStructEntry@@PAV1@@Z 10069b80 f i StructDictLib:Ross.obj
 0001:00068bb0       ??$_Unchecked@PAVTUnitComment@@@std@@YAPAVTUnitComment@@PAV1@@Z 10069bb0 f i StructDictLib:Ross.obj
 0001:00068be0       ??$_Unchecked@V?$_Vector_val@U?$_Simple_types@UTDomItem@@@std@@@std@@@std@@YAPAUTDomItem@@V?$_Vector_iterator@V?$_Vector_val@U?$_Simple_types@UTDomItem@@@std@@@std@@@0@@Z 10069be0 f i StructDictLib:Ross.obj
 0001:00068c70       ??$_Unchecked@V?$_Vector_val@U?$_Simple_types@VCStructEntry@@@std@@@std@@@std@@YAPAVCStructEntry@@V?$_Vector_iterator@V?$_Vector_val@U?$_Simple_types@VCStructEntry@@@std@@@std@@@0@@Z 10069c70 f i StructDictLib:Ross.obj
 0001:00068d00       ??$_Unchecked@V?$_Vector_val@U?$_Simple_types@VTUnitComment@@@std@@@std@@@std@@YAPAVTUnitComment@@V?$_Vector_iterator@V?$_Vector_val@U?$_Simple_types@VTUnitComment@@@std@@@std@@@0@@Z 10069d00 f i StructDictLib:Ross.obj
 0001:00068d90       ??$_Unchecked@V?$_Vector_val@U?$_Simple_types@VTUnitComment@@@std@@@std@@@std@@YAPBVTUnitComment@@V?$_Vector_const_iterator@V?$_Vector_val@U?$_Simple_types@VTUnitComment@@@std@@@std@@@0@@Z 10069d90 f i StructDictLib:Ross.obj
 0001:00068e20       ??$_Unguarded_partition@PAVCStructEntry@@U?$less@X@std@@@std@@YA?AU?$pair@PAVCStructEntry@@PAV1@@0@PAVCStructEntry@@0U?$less@X@0@@Z 10069e20 f i StructDictLib:Ross.obj
 0001:000691e0       ??$_Unguarded_partition@PAVTUnitComment@@U?$less@X@std@@@std@@YA?AU?$pair@PAVTUnitComment@@PAV1@@0@PAVTUnitComment@@0U?$less@X@0@@Z 1006a1e0 f i StructDictLib:Ross.obj
 0001:000695e0       ??$_Uninit_fill_n@PAUTDomItem@@IU1@V?$allocator@UTDomItem@@@std@@U1@@std@@YAXPAUTDomItem@@IPBU1@AAU?$_Wrap_alloc@V?$allocator@UTDomItem@@@std@@@0@0U_Nonscalar_ptr_iterator_tag@0@@Z 1006a5e0 f i StructDictLib:Ross.obj
 0001:000696c0       ??$_Uninit_fill_n@PAVCStructEntry@@IV1@V?$allocator@VCStructEntry@@@std@@V1@@std@@YAXPAVCStructEntry@@IPBV1@AAU?$_Wrap_alloc@V?$allocator@VCStructEntry@@@std@@@0@0U_Nonscalar_ptr_iterator_tag@0@@Z 1006a6c0 f i StructDictLib:Ross.obj
 0001:000697a0       ??$_Uninit_fill_n@PAVTUnitComment@@IV1@V?$allocator@VTUnitComment@@@std@@V1@@std@@YAXPAVTUnitComment@@IPBV1@AAU?$_Wrap_alloc@V?$allocator@VTUnitComment@@@std@@@0@0U_Nonscalar_ptr_iterator_tag@0@@Z 1006a7a0 f i StructDictLib:Ross.obj
 0001:00069880       ??$_Uninit_move@PAU?$TBasicCortege@$02@@PAU1@U?$_Wrap_alloc@V?$allocator@U?$TBasicCortege@$02@@@std@@@std@@@std@@YAPAU?$TBasicCortege@$02@@PAU1@00AAU?$_Wrap_alloc@V?$allocator@U?$TBasicCortege@$02@@@std@@@0@@Z 1006a880 f i StructDictLib:Ross.obj
 0001:00069900       ??$_Uninit_move@PAU?$TBasicCortege@$02@@PAU1@V?$allocator@U?$TBasicCortege@$02@@@std@@U1@@std@@YAPAU?$TBasicCortege@$02@@PAU1@00AAU?$_Wrap_alloc@V?$allocator@U?$TBasicCortege@$02@@@std@@@0@0U_Nonscalar_ptr_iterator_tag@0@@Z 1006a900 f i StructDictLib:Ross.obj
 0001:00069a10       ??$_Uninit_move@PAU?$TBasicCortege@$09@@PAU1@U?$_Wrap_alloc@V?$allocator@U?$TBasicCortege@$09@@@std@@@std@@@std@@YAPAU?$TBasicCortege@$09@@PAU1@00AAU?$_Wrap_alloc@V?$allocator@U?$TBasicCortege@$09@@@std@@@0@@Z 1006aa10 f i StructDictLib:Ross.obj
 0001:00069a90       ??$_Uninit_move@PAU?$TBasicCortege@$09@@PAU1@V?$allocator@U?$TBasicCortege@$09@@@std@@U1@@std@@YAPAU?$TBasicCortege@$09@@PAU1@00AAU?$_Wrap_alloc@V?$allocator@U?$TBasicCortege@$09@@@std@@@0@0U_Nonscalar_ptr_iterator_tag@0@@Z 1006aa90 f i StructDictLib:Ross.obj
 0001:00069ba0       ??$_Uninit_move@PAUCSourceLine@@PAU1@U?$_Wrap_alloc@V?$allocator@UCSourceLine@@@std@@@std@@@std@@YAPAUCSourceLine@@PAU1@00AAU?$_Wrap_alloc@V?$allocator@UCSourceLine@@@std@@@0@@Z 1006aba0 f i StructDictLib:Ross.obj
 0001:00069c20       ??$_Uninit_move@PAUCSourceLine@@PAU1@V?$allocator@UCSourceLine@@@std@@U1@@std@@YAPAUCSourceLine@@PAU1@00AAU?$_Wrap_alloc@V?$allocator@UCSourceLine@@@std@@@0@0U_Nonscalar_ptr_iterator_tag@0@@Z 1006ac20 f i StructDictLib:Ross.obj
 0001:00069d30       ??$_Uninit_move@PAUTItemStr@@PAU1@U?$_Wrap_alloc@V?$allocator@UTItemStr@@@std@@@std@@@std@@YAPAUTItemStr@@PAU1@00AAU?$_Wrap_alloc@V?$allocator@UTItemStr@@@std@@@0@@Z 1006ad30 f i StructDictLib:Ross.obj
 0001:00069db0       ??$_Uninit_move@PAUTItemStr@@PAU1@V?$allocator@UTItemStr@@@std@@U1@@std@@YAPAUTItemStr@@PAU1@00AAU?$_Wrap_alloc@V?$allocator@UTItemStr@@@std@@@0@0U_Nonscalar_ptr_iterator_tag@0@@Z 1006adb0 f i StructDictLib:Ross.obj
 0001:00069ec0       ??$_Uninit_move@PAVCStructEntry@@PAV1@U?$_Wrap_alloc@V?$allocator@VCStructEntry@@@std@@@std@@@std@@YAPAVCStructEntry@@PAV1@00AAU?$_Wrap_alloc@V?$allocator@VCStructEntry@@@std@@@0@@Z 1006aec0 f i StructDictLib:Ross.obj
 0001:00069f40       ??$_Uninit_move@PAVCStructEntry@@PAV1@V?$allocator@VCStructEntry@@@std@@V1@@std@@YAPAVCStructEntry@@PAV1@00AAU?$_Wrap_alloc@V?$allocator@VCStructEntry@@@std@@@0@0U_Nonscalar_ptr_iterator_tag@0@@Z 1006af40 f i StructDictLib:Ross.obj
 0001:0006a050       ??$_Uninit_move@PAVTUnitComment@@PAV1@U?$_Wrap_alloc@V?$allocator@VTUnitComment@@@std@@@std@@@std@@YAPAVTUnitComment@@PAV1@00AAU?$_Wrap_alloc@V?$allocator@VTUnitComment@@@std@@@0@@Z 1006b050 f i StructDictLib:Ross.obj
 0001:0006a0d0       ??$_Uninit_move@PAVTUnitComment@@PAV1@V?$allocator@VTUnitComment@@@std@@V1@@std@@YAPAVTUnitComment@@PAV1@00AAU?$_Wrap_alloc@V?$allocator@VTUnitComment@@@std@@@0@0U_Nonscalar_ptr_iterator_tag@0@@Z 1006b0d0 f i StructDictLib:Ross.obj
 0001:0006a1f0       ??$_Uninitialized_fill_n@PAUTDomItem@@IU1@U?$_Wrap_alloc@V?$allocator@UTDomItem@@@std@@@std@@@std@@YAXPAUTDomItem@@IPBU1@AAU?$_Wrap_alloc@V?$allocator@UTDomItem@@@std@@@0@@Z 1006b1f0 f i StructDictLib:Ross.obj
 0001:0006a270       ??$_Uninitialized_fill_n@PAVCStructEntry@@IV1@U?$_Wrap_alloc@V?$allocator@VCStructEntry@@@std@@@std@@@std@@YAXPAVCStructEntry@@IPBV1@AAU?$_Wrap_alloc@V?$allocator@VCStructEntry@@@std@@@0@@Z 1006b270 f i StructDictLib:Ross.obj
 0001:0006a2f0       ??$_Uninitialized_fill_n@PAVTUnitComment@@IV1@U?$_Wrap_alloc@V?$allocator@VTUnitComment@@@std@@@std@@@std@@YAXPAVTUnitComment@@IPBV1@AAU?$_Wrap_alloc@V?$allocator@VTUnitComment@@@std@@@0@@Z 1006b2f0 f i StructDictLib:Ross.obj
 0001:0006a370       ??$_Uninitialized_move@PAU?$TBasicCortege@$02@@PAU1@U?$_Wrap_alloc@V?$allocator@U?$TBasicCortege@$02@@@std@@@std@@@std@@YAPAU?$TBasicCortege@$02@@PAU1@00AAU?$_Wrap_alloc@V?$allocator@U?$TBasicCortege@$02@@@std@@@0@@Z 1006b370 f i StructDictLib:Ross.obj
 0001:0006a3f0       ??$_Uninitialized_move@PAU?$TBasicCortege@$09@@PAU1@U?$_Wrap_alloc@V?$allocator@U?$TBasicCortege@$09@@@std@@@std@@@std@@YAPAU?$TBasicCortege@$09@@PAU1@00AAU?$_Wrap_alloc@V?$allocator@U?$TBasicCortege@$09@@@std@@@0@@Z 1006b3f0 f i StructDictLib:Ross.obj
 0001:0006a470       ??$_Uninitialized_move@PAUCSourceLine@@PAU1@U?$_Wrap_alloc@V?$allocator@UCSourceLine@@@std@@@std@@@std@@YAPAUCSourceLine@@PAU1@00AAU?$_Wrap_alloc@V?$allocator@UCSourceLine@@@std@@@0@@Z 1006b470 f i StructDictLib:Ross.obj
 0001:0006a4f0       ??$_Uninitialized_move@PAUTItemStr@@PAU1@U?$_Wrap_alloc@V?$allocator@UTItemStr@@@std@@@std@@@std@@YAPAUTItemStr@@PAU1@00AAU?$_Wrap_alloc@V?$allocator@UTItemStr@@@std@@@0@@Z 1006b4f0 f i StructDictLib:Ross.obj
 0001:0006a570       ??$_Uninitialized_move@PAVCStructEntry@@PAV1@U?$_Wrap_alloc@V?$allocator@VCStructEntry@@@std@@@std@@@std@@YAPAVCStructEntry@@PAV1@00AAU?$_Wrap_alloc@V?$allocator@VCStructEntry@@@std@@@0@@Z 1006b570 f i StructDictLib:Ross.obj
 0001:0006a5f0       ??$_Uninitialized_move@PAVTUnitComment@@PAV1@U?$_Wrap_alloc@V?$allocator@VTUnitComment@@@std@@@std@@@std@@YAPAVTUnitComment@@PAV1@00AAU?$_Wrap_alloc@V?$allocator@VTUnitComment@@@std@@@0@@Z 1006b5f0 f i StructDictLib:Ross.obj
 0001:0006a670       ??$_Val_type@PAU?$TBasicCortege@$02@@@std@@YAPAU?$TBasicCortege@$02@@PAU1@@Z 1006b670 f i StructDictLib:Ross.obj
 0001:0006a6a0       ??$_Val_type@PAU?$TBasicCortege@$09@@@std@@YAPAU?$TBasicCortege@$09@@PAU1@@Z 1006b6a0 f i StructDictLib:Ross.obj
 0001:0006a6d0       ??$_Val_type@PAUCSourceLine@@@std@@YAPAUCSourceLine@@PAU1@@Z 1006b6d0 f i StructDictLib:Ross.obj
 0001:0006a700       ??$_Val_type@PAUTItemStr@@@std@@YAPAUTItemStr@@PAU1@@Z 1006b700 f i StructDictLib:Ross.obj
 0001:0006a730       ??$_Val_type@PAVCStructEntry@@@std@@YAPAVCStructEntry@@PAV1@@Z 1006b730 f i StructDictLib:Ross.obj
 0001:0006a760       ??$_Val_type@PAVTUnitComment@@@std@@YAPAVTUnitComment@@PAV1@@Z 1006b760 f i StructDictLib:Ross.obj
 0001:0006a790       ??$addressof@$$CBU?$TBasicCortege@$02@@@std@@YAPBU?$TBasicCortege@$02@@ABU1@@Z 1006b790 f i StructDictLib:Ross.obj
 0001:0006a7c0       ??$addressof@$$CBU?$TBasicCortege@$09@@@std@@YAPBU?$TBasicCortege@$09@@ABU1@@Z 1006b7c0 f i StructDictLib:Ross.obj
 0001:0006a7f0       ??$addressof@$$CBUCField@@@std@@YAPBUCField@@ABU1@@Z 1006b7f0 f i StructDictLib:Ross.obj
 0001:0006a820       ??$addressof@$$CBVCStructEntry@@@std@@YAPBVCStructEntry@@ABV1@@Z 1006b820 f i StructDictLib:Ross.obj
 0001:0006a850       ??$addressof@$$CBVTUnitComment@@@std@@YAPBVTUnitComment@@ABV1@@Z 1006b850 f i StructDictLib:Ross.obj
 0001:0006a880       ??$addressof@UCSourceLine@@@std@@YAPAUCSourceLine@@AAU1@@Z 1006b880 f i StructDictLib:Ross.obj
 0001:0006a8b0       ??$addressof@UTDomItem@@@std@@YAPAUTDomItem@@AAU1@@Z 1006b8b0 f i StructDictLib:Ross.obj
 0001:0006a8e0       ??$addressof@UTItemStr@@@std@@YAPAUTItemStr@@AAU1@@Z 1006b8e0 f i StructDictLib:Ross.obj
 0001:0006a910       ??$addressof@VCStructEntry@@@std@@YAPAVCStructEntry@@AAV1@@Z 1006b910 f i StructDictLib:Ross.obj
 0001:0006a940       ??$addressof@VTUnitComment@@@std@@YAPAVTUnitComment@@AAV1@@Z 1006b940 f i StructDictLib:Ross.obj
 0001:0006a970       ??$advance@PAUTDomItem@@H@std@@YAXAAPAUTDomItem@@H@Z 1006b970 f i StructDictLib:Ross.obj
 0001:0006a9d0       ??$advance@PAVCStructEntry@@H@std@@YAXAAPAVCStructEntry@@H@Z 1006b9d0 f i StructDictLib:Ross.obj
 0001:0006aa30       ??$advance@PAVTUnitComment@@H@std@@YAXAAPAVTUnitComment@@H@Z 1006ba30 f i StructDictLib:Ross.obj
 0001:0006aa90       ??$advance@PBVTUnitComment@@H@std@@YAXAAPBVTUnitComment@@H@Z 1006ba90 f i StructDictLib:Ross.obj
 0001:0006aaf0       ??$construct@U?$TBasicCortege@$02@@AAU1@@?$_Wrap_alloc@V?$allocator@U?$TBasicCortege@$02@@@std@@@std@@QAEXPAU?$TBasicCortege@$02@@AAU2@@Z 1006baf0 f i StructDictLib:Ross.obj
 0001:0006ab50       ??$construct@U?$TBasicCortege@$02@@AAU1@@?$allocator@U?$TBasicCortege@$02@@@std@@QAEXPAU?$TBasicCortege@$02@@AAU2@@Z 1006bb50 f i StructDictLib:Ross.obj
 0001:0006ac30       ??$construct@U?$TBasicCortege@$02@@AAU1@@?$allocator_traits@V?$allocator@U?$TBasicCortege@$02@@@std@@@std@@SAXAAV?$allocator@U?$TBasicCortege@$02@@@1@PAU?$TBasicCortege@$02@@AAU3@@Z 1006bc30 f i StructDictLib:Ross.obj
 0001:0006ac80       ??$construct@U?$TBasicCortege@$02@@ABU1@@?$_Wrap_alloc@V?$allocator@U?$TBasicCortege@$02@@@std@@@std@@QAEXPAU?$TBasicCortege@$02@@ABU2@@Z 1006bc80 f i StructDictLib:Ross.obj
 0001:0006ace0       ??$construct@U?$TBasicCortege@$02@@ABU1@@?$allocator_traits@V?$allocator@U?$TBasicCortege@$02@@@std@@@std@@SAXAAV?$allocator@U?$TBasicCortege@$02@@@1@PAU?$TBasicCortege@$02@@ABU3@@Z 1006bce0 f i StructDictLib:Ross.obj
 0001:0006ad30       ??$construct@U?$TBasicCortege@$02@@U1@@?$_Wrap_alloc@V?$allocator@U?$TBasicCortege@$02@@@std@@@std@@QAEXPAU?$TBasicCortege@$02@@$$QAU2@@Z 1006bd30 f i StructDictLib:Ross.obj
 0001:0006ad90       ??$construct@U?$TBasicCortege@$02@@U1@@?$allocator@U?$TBasicCortege@$02@@@std@@QAEXPAU?$TBasicCortege@$02@@$$QAU2@@Z 1006bd90 f i StructDictLib:Ross.obj
 0001:0006ae70       ??$construct@U?$TBasicCortege@$02@@U1@@?$allocator_traits@V?$allocator@U?$TBasicCortege@$02@@@std@@@std@@SAXAAV?$allocator@U?$TBasicCortege@$02@@@1@PAU?$TBasicCortege@$02@@$$QAU3@@Z 1006be70 f i StructDictLib:Ross.obj
 0001:0006aec0       ??$construct@U?$TBasicCortege@$09@@AAU1@@?$_Wrap_alloc@V?$allocator@U?$TBasicCortege@$09@@@std@@@std@@QAEXPAU?$TBasicCortege@$09@@AAU2@@Z 1006bec0 f i StructDictLib:Ross.obj
 0001:0006af20       ??$construct@U?$TBasicCortege@$09@@AAU1@@?$allocator@U?$TBasicCortege@$09@@@std@@QAEXPAU?$TBasicCortege@$09@@AAU2@@Z 1006bf20 f i StructDictLib:Ross.obj
 0001:0006aff0       ??$construct@U?$TBasicCortege@$09@@AAU1@@?$allocator_traits@V?$allocator@U?$TBasicCortege@$09@@@std@@@std@@SAXAAV?$allocator@U?$TBasicCortege@$09@@@1@PAU?$TBasicCortege@$09@@AAU3@@Z 1006bff0 f i StructDictLib:Ross.obj
 0001:0006b040       ??$construct@U?$TBasicCortege@$09@@ABU1@@?$_Wrap_alloc@V?$allocator@U?$TBasicCortege@$09@@@std@@@std@@QAEXPAU?$TBasicCortege@$09@@ABU2@@Z 1006c040 f i StructDictLib:Ross.obj
 0001:0006b0a0       ??$construct@U?$TBasicCortege@$09@@ABU1@@?$allocator_traits@V?$allocator@U?$TBasicCortege@$09@@@std@@@std@@SAXAAV?$allocator@U?$TBasicCortege@$09@@@1@PAU?$TBasicCortege@$09@@ABU3@@Z 1006c0a0 f i StructDictLib:Ross.obj
 0001:0006b0f0       ??$construct@U?$TBasicCortege@$09@@U1@@?$_Wrap_alloc@V?$allocator@U?$TBasicCortege@$09@@@std@@@std@@QAEXPAU?$TBasicCortege@$09@@$$QAU2@@Z 1006c0f0 f i StructDictLib:Ross.obj
 0001:0006b150       ??$construct@U?$TBasicCortege@$09@@U1@@?$allocator@U?$TBasicCortege@$09@@@std@@QAEXPAU?$TBasicCortege@$09@@$$QAU2@@Z 1006c150 f i StructDictLib:Ross.obj
 0001:0006b220       ??$construct@U?$TBasicCortege@$09@@U1@@?$allocator_traits@V?$allocator@U?$TBasicCortege@$09@@@std@@@std@@SAXAAV?$allocator@U?$TBasicCortege@$09@@@1@PAU?$TBasicCortege@$09@@$$QAU3@@Z 1006c220 f i StructDictLib:Ross.obj
 0001:0006b270       ??$construct@UCField@@AAU1@@?$_Wrap_alloc@V?$allocator@UCField@@@std@@@std@@QAEXPAUCField@@AAU2@@Z 1006c270 f i StructDictLib:Ross.obj
 0001:0006b2d0       ??$construct@UCField@@AAU1@@?$allocator@UCField@@@std@@QAEXPAUCField@@AAU2@@Z 1006c2d0 f i StructDictLib:Ross.obj
 0001:0006b3a0       ??$construct@UCField@@AAU1@@?$allocator_traits@V?$allocator@UCField@@@std@@@std@@SAXAAV?$allocator@UCField@@@1@PAUCField@@AAU3@@Z 1006c3a0 f i StructDictLib:Ross.obj
 0001:0006b3f0       ??$construct@UCField@@ABU1@@?$_Wrap_alloc@V?$allocator@UCField@@@std@@@std@@QAEXPAUCField@@ABU2@@Z 1006c3f0 f i StructDictLib:Ross.obj
 0001:0006b450       ??$construct@UCField@@ABU1@@?$allocator_traits@V?$allocator@UCField@@@std@@@std@@SAXAAV?$allocator@UCField@@@1@PAUCField@@ABU3@@Z 1006c450 f i StructDictLib:Ross.obj
 0001:0006b4a0       ??$construct@UCSourceLine@@U1@@?$_Wrap_alloc@V?$allocator@UCSourceLine@@@std@@@std@@QAEXPAUCSourceLine@@$$QAU2@@Z 1006c4a0 f i StructDictLib:Ross.obj
 0001:0006b500       ??$construct@UCSourceLine@@U1@@?$allocator@UCSourceLine@@@std@@QAEXPAUCSourceLine@@$$QAU2@@Z 1006c500 f i StructDictLib:Ross.obj
 0001:0006b5d0       ??$construct@UCSourceLine@@U1@@?$allocator_traits@V?$allocator@UCSourceLine@@@std@@@std@@SAXAAV?$allocator@UCSourceLine@@@1@PAUCSourceLine@@$$QAU3@@Z 1006c5d0 f i StructDictLib:Ross.obj
 0001:0006b620       ??$construct@UTItemStr@@U1@@?$_Wrap_alloc@V?$allocator@UTItemStr@@@std@@@std@@QAEXPAUTItemStr@@$$QAU2@@Z 1006c620 f i StructDictLib:Ross.obj
 0001:0006b680       ??$construct@UTItemStr@@U1@@?$allocator@UTItemStr@@@std@@QAEXPAUTItemStr@@$$QAU2@@Z 1006c680 f i StructDictLib:Ross.obj
 0001:0006b750       ??$construct@UTItemStr@@U1@@?$allocator_traits@V?$allocator@UTItemStr@@@std@@@std@@SAXAAV?$allocator@UTItemStr@@@1@PAUTItemStr@@$$QAU3@@Z 1006c750 f i StructDictLib:Ross.obj
 0001:0006b7a0       ??$construct@VCStructEntry@@AAV1@@?$_Wrap_alloc@V?$allocator@VCStructEntry@@@std@@@std@@QAEXPAVCStructEntry@@AAV2@@Z 1006c7a0 f i StructDictLib:Ross.obj
 0001:0006b800       ??$construct@VCStructEntry@@AAV1@@?$allocator@VCStructEntry@@@std@@QAEXPAVCStructEntry@@AAV2@@Z 1006c800 f i StructDictLib:Ross.obj
 0001:0006b8d0       ??$construct@VCStructEntry@@AAV1@@?$allocator_traits@V?$allocator@VCStructEntry@@@std@@@std@@SAXAAV?$allocator@VCStructEntry@@@1@PAVCStructEntry@@AAV3@@Z 1006c8d0 f i StructDictLib:Ross.obj
 0001:0006b920       ??$construct@VCStructEntry@@ABV1@@?$_Wrap_alloc@V?$allocator@VCStructEntry@@@std@@@std@@QAEXPAVCStructEntry@@ABV2@@Z 1006c920 f i StructDictLib:Ross.obj
 0001:0006b980       ??$construct@VCStructEntry@@ABV1@@?$allocator_traits@V?$allocator@VCStructEntry@@@std@@@std@@SAXAAV?$allocator@VCStructEntry@@@1@PAVCStructEntry@@ABV3@@Z 1006c980 f i StructDictLib:Ross.obj
 0001:0006b9d0       ??$construct@VCStructEntry@@V1@@?$_Wrap_alloc@V?$allocator@VCStructEntry@@@std@@@std@@QAEXPAVCStructEntry@@$$QAV2@@Z 1006c9d0 f i StructDictLib:Ross.obj
 0001:0006ba30       ??$construct@VCStructEntry@@V1@@?$allocator@VCStructEntry@@@std@@QAEXPAVCStructEntry@@$$QAV2@@Z 1006ca30 f i StructDictLib:Ross.obj
 0001:0006bb00       ??$construct@VCStructEntry@@V1@@?$allocator_traits@V?$allocator@VCStructEntry@@@std@@@std@@SAXAAV?$allocator@VCStructEntry@@@1@PAVCStructEntry@@$$QAV3@@Z 1006cb00 f i StructDictLib:Ross.obj
 0001:0006bb50       ??$construct@VTUnitComment@@AAV1@@?$_Wrap_alloc@V?$allocator@VTUnitComment@@@std@@@std@@QAEXPAVTUnitComment@@AAV2@@Z 1006cb50 f i StructDictLib:Ross.obj
 0001:0006bbb0       ??$construct@VTUnitComment@@AAV1@@?$allocator@VTUnitComment@@@std@@QAEXPAVTUnitComment@@AAV2@@Z 1006cbb0 f i StructDictLib:Ross.obj
 0001:0006bc80       ??$construct@VTUnitComment@@AAV1@@?$allocator_traits@V?$allocator@VTUnitComment@@@std@@@std@@SAXAAV?$allocator@VTUnitComment@@@1@PAVTUnitComment@@AAV3@@Z 1006cc80 f i StructDictLib:Ross.obj
 0001:0006bcd0       ??$construct@VTUnitComment@@ABV1@@?$_Wrap_alloc@V?$allocator@VTUnitComment@@@std@@@std@@QAEXPAVTUnitComment@@ABV2@@Z 1006ccd0 f i StructDictLib:Ross.obj
 0001:0006bd30       ??$construct@VTUnitComment@@ABV1@@?$allocator_traits@V?$allocator@VTUnitComment@@@std@@@std@@SAXAAV?$allocator@VTUnitComment@@@1@PAVTUnitComment@@ABV3@@Z 1006cd30 f i StructDictLib:Ross.obj
 0001:0006bd80       ??$construct@VTUnitComment@@V1@@?$_Wrap_alloc@V?$allocator@VTUnitComment@@@std@@@std@@QAEXPAVTUnitComment@@$$QAV2@@Z 1006cd80 f i StructDictLib:Ross.obj
 0001:0006bde0       ??$construct@VTUnitComment@@V1@@?$allocator@VTUnitComment@@@std@@QAEXPAVTUnitComment@@$$QAV2@@Z 1006cde0 f i StructDictLib:Ross.obj
 0001:0006beb0       ??$construct@VTUnitComment@@V1@@?$allocator_traits@V?$allocator@VTUnitComment@@@std@@@std@@SAXAAV?$allocator@VTUnitComment@@@1@PAVTUnitComment@@$$QAV3@@Z 1006ceb0 f i StructDictLib:Ross.obj
 0001:0006bf00       ??$destroy@U?$TBasicCortege@$02@@@?$_Wrap_alloc@V?$allocator@U?$TBasicCortege@$02@@@std@@@std@@QAEXPAU?$TBasicCortege@$02@@@Z 1006cf00 f i StructDictLib:Ross.obj
 0001:0006bf50       ??$destroy@U?$TBasicCortege@$02@@@?$allocator@U?$TBasicCortege@$02@@@std@@QAEXPAU?$TBasicCortege@$02@@@Z 1006cf50 f i StructDictLib:Ross.obj
 0001:0006bf80       ??$destroy@U?$TBasicCortege@$02@@@?$allocator_traits@V?$allocator@U?$TBasicCortege@$02@@@std@@@std@@SAXAAV?$allocator@U?$TBasicCortege@$02@@@1@PAU?$TBasicCortege@$02@@@Z 1006cf80 f i StructDictLib:Ross.obj
 0001:0006bfc0       ??$destroy@U?$TBasicCortege@$09@@@?$_Wrap_alloc@V?$allocator@U?$TBasicCortege@$09@@@std@@@std@@QAEXPAU?$TBasicCortege@$09@@@Z 1006cfc0 f i StructDictLib:Ross.obj
 0001:0006c010       ??$destroy@U?$TBasicCortege@$09@@@?$allocator@U?$TBasicCortege@$09@@@std@@QAEXPAU?$TBasicCortege@$09@@@Z 1006d010 f i StructDictLib:Ross.obj
 0001:0006c040       ??$destroy@U?$TBasicCortege@$09@@@?$allocator_traits@V?$allocator@U?$TBasicCortege@$09@@@std@@@std@@SAXAAV?$allocator@U?$TBasicCortege@$09@@@1@PAU?$TBasicCortege@$09@@@Z 1006d040 f i StructDictLib:Ross.obj
 0001:0006c080       ??$destroy@UCSourceLine@@@?$_Wrap_alloc@V?$allocator@UCSourceLine@@@std@@@std@@QAEXPAUCSourceLine@@@Z 1006d080 f i StructDictLib:Ross.obj
 0001:0006c0d0       ??$destroy@UCSourceLine@@@?$allocator@UCSourceLine@@@std@@QAEXPAUCSourceLine@@@Z 1006d0d0 f i StructDictLib:Ross.obj
 0001:0006c120       ??$destroy@UCSourceLine@@@?$allocator_traits@V?$allocator@UCSourceLine@@@std@@@std@@SAXAAV?$allocator@UCSourceLine@@@1@PAUCSourceLine@@@Z 1006d120 f i StructDictLib:Ross.obj
